Archive member included because of file (symbol)

/opt/microchip/harmony/v1_03/bin/framework/peripheral/PIC32MZ1024ECG064_peripherals.a(peripheral.o)
                              build/pic32mz1024ecg064/production/_ext/1419604243/sys_ports.o (PLIB_DEVCON_DeviceRegistersUnlock)

Optional file libmchp_peripheral_32MZ1024ECG064.a not found
/opt/microchip/xc32/v1.34/bin/bin/../../lib/gcc/pic32mx/4.5.2/libgcc.a(_divdi3.o)
                              build/pic32mz1024ecg064/production/_ext/115108523/decoder.o (__divdi3)
/opt/microchip/xc32/v1.34/bin/bin/../../lib/gcc/pic32mx/4.5.2/libgcc.a(_moddi3.o)
                              build/pic32mz1024ecg064/production/_ext/115108523/decoder.o (__moddi3)
/opt/microchip/xc32/v1.34/bin/bin/../../lib/gcc/pic32mx/4.5.2/libgcc.a(floatunsisf.o)
                              build/pic32mz1024ecg064/production/_ext/115108523/grid.o (__floatunsisf)
/opt/microchip/xc32/v1.34/bin/bin/../../lib/gcc/pic32mx/4.5.2/../../../../pic32mx/lib/libpic32.a(memcpy.o)
                              build/pic32mz1024ecg064/production/_ext/115108523/gridprobability.o (memcpy)
/opt/microchip/xc32/v1.34/bin/bin/../../lib/gcc/pic32mx/4.5.2/../../../../pic32mx/lib/libpic32.a(default-bootstrap-exception-handler.o)
                              /opt/microchip/xc32/v1.34/bin/bin/../../lib/gcc/pic32mx/4.5.2/../../../../pic32mx/lib/./proc/32MZ1024ECG064/crt0_mips32r2.o (_bootstrap_exception_handler)
/opt/microchip/xc32/v1.34/bin/bin/../../lib/gcc/pic32mx/4.5.2/../../../../pic32mx/lib/libpic32.a(default-on-reset.o)
                              /opt/microchip/xc32/v1.34/bin/bin/../../lib/gcc/pic32mx/4.5.2/../../../../pic32mx/lib/./proc/32MZ1024ECG064/crt0_mips32r2.o (_on_reset)
/opt/microchip/xc32/v1.34/bin/bin/../../lib/gcc/pic32mx/4.5.2/../../../../pic32mx/lib/libpic32.a(default-on-bootstrap.o)
                              /opt/microchip/xc32/v1.34/bin/bin/../../lib/gcc/pic32mx/4.5.2/../../../../pic32mx/lib/./proc/32MZ1024ECG064/crt0_mips32r2.o (_on_bootstrap)
/opt/microchip/xc32/v1.34/bin/bin/../../lib/gcc/pic32mx/4.5.2/../../../../pic32mx/lib/libpic32.a(default-nmi-handler.o)
                              /opt/microchip/xc32/v1.34/bin/bin/../../lib/gcc/pic32mx/4.5.2/../../../../pic32mx/lib/./proc/32MZ1024ECG064/crt0_mips32r2.o (_nmi_handler)
/opt/microchip/xc32/v1.34/bin/bin/../../lib/gcc/pic32mx/4.5.2/../../../../pic32mx/lib/libpic32.a(pic32_init_cache.o)
                              /opt/microchip/xc32/v1.34/bin/bin/../../lib/gcc/pic32mx/4.5.2/../../../../pic32mx/lib/./proc/32MZ1024ECG064/crt0_mips32r2.o (__pic32_init_cache)
/opt/microchip/xc32/v1.34/bin/bin/../../lib/gcc/pic32mx/4.5.2/../../../../pic32mx/lib/libpic32.a(pic32_init_tlb_ebi_sqi.o)
                              /opt/microchip/xc32/v1.34/bin/bin/../../lib/gcc/pic32mx/4.5.2/../../../../pic32mx/lib/./proc/32MZ1024ECG064/crt0_mips32r2.o (__pic32_tlb_init_ebi_sqi)
/opt/microchip/xc32/v1.34/bin/bin/../../lib/gcc/pic32mx/4.5.2/../../../../pic32mx/lib/libpic32.a(general-exception.o)
                              /opt/microchip/xc32/v1.34/bin/bin/../../lib/gcc/pic32mx/4.5.2/../../../../pic32mx/lib/./proc/32MZ1024ECG064/crt0_mips32r2.o (_general_exception_context)
/opt/microchip/xc32/v1.34/bin/bin/../../lib/gcc/pic32mx/4.5.2/../../../../pic32mx/lib/libpic32.a(cache-err-exception.o)
                              /opt/microchip/xc32/v1.34/bin/bin/../../lib/gcc/pic32mx/4.5.2/../../../../pic32mx/lib/./proc/32MZ1024ECG064/crt0_mips32r2.o (_cache_err_exception_context)
/opt/microchip/xc32/v1.34/bin/bin/../../lib/gcc/pic32mx/4.5.2/../../../../pic32mx/lib/libpic32.a(simple-tlb-refill-exception.o)
                              /opt/microchip/xc32/v1.34/bin/bin/../../lib/gcc/pic32mx/4.5.2/../../../../pic32mx/lib/./proc/32MZ1024ECG064/crt0_mips32r2.o (_simple_tlb_refill_exception_context)
/opt/microchip/xc32/v1.34/bin/bin/../../lib/gcc/pic32mx/4.5.2/../../../../pic32mx/lib/libpic32.a(defaultinterrupt.o)
                              /opt/microchip/xc32/v1.34/bin/bin/../../lib/gcc/pic32mx/4.5.2/../../../../pic32mx/lib/./proc/32MZ1024ECG064/default_isr_vectors.o (_DefaultInterrupt)
/opt/microchip/xc32/v1.34/bin/bin/../../lib/gcc/pic32mx/4.5.2/../../../../pic32mx/lib/libm.a(fp32div.o)
                              build/pic32mz1024ecg064/production/_ext/115108523/dots_localization.o (fpdiv)
/opt/microchip/xc32/v1.34/bin/bin/../../lib/gcc/pic32mx/4.5.2/../../../../pic32mx/lib/libm.a(fp32mul.o)
                              build/pic32mz1024ecg064/production/_ext/115108523/grid.o (fpmul)
/opt/microchip/xc32/v1.34/bin/bin/../../lib/gcc/pic32mx/4.5.2/../../../../pic32mx/lib/libm.a(fp32subadd.o)
                              build/pic32mz1024ecg064/production/_ext/1360937237/motion.o (fpsub)
/opt/microchip/xc32/v1.34/bin/bin/../../lib/gcc/pic32mx/4.5.2/../../../../pic32mx/lib/libm.a(fpcmp.o)
                              build/pic32mz1024ecg064/production/_ext/115108523/grid.o (fpcmp)
/opt/microchip/xc32/v1.34/bin/bin/../../lib/gcc/pic32mx/4.5.2/../../../../pic32mx/lib/libm.a(fpcos32.o)
                              build/pic32mz1024ecg064/production/_ext/1360937237/motion.o (cosf)
/opt/microchip/xc32/v1.34/bin/bin/../../lib/gcc/pic32mx/4.5.2/../../../../pic32mx/lib/libm.a(fpmodf.o)
                              build/pic32mz1024ecg064/production/_ext/1360937237/bezier.o (modff)
/opt/microchip/xc32/v1.34/bin/bin/../../lib/gcc/pic32mx/4.5.2/../../../../pic32mx/lib/libm.a(fpreduct32.o)
                              /opt/microchip/xc32/v1.34/bin/bin/../../lib/gcc/pic32mx/4.5.2/../../../../pic32mx/lib/libm.a(fpcos32.o) (fpreduct)
/opt/microchip/xc32/v1.34/bin/bin/../../lib/gcc/pic32mx/4.5.2/../../../../pic32mx/lib/libm.a(fpsin32.o)
                              build/pic32mz1024ecg064/production/_ext/1360937237/motion.o (sinf)
/opt/microchip/xc32/v1.34/bin/bin/../../lib/gcc/pic32mx/4.5.2/../../../../pic32mx/lib/libm.a(fptoli.o)
                              build/pic32mz1024ecg064/production/_ext/115108523/decoder.o (fptosi)
/opt/microchip/xc32/v1.34/bin/bin/../../lib/gcc/pic32mx/4.5.2/../../../../pic32mx/lib/libm.a(fptoul.o)
                              /opt/microchip/harmony/v1_03/bin/framework/peripheral/PIC32MZ1024ECG064_peripherals.a(peripheral.o) (fptoui)
/opt/microchip/xc32/v1.34/bin/bin/../../lib/gcc/pic32mx/4.5.2/../../../../pic32mx/lib/libm.a(sincof32.o)
                              /opt/microchip/xc32/v1.34/bin/bin/../../lib/gcc/pic32mx/4.5.2/../../../../pic32mx/lib/libm.a(fpcos32.o) (_sincof)
/opt/microchip/xc32/v1.34/bin/bin/../../lib/gcc/pic32mx/4.5.2/../../../../pic32mx/lib/libm.a(sitofp.o)
                              build/pic32mz1024ecg064/production/_ext/115108523/decoder.o (sitofp)
/opt/microchip/xc32/v1.34/bin/bin/../../lib/gcc/pic32mx/4.5.2/../../../../pic32mx/lib/libm.a(w_atan2f.o)
                              build/pic32mz1024ecg064/production/_ext/115108523/dots_localization.o (atan2f)
/opt/microchip/xc32/v1.34/bin/bin/../../lib/gcc/pic32mx/4.5.2/../../../../pic32mx/lib/libm.a(w_sqrtf.o)
                              build/pic32mz1024ecg064/production/_ext/115108523/grid.o (sqrtf)
/opt/microchip/xc32/v1.34/bin/bin/../../lib/gcc/pic32mx/4.5.2/../../../../pic32mx/lib/libm.a(support.o)
                              /opt/microchip/xc32/v1.34/bin/bin/../../lib/gcc/pic32mx/4.5.2/../../../../pic32mx/lib/libm.a(w_atan2f.o) (finitel)
/opt/microchip/xc32/v1.34/bin/bin/../../lib/gcc/pic32mx/4.5.2/../../../../pic32mx/lib/libm.a(dpldexp.o)
                              /opt/microchip/xc32/v1.34/bin/bin/../../lib/gcc/pic32mx/4.5.2/../../../../pic32mx/lib/libm.a(support.o) (ldexp)
/opt/microchip/xc32/v1.34/bin/bin/../../lib/gcc/pic32mx/4.5.2/../../../../pic32mx/lib/libm.a(dp32div.o)
                              /opt/microchip/xc32/v1.34/bin/bin/../../lib/gcc/pic32mx/4.5.2/../../../../pic32mx/lib/libm.a(support.o) (dpdiv)
/opt/microchip/xc32/v1.34/bin/bin/../../lib/gcc/pic32mx/4.5.2/../../../../pic32mx/lib/libm.a(dp32mul.o)
                              /opt/microchip/xc32/v1.34/bin/bin/../../lib/gcc/pic32mx/4.5.2/../../../../pic32mx/lib/libm.a(support.o) (dpmul)
/opt/microchip/xc32/v1.34/bin/bin/../../lib/gcc/pic32mx/4.5.2/../../../../pic32mx/lib/libm.a(dp32subadd.o)
                              /opt/microchip/xc32/v1.34/bin/bin/../../lib/gcc/pic32mx/4.5.2/../../../../pic32mx/lib/libm.a(support.o) (dpsub)
/opt/microchip/xc32/v1.34/bin/bin/../../lib/gcc/pic32mx/4.5.2/../../../../pic32mx/lib/libm.a(dpcmp.o)
                              /opt/microchip/xc32/v1.34/bin/bin/../../lib/gcc/pic32mx/4.5.2/../../../../pic32mx/lib/libm.a(w_atan2f.o) (dpcmp)
/opt/microchip/xc32/v1.34/bin/bin/../../lib/gcc/pic32mx/4.5.2/../../../../pic32mx/lib/libm.a(dptofp.o)
                              /opt/microchip/xc32/v1.34/bin/bin/../../lib/gcc/pic32mx/4.5.2/../../../../pic32mx/lib/libm.a(w_atan2f.o) (dptofp)
/opt/microchip/xc32/v1.34/bin/bin/../../lib/gcc/pic32mx/4.5.2/../../../../pic32mx/lib/libm.a(fpatan2.o)
                              /opt/microchip/xc32/v1.34/bin/bin/../../lib/gcc/pic32mx/4.5.2/../../../../pic32mx/lib/libm.a(w_atan2f.o) (__mchp_atan2f)
/opt/microchip/xc32/v1.34/bin/bin/../../lib/gcc/pic32mx/4.5.2/../../../../pic32mx/lib/libm.a(fpexatan.o)
                              /opt/microchip/xc32/v1.34/bin/bin/../../lib/gcc/pic32mx/4.5.2/../../../../pic32mx/lib/libm.a(fpatan2.o) (fpexatan)
/opt/microchip/xc32/v1.34/bin/bin/../../lib/gcc/pic32mx/4.5.2/../../../../pic32mx/lib/libm.a(fpexsqrt32.o)
                              /opt/microchip/xc32/v1.34/bin/bin/../../lib/gcc/pic32mx/4.5.2/../../../../pic32mx/lib/libm.a(fpexatan.o) (fpexsqrt)
/opt/microchip/xc32/v1.34/bin/bin/../../lib/gcc/pic32mx/4.5.2/../../../../pic32mx/lib/libm.a(fpsqrt32.o)
                              /opt/microchip/xc32/v1.34/bin/bin/../../lib/gcc/pic32mx/4.5.2/../../../../pic32mx/lib/libm.a(w_sqrtf.o) (__mchp_sqrtf)
/opt/microchip/xc32/v1.34/bin/bin/../../lib/gcc/pic32mx/4.5.2/../../../../pic32mx/lib/libm.a(fptodp.o)
                              /opt/microchip/xc32/v1.34/bin/bin/../../lib/gcc/pic32mx/4.5.2/../../../../pic32mx/lib/libm.a(w_atan2f.o) (fptodp)
/opt/microchip/xc32/v1.34/bin/bin/../../lib/gcc/pic32mx/4.5.2/../../../../pic32mx/lib/libm.a(litodp.o)
                              /opt/microchip/xc32/v1.34/bin/bin/../../lib/gcc/pic32mx/4.5.2/../../../../pic32mx/lib/libm.a(support.o) (litodp)
/opt/microchip/xc32/v1.34/bin/bin/../../lib/gcc/pic32mx/4.5.2/../../../../pic32mx/lib/libm.a(s_lib_ver.o)
                              /opt/microchip/xc32/v1.34/bin/bin/../../lib/gcc/pic32mx/4.5.2/../../../../pic32mx/lib/libm.a(w_sqrtf.o) (math_errhandling)
/opt/microchip/xc32/v1.34/bin/bin/../../lib/gcc/pic32mx/4.5.2/../../../../pic32mx/lib/libc.a(errno.o)
                              /opt/microchip/xc32/v1.34/bin/bin/../../lib/gcc/pic32mx/4.5.2/../../../../pic32mx/lib/libm.a(w_sqrtf.o) (errno)

Allocating common symbols
Common symbol       size              file

currentLEDColorGoals
                    0x24              build/pic32mz1024ecg064/production/_ext/1360937237/led.o
keyRawOffsets       0xc               build/pic32mz1024ecg064/production/_ext/1360937237/gesture.o
previousLEDColors   0x24              build/pic32mz1024ecg064/production/_ext/1360937237/led.o
effectCounter2      0x4               build/pic32mz1024ecg064/production/_ext/1360937237/led.o
effectCounter1      0x4               build/pic32mz1024ecg064/production/_ext/1360937237/led.o
BAT_PG_BAR          0x1               build/pic32mz1024ecg064/production/_ext/1360937237/battery.o
keyReferences       0xc               build/pic32mz1024ecg064/production/_ext/1360937237/gesture.o
BAT_STAT2           0x1               build/pic32mz1024ecg064/production/_ext/1360937237/battery.o
autoexposure        0x1               build/pic32mz1024ecg064/production/_ext/1360937237/cam.o
keyState            0x4               build/pic32mz1024ecg064/production/_ext/1360937237/at42qt1070.o
exitIdleByTimer     0x1               build/pic32mz1024ecg064/production/_ext/1360937237/power.o
pixels              0x5820            build/pic32mz1024ecg064/production/_ext/1360937237/cam.o
currentLEDNumber    0x4               build/pic32mz1024ecg064/production/_ext/1360937237/led.o
previousVisualEffect
                    0x4               build/pic32mz1024ecg064/production/_ext/1360937237/led.o
BAT_STAT1_LBO       0x1               build/pic32mz1024ecg064/production/_ext/1360937237/battery.o
previousEffectValue
                    0x4               build/pic32mz1024ecg064/production/_ext/1360937237/led.o
keyStateBuf         0x2               build/pic32mz1024ecg064/production/_ext/1360937237/at42qt1070.o
keySignals          0xc               build/pic32mz1024ecg064/production/_ext/1360937237/gesture.o
modeSeljunk         0x4               /opt/microchip/harmony/v1_03/bin/framework/peripheral/PIC32MZ1024ECG064_peripherals.a(peripheral.o)
sysObj              0x4               build/pic32mz1024ecg064/production/_ext/1055008133/system_init.o
bezierControlPointsY
                    0x4b4             build/pic32mz1024ecg064/production/_ext/1360937237/bezier.o
previousLEDColorGoals
                    0x24              build/pic32mz1024ecg064/production/_ext/1360937237/led.o
bezierControlPointsX
                    0x4b4             build/pic32mz1024ecg064/production/_ext/1360937237/bezier.o
updateRequested     0x1               build/pic32mz1024ecg064/production/_ext/1360937237/led.o
effectColor         0xc               build/pic32mz1024ecg064/production/_ext/1360937237/led.o
latched             0x1               build/pic32mz1024ecg064/production/_ext/1360937237/led.o
visualEffect        0x4               build/pic32mz1024ecg064/production/_ext/1360937237/led.o
lastActivity        0x4               build/pic32mz1024ecg064/production/_ext/1360937237/timer.o
frameConsumed       0x1               build/pic32mz1024ecg064/production/_ext/1360937237/cam.o
sleepRequested      0x1               build/pic32mz1024ecg064/production/_ext/1360937237/power.o
frameRequest        0x1               build/pic32mz1024ecg064/production/_ext/1360937237/cam.o
ledResponseMode     0x4               build/pic32mz1024ecg064/production/_ext/1360937237/led.o
keyEvent            0x18              build/pic32mz1024ecg064/production/_ext/1360937237/touch.o
camSleepReady       0x1               build/pic32mz1024ecg064/production/_ext/1360937237/cam.o
idleRequested       0x1               build/pic32mz1024ecg064/production/_ext/1360937237/power.o
lines_phy           0x1e0             build/pic32mz1024ecg064/production/_ext/1360937237/cam.o
currentLEDColors    0x24              build/pic32mz1024ecg064/production/_ext/1360937237/led.o
previousEffectColor
                    0xc               build/pic32mz1024ecg064/production/_ext/1360937237/led.o
effectTransition    0x1               build/pic32mz1024ecg064/production/_ext/1360937237/led.o
leds                0x1c              build/pic32mz1024ecg064/production/_ext/1360937237/led.o
btRxQueueWriteIndex
                    0x4               build/pic32mz1024ecg064/production/_ext/1360937237/bluetooth.o
keyTouchStatesNew   0x6               build/pic32mz1024ecg064/production/_ext/1360937237/touch.o
btRxCmd             0x100             build/pic32mz1024ecg064/production/_ext/1360937237/bluetooth.o
systemMillis        0x4               build/pic32mz1024ecg064/production/_ext/1360937237/timer.o
btRxCmdIndex        0x4               build/pic32mz1024ecg064/production/_ext/1360937237/bluetooth.o
cTemp               0x1               build/pic32mz1024ecg064/production/_ext/1360937237/bluetooth.o
sysDevconObj        0x8               build/pic32mz1024ecg064/production/_ext/431183094/sys_devcon.o
btRxQueueReadIndex  0x4               build/pic32mz1024ecg064/production/_ext/1360937237/bluetooth.o
posInfo             0x4               build/pic32mz1024ecg064/production/_ext/1360937237/localization.o
currentEffectValue  0x4               build/pic32mz1024ecg064/production/_ext/1360937237/led.o
prevGesture         0x4               build/pic32mz1024ecg064/production/_ext/1360937237/led.o
btRxQueue           0x100             build/pic32mz1024ecg064/production/_ext/1360937237/bluetooth.o
currentBufferIndex  0x4               build/pic32mz1024ecg064/production/_ext/1360937237/led.o

Microchip PIC32 Memory-Usage Report

kseg0 Program-Memory Usage
section                    address  length [bytes]      (dec)  Description
-------                 ----------  -------------------------  -----------
.simple_tlb_refill_excp 0x9d000000           0x10          16   
.text.APP_Gesture_Tasks 0x9d000010           0xf0         240   
.cache_err_excpt        0x9d000100           0x10          16   
.text.rotationDecoderUp 0x9d000110           0x70         112   
.app_excpt              0x9d000180           0x10          16  General-Exception 
.text.disableAllMotors  0x9d000190           0x70         112   
.vectors                0x9d000200           0xa0         160   
.text.setVisualEffect   0x9d0002a0         0x19e8        6632   
.text.APP_LED_Tasks     0x9d001c88         0x14bc        5308   
.dinit                  0x9d003144          0xb80        2944   
.text.processCommand    0x9d003cc4          0xa30        2608   
.text.setMotorOutputsFr 0x9d0046f4          0x710        1808   
.text.correctGridEstima 0x9d004e04          0x654        1620   
.text.trackPosition     0x9d005458          0x650        1616   
.text.estimateVelocitie 0x9d005aa8          0x634        1588   
.text.I2CReadBytes      0x9d0060dc          0x604        1540   
.text.calculateCasualBa 0x9d0066e0          0x5e0        1504   
.text.SYS_PORTS_Initial 0x9d006cc0          0x4ec        1260   
.text                   0x9d0071ac          0x98c        2444  App's exec code 
.text.calculateGridOffs 0x9d007b38          0x4a4        1188   
.text.detectPoints      0x9d007fdc          0x494        1172   
.text.probGridsDecode   0x9d008470          0x468        1128   
.text.calculateHapticBa 0x9d0088d8          0x40c        1036   
.text.calculateVibratio 0x9d008ce4          0x408        1032   
.text.getPolyBezierNext 0x9d0090ec          0x3f4        1012   
.text.findInitialGridEs 0x9d0094e0          0x3f0        1008   
.rodata                 0x9d0098d0          0x3c4         964  Read-only const 
.text.I2CWriteBytes     0x9d009c94          0x39c         924   
.text.PLIB_OSC_PBClockD 0x9d00a030          0x370         880   
.text.trackOrientation  0x9d00a3a0          0x368         872   
.text.transitionLED     0x9d00a708          0x364         868   
.text.APP_Motion_Tasks  0x9d00aa6c          0x358         856   
.text.libm              0x9d00adc4          0x350         848   
.text.dotsLocalize      0x9d00b114          0x308         776   
.text.atan2f            0x9d00b41c          0x300         768   
.text.USART_LineControl 0x9d00b71c          0x2dc         732   
.text.SYS_Initialize    0x9d00b9f8          0x2c0         704   
.text.APP_LED_Initializ 0x9d00bcb8          0x2b8         696   
.text.updatePose        0x9d00bf70          0x2b8         696   
.text.probabilityGridsT 0x9d00c228          0x2b0         688   
.text.intGridTurn       0x9d00c4d8          0x290         656   
.text.touchQueryKeys    0x9d00c768          0x28c         652   
.text.trackXCoordinate  0x9d00c9f4          0x28c         652   
.text.trackYCoordinate  0x9d00cc80          0x28c         652   
.text.findInitialAxisLe 0x9d00cf0c          0x288         648   
.text.simpleVibrate     0x9d00d194          0x288         648   
.text.SPI_Communication 0x9d00d41c          0x27c         636   
.text.fpsubadd          0x9d00d698          0x278         632   
.text.setMotorOutput    0x9d00d910          0x264         612   
.text._LineFinishedHand 0x9d00db74          0x260         608   
.text.libm              0x9d00ddd4          0x248         584   
.text.APP_Localization_ 0x9d00e01c          0x23c         572   
.text.PLIB_OSC_Referenc 0x9d00e258          0x230         560   
.text.fp32div           0x9d00e488          0x230         560   
.text.makeProbabilityGr 0x9d00e6b8          0x220         544   
.text.SYS_CLK_Initializ 0x9d00e8d8          0x218         536   
.text._Timer3Handler    0x9d00eaf0          0x218         536   
.text._IntHandlerSPITxI 0x9d00ed08          0x218         536   
.text._BT_RX_Handler    0x9d00ef20          0x218         536   
.text.PLIB_I2C_BaudRate 0x9d00f138          0x218         536   
.text.APP_Power_Initial 0x9d00f350          0x210         528   
.text.findNeighbours    0x9d00f560          0x20c         524   
.text.APP_BT_Tasks      0x9d00f76c          0x204         516   
.text.trackPolyBezier   0x9d00f970          0x200         512   
.text._BT_FAULT_Handler 0x9d00fb70          0x1ec         492   
.text.APP_Power_Tasks   0x9d00fd5c          0x1e8         488   
.text.rotationDecoderUp 0x9d00ff44          0x1e4         484   
.text.intGridLocalSum   0x9d010128          0x1e4         484   
.text._Timer4Handler    0x9d01030c          0x1d0         464   
.text.lowBatteryAnimati 0x9d0104dc          0x1cc         460   
.text.PLIB_OSC_Referenc 0x9d0106a8          0x1cc         460   
.text._Timer8Handler    0x9d010874          0x1c4         452   
.text._SleepIdleTouchEx 0x9d010a38          0x1c0         448   
.text._IdleTimerExitHan 0x9d010bf8          0x1bc         444   
.text.fp32mul           0x9d010db4          0x1bc         444   
.text._IntHandlerDrvI2C 0x9d010f70          0x1b8         440   
.text._IntHandlerDrvI2C 0x9d011128          0x1b8         440   
.text.MT9V034SetBlackLe 0x9d0112e0          0x1b8         440   
.text.setLEDTemporary   0x9d011498          0x1b0         432   
.text.MT9V034SetBinning 0x9d011648          0x1b0         432   
.text.libm              0x9d0117f8          0x1ac         428   
.text.SYS_DEVCON_Perfor 0x9d0119a4          0x1a8         424   
.text.PLIB_OSC_Referenc 0x9d011b4c          0x1a4         420   
.text.sampleKeySignals  0x9d011cf0          0x1a0         416   
.text.decodePrimaryNumb 0x9d011e90          0x194         404   
.text.APP_Battery_Tasks 0x9d012024          0x188         392   
.text.USART_HandshakeMo 0x9d0121ac          0x184         388   
.text.undistortPoints   0x9d012330          0x17c         380   
.text.USART_OperationMo 0x9d0124ac          0x17c         380   
.text.USART_Transmitter 0x9d012628          0x17c         380   
.text.USART_ReceiverInt 0x9d0127a4          0x17c         380   
.text.calcBezier        0x9d012920          0x178         376   
.text.I2C_ReceivedByteA 0x9d012a98          0x178         376   
.text.findEdges         0x9d012c10          0x170         368   
.text.USART_BaudRateSet 0x9d012d80          0x168         360   
.text.PLIB_OSC_PBOutput 0x9d012ee8          0x168         360   
.text                   0x9d013050          0x168         360  App's exec code 
.text.resumeLEDsSleep   0x9d0131b8          0x160         352   
.text.APP_Cam_Initializ 0x9d013318          0x160         352   
.text.decodePos         0x9d013478          0x15c         348   
.text.MT9V034Reset      0x9d0135d4          0x150         336   
.text.main              0x9d013724          0x148         328   
.text.suspendLEDsIdle   0x9d01386c          0x148         328   
.text.initOC            0x9d0139b4          0x140         320   
.text.MT9V034SetManualS 0x9d013af4          0x138         312   
.text.DRV_USART1_Initia 0x9d013c2c          0x134         308   
.text.AT42QT1070GetKeyS 0x9d013d60          0x12c         300   
.text.calculateHaptics  0x9d013e8c          0x12c         300   
.text.dpcmp             0x9d013fb8          0x12c         300   
.text.DRV_SPI0_Initiali 0x9d0140e4          0x124         292   
.rodata                 0x9d014208          0x124         292  Read-only const 
.text.AT42QT1070GetKeyS 0x9d01432c          0x124         292   
.text.AT42QT1070GetKeyR 0x9d014450          0x124         292   
.text.getBatteryState   0x9d014574          0x124         292   
.text.resumeLEDsIdle    0x9d014698          0x11c         284   
.text.libm              0x9d0147b4          0x11c         284   
.text.forwardProbabilit 0x9d0148d0          0x118         280   
.text.downwardProbabili 0x9d0149e8          0x118         280   
.text.stayAsleepTouch   0x9d014b00          0x118         280   
.text.libm              0x9d014c18          0x118         280   
.text.SPI_InputSamplePh 0x9d014d30          0x110         272   
.text.SPI_OutputDataPha 0x9d014e40          0x110         272   
.text.SPI_ClockPolarity 0x9d014f50          0x110         272   
.text.updateShutterWidt 0x9d015060          0x10c         268   
.text.libm              0x9d01516c          0x10c         268   
.text.intGridCreate     0x9d015278          0x108         264   
.text.sortPoints        0x9d015380          0x104         260   
.text.DRV_I2C0_Initiali 0x9d015484          0x100         256   
.text.SYS_CLK_Periphera 0x9d015584          0x100         256   
.text.dptofp            0x9d015684          0x100         256   
.text.getPolyBezierEnd  0x9d015784           0xfc         252   
.text.libm              0x9d015880           0xfc         252   
.text.camFixSkewedRows  0x9d01597c           0xf8         248   
.text.grabOneFrame      0x9d015a74           0xf8         248   
.text.SPI_BaudRateSet_D 0x9d015b6c           0xf4         244   
.text.MT9V034Standby    0x9d015c60           0xe8         232   
.text.USART_Transmitter 0x9d015d48           0xe8         232   
.text.PLIB_I2C_BusIsIdl 0x9d015e30           0xe8         232   
.text.calculateSimpleVi 0x9d015f18           0xe4         228   
.text.PLIB_OSC_Referenc 0x9d015ffc           0xe0         224   
.text.PLIB_OSC_Referenc 0x9d0160dc           0xe0         224   
.text.PLIB_OSC_Referenc 0x9d0161bc           0xe0         224   
.text.PLIB_OSC_Referenc 0x9d01629c           0xe0         224   
.text.intGridFindCloses 0x9d01637c           0xdc         220   
.text.getFourOrMoreFing 0x9d016458           0xdc         220   
.text.general_exception 0x9d016534           0xdc         220   
.text._FrameStartHandle 0x9d016610           0xd8         216   
.text._cache_err_except 0x9d0166e8           0xd8         216   
.text.simple_tlb_refill 0x9d0167c0           0xd8         216   
.text.DRV_I2C0_WaitForB 0x9d016898           0xd4         212   
.text.DRV_I2C0_MasterSt 0x9d01696c           0xd4         212   
.text.libm              0x9d016a40           0xd4         212   
.text.intPointNormalize 0x9d016b14           0xd0         208   
.text.setLED            0x9d016be4           0xd0         208   
.text.numShifts         0x9d016cb4           0xcc         204   
.text.getPolyBezierInit 0x9d016d80           0xcc         204   
.text.MT9V034SetAnalogG 0x9d016e4c           0xc8         200   
.text.setLED1           0x9d016f14           0xc0         192   
.text.setLED4           0x9d016fd4           0xc0         192   
.text.initTimer8        0x9d017094           0xc0         192   
.text.bluetoothEventCam 0x9d017154           0xbc         188   
.tlb.__pic32_tlb_init_e 0x9d017210           0xbc         188   
.text.findSection       0x9d0172cc           0xb8         184   
.text.getPrimaryNumberR 0x9d017384           0xb4         180   
.text.getPosition       0x9d017438           0xb4         180   
.text.setLED0           0x9d0174ec           0xb4         180   
.text.setLED3           0x9d0175a0           0xb4         180   
.text.getPrimaryNumberC 0x9d017654           0xb0         176   
.text.DRV_I2C0_MasterSt 0x9d017704           0xb0         176   
.text.MT9V034EnableAGC_ 0x9d0177b4           0xb0         176   
.text.sampleKeyStates   0x9d017864           0xb0         176   
.text.PLIB_USART_Enable 0x9d017914           0xb0         176   
.text.PLIB_USART_Receiv 0x9d0179c4           0xb0         176   
.text.PLIB_USART_Transm 0x9d017a74           0xb0         176   
.text.quickSelect       0x9d017b24           0xac         172   
.text.DRV_I2C0_ByteWrit 0x9d017bd0           0xac         172   
.text.hapticBackdriveAs 0x9d017c7c           0xac         172   
.text.PLIB_DMA_ChannelX 0x9d017d28           0xac         172   
.text.fptodp            0x9d017dd4           0xac         172   
.text.correlationPeak   0x9d017e80           0xa8         168   
.text._I2CWriteByte     0x9d017f28           0xa8         168   
.text.unloadUInt32      0x9d017fd0           0xa8         168   
.text.unloadFloat       0x9d018078           0xa8         168   
.text.PLIB_USART_Transm 0x9d018120           0xa8         168   
.text.DRV_USART0_Initia 0x9d0181c8           0xa4         164   
.text.PLIB_USART_Handsh 0x9d01826c           0xa4         164   
.text.PLIB_USART_LineCo 0x9d018310           0xa4         164   
.text.PLIB_USART_Operat 0x9d0183b4           0xa4         164   
.text.PLIB_USART_BaudRa 0x9d018458           0xa4         164   
.text.PLIB_USART_Receiv 0x9d0184fc           0xa4         164   
.text.PLIB_USART_Transm 0x9d0185a0           0xa4         164   
.text.PLIB_USART_Transm 0x9d018644           0xa4         164   
.text.gridOffsetsMedian 0x9d0186e8           0xa0         160   
.text._LineStartHandler 0x9d018788           0xa0         160   
.text.sendPose          0x9d018828           0xa0         160   
.text.PLIB_DMA_ChannelX 0x9d0188c8           0xa0         160   
.text.fpcmp             0x9d018968           0x9c         156   
.text.enableIdleExitTim 0x9d018a04           0x98         152   
.text.setLED2           0x9d018a9c           0x94         148   
.text.getCommand        0x9d018b30           0x94         148   
.text.getVectorOrientat 0x9d018bc4           0x94         148   
.text.findSequenceOffse 0x9d018c58           0x90         144   
.text.probabilities     0x9d018ce8           0x90         144   
.text.quickPartition    0x9d018d78           0x90         144   
.text.DRV_I2C0_MasterRe 0x9d018e08           0x90         144   
.text.sendUInt32        0x9d018e98           0x90         144   
.text.setLED5           0x9d018f28           0x8c         140   
.text.APP_Cam_Tasks     0x9d018fb4           0x8c         140   
.text.dotsPosInfoInit   0x9d019040           0x88         136   
.text.polyBezierAppend  0x9d0190c8           0x88         136   
.text.intGridCopy       0x9d019150           0x84         132   
.text.DRV_I2C0_WaitForS 0x9d0191d4           0x84         132   
.text.bluetoothReset    0x9d019258           0x84         132   
.text.bluetoothEventPos 0x9d0192dc           0x84         132   
.text.getCoeffs         0x9d019360           0x80         128   
.text.imageMean         0x9d0193e0           0x80         128   
.text.unloadInt16       0x9d019460           0x80         128   
.text.fptoli            0x9d0194e0           0x80         128   
.text.enableSleepExitTo 0x9d019560           0x7c         124   
.text.getKeyValueSum    0x9d0195dc           0x7c         124   
.text.PLIB_I2C_Transmit 0x9d019658           0x7c         124   
.text.PLIB_I2C_Transmit 0x9d0196d4           0x7c         124   
.text.PLIB_I2C_MasterRe 0x9d019750           0x7c         124   
.text.fptoul            0x9d0197cc           0x7c         124   
.text.unloadUInt16      0x9d019848           0x78         120   
.text.distSquared       0x9d0198c0           0x78         120   
.text.SYS_DEVCON_System 0x9d019938           0x78         120   
.text.SYS_DEVCON_System 0x9d0199b0           0x78         120   
.text.PLIB_I2C_Received 0x9d019a28           0x78         120   
.text.bluetoothEventPos 0x9d019aa0           0x74         116   
.text.PLIB_SPI_Communic 0x9d019b14           0x74         116   
.text.PLIB_SPI_InputSam 0x9d019b88           0x74         116   
.text.PLIB_SPI_OutputDa 0x9d019bfc           0x74         116   
.text.PLIB_SPI_ClockPol 0x9d019c70           0x74         116   
.text.PLIB_SPI_BaudRate 0x9d019ce4           0x74         116   
.text.PLIB_I2C_HighFreq 0x9d019d58           0x70         112   
.text.PLIB_I2C_StopInId 0x9d019dc8           0x70         112   
.text.PLIB_I2C_Enable   0x9d019e38           0x70         112   
.text.PLIB_I2C_Disable  0x9d019ea8           0x70         112   
.text.PLIB_I2C_MasterSt 0x9d019f18           0x70         112   
.text.PLIB_I2C_MasterSt 0x9d019f88           0x70         112   
.text.PLIB_I2C_MasterRe 0x9d019ff8           0x70         112   
.text.PLIB_I2C_MasterSt 0x9d01a068           0x70         112   
.text.PLIB_I2C_Transmit 0x9d01a0d8           0x70         112   
.text.PLIB_I2C_Receiver 0x9d01a148           0x70         112   
.text.PLIB_SPI_Enable   0x9d01a1b8           0x70         112   
.text.PLIB_SPI_Disable  0x9d01a228           0x70         112   
.text.PLIB_SPI_StopInId 0x9d01a298           0x70         112   
.text.PLIB_SPI_MasterEn 0x9d01a308           0x70         112   
.text.PLIB_SPI_SlaveSel 0x9d01a378           0x70         112   
.text.PLIB_SPI_FIFOEnab 0x9d01a3e8           0x70         112   
.text.PLIB_SPI_FramedCo 0x9d01a458           0x70         112   
.text.PLIB_SPI_AudioPro 0x9d01a4c8           0x70         112   
.text.batteryCharge     0x9d01a538           0x6c         108   
.text.resumeTimers      0x9d01a5a4           0x6c         108   
.text.setGoalPolyBezier 0x9d01a610           0x6c         108   
.text.PLIB_I2C_StartWas 0x9d01a67c           0x6c         108   
.text.PLIB_I2C_StopWasD 0x9d01a6e8           0x6c         108   
.text.PLIB_I2C_Arbitrat 0x9d01a754           0x6c         108   
.text.PLIB_I2C_Transmit 0x9d01a7c0           0x6c         108   
.text.PLIB_I2C_Transmit 0x9d01a82c           0x6c         108   
.text.PLIB_I2C_Received 0x9d01a898           0x6c         108   
.text.PLIB_I2C_Receiver 0x9d01a904           0x6c         108   
.text.intListCopy       0x9d01a970           0x68         104   
.text.MT9V034OutputEnab 0x9d01a9d8           0x68         104   
.text.resumeCam         0x9d01aa40           0x68         104   
.text.APP_BT_Initialize 0x9d01aaa8           0x68         104   
.text.suspendTouchForSl 0x9d01ab10           0x68         104   
.text.initTimer2        0x9d01ab78           0x68         104   
.text.zeroMeasuredVeloc 0x9d01abe0           0x68         104   
.text.SYS_INT_ExternalI 0x9d01ac48           0x68         104   
.text.PLIB_I2C_Transmit 0x9d01acb0           0x68         104   
.text.DRV_I2C0_SetUpByt 0x9d01ad18           0x64         100   
.text.latchLEDData      0x9d01ad7c           0x64         100   
.text.sendUInt16        0x9d01ade0           0x64         100   
.text.sleep             0x9d01ae44           0x64         100   
.text.enableIdleExitTou 0x9d01aea8           0x64         100   
.text.setGoalPose       0x9d01af0c           0x64         100   
.text.sendPacketStart   0x9d01af70           0x60          96   
.text.idle              0x9d01afd0           0x60          96   
.text.setGoalPolyBezier 0x9d01b030           0x60          96   
.text.PLIB_PORTS_Channe 0x9d01b090           0x60          96   
.text.sitofp            0x9d01b0f0           0x60          96   
.text.intGridFindBest8x 0x9d01b150           0x5c          92   
.text.setExposureTime   0x9d01b1ac           0x5c          92   
.text.stayAsleepBattery 0x9d01b208           0x5c          92   
.text.setGoalXThetaCoor 0x9d01b264           0x5c          92   
.text.setGoalYThetaCoor 0x9d01b2c0           0x5c          92   
.text.dotsGetAngle      0x9d01b31c           0x58          88   
.rodata                 0x9d01b374           0x58          88  Read-only const 
.text.setGoalPosition   0x9d01b3cc           0x58          88   
.text.zeroMotorOutputs  0x9d01b424           0x58          88   
.text.intGridMaximum    0x9d01b47c           0x54          84   
.text.APP_Battery_Initi 0x9d01b4d0           0x54          84   
.text.softwareReset     0x9d01b524           0x54          84   
.text.disableIdleExitIn 0x9d01b578           0x54          84   
.text.SYS_INT_SourceDis 0x9d01b5cc           0x54          84   
.text.unloadUInt8       0x9d01b620           0x50          80   
.text.PLIB_INT_VectorPr 0x9d01b670           0x50          80   
.text.sqrtf             0x9d01b6c0           0x50          80   
.text.main_entry        0x9d01b710           0x4c          76   
.text.intListMedian     0x9d01b75c           0x4c          76   
.text.DRV_I2C0_WriteByt 0x9d01b7a8           0x4c          76   
.text.DRV_I2C0_MasterBu 0x9d01b7f4           0x4c          76   
.text.DRV_I2C0_MasterAC 0x9d01b840           0x4c          76   
.text.DRV_I2C0_MasterNA 0x9d01b88c           0x4c          76   
.text.resumeBluetooth   0x9d01b8d8           0x4c          76   
.text.bluetoothSendChar 0x9d01b924           0x4c          76   
.text.sendUInt8         0x9d01b970           0x4c          76   
.text.bluetoothEventBat 0x9d01b9bc           0x4c          76   
.text.bluetoothEventGes 0x9d01ba08           0x4c          76   
.text.bluetoothEventKid 0x9d01ba54           0x4c          76   
.text.setGoalXCoordinat 0x9d01baa0           0x4c          76   
.text.setGoalYCoordinat 0x9d01baec           0x4c          76   
.text.setGoalOrientatio 0x9d01bb38           0x4c          76   
.text.setGoalVelocity   0x9d01bb84           0x4c          76   
.text.vibrateOnMotion   0x9d01bbd0           0x4c          76   
.rodata                 0x9d01bc1c           0x4c          76  Read-only const 
.text.PLIB_INT_VectorSu 0x9d01bc68           0x4c          76   
.text                   0x9d01bcb4           0x4c          76  App's exec code 
.text.suspendBluetooth  0x9d01bd00           0x48          72   
.text._bootstrap_except 0x9d01bd48           0x48          72   
.text.offsetProbability 0x9d01bd90           0x44          68   
.text.stayIdleBattery   0x9d01bdd4           0x44          68   
.text.watchdogEnable    0x9d01be18           0x44          68   
.text.PLIB_DMA_ChannelX 0x9d01be5c           0x44          68   
.text                   0x9d01bea0           0x44          68  App's exec code 
.text.gridOffsetsInfoIn 0x9d01bee4           0x40          64   
.text.loadLatchTimer    0x9d01bf24           0x40          64   
.text.waitForeverForTra 0x9d01bf64           0x40          64   
.text.clearTracking     0x9d01bfa4           0x40          64   
.text.casualBackdriveAs 0x9d01bfe4           0x40          64   
.text.PLIB_PORTS_PinGet 0x9d01c024           0x40          64   
.text.intGridFill       0x9d01c064           0x3c          60   
.text.clearReceive      0x9d01c0a0           0x3c          60   
.text.SYS_DEVCON_Initia 0x9d01c0dc           0x3c          60   
.text.PLIB_DMA_ChannelX 0x9d01c118           0x3c          60   
.text.intGridIndToSub   0x9d01c154           0x38          56   
.text.SYS_Tasks         0x9d01c18c           0x38          56   
.text.APP_Motor_Initial 0x9d01c1c4           0x38          56   
.text.PLIB_INT_SourceIs 0x9d01c1fc           0x38          56   
.text.PLIB_PORTS_RemapO 0x9d01c234           0x38          56   
.text.PLIB_PORTS_PinSet 0x9d01c26c           0x38          56   
.text.PLIB_PORTS_PinCle 0x9d01c2a4           0x38          56   
.text.rotationDecoderDi 0x9d01c2dc           0x34          52   
.text.imgSegmentAdd     0x9d01c310           0x34          52   
.text.DRV_I2C0_DeInitia 0x9d01c344           0x34          52   
.text.DRV_I2C0_ByteRead 0x9d01c378           0x34          52   
.text.suspendCam        0x9d01c3ac           0x34          52   
.text.bluetoothEventBoo 0x9d01c3e0           0x34          52   
.text.bluetoothEventLow 0x9d01c414           0x34          52   
.text.bluetoothEventTra 0x9d01c448           0x34          52   
.text.bluetoothEventAck 0x9d01c47c           0x34          52   
.text.SYS_INT_Initializ 0x9d01c4b0           0x34          52   
.text.PLIB_OSC_FRCDivis 0x9d01c4e4           0x34          52   
.text.PLIB_PORTS_RemapI 0x9d01c518           0x34          52   
.text.PLIB_PORTS_Toggle 0x9d01c54c           0x34          52   
.text.PLIB_PORTS_Direct 0x9d01c580           0x34          52   
.text.PLIB_PORTS_OpenDr 0x9d01c5b4           0x34          52   
.text.PLIB_PORTS_Channe 0x9d01c5e8           0x34          52   
.text.PLIB_PORTS_Channe 0x9d01c61c           0x34          52   
.text.PLIB_PORTS_Channe 0x9d01c650           0x34          52   
.text.PLIB_PORTS_Change 0x9d01c684           0x34          52   
.text.suspendLEDsSleep  0x9d01c6b8           0x30          48   
.text.APP_Timer_Initial 0x9d01c6e8           0x30          48   
.text.suspendTimers     0x9d01c718           0x30          48   
.text.watchdogDisable   0x9d01c748           0x30          48   
.text.APP_Watchdog_Init 0x9d01c778           0x30          48   
.text.APP_Watchdog_Task 0x9d01c7a8           0x30          48   
.text.stayIdleCV        0x9d01c7d8           0x30          48   
.text.PLIB_DMA_ChannelX 0x9d01c808           0x30          48   
.text.PLIB_DMA_ChannelX 0x9d01c838           0x30          48   
.text.PLIB_DMA_ChannelX 0x9d01c868           0x30          48   
.text.PLIB_INT_SourceFl 0x9d01c898           0x30          48   
.text.PLIB_INT_SourceEn 0x9d01c8c8           0x30          48   
.text.PLIB_INT_SourceDi 0x9d01c8f8           0x30          48   
.text.dotsIsAboveGround 0x9d01c928           0x2c          44   
.text._general_exceptio 0x9d01c954           0x2c          44   
.text.setLEDResponseMod 0x9d01c980           0x2c          44   
.text.requestLEDUpdate  0x9d01c9ac           0x2c          44   
.text.watchdogKick      0x9d01c9d8           0x2c          44   
.text.setLocomotionInte 0x9d01ca04           0x2c          44   
.text.PLIB_DEVCON_Syste 0x9d01ca30           0x2c          44   
.text.PLIB_PCACHE_Prefe 0x9d01ca5c           0x2c          44   
.text.intPointDiff      0x9d01ca88           0x28          40   
.text.imgSegmentAddPixe 0x9d01cab0           0x28          40   
.text.SYS_CLK_SystemFre 0x9d01cad8           0x28          40   
.text.reportActivity    0x9d01cb00           0x28          40   
.text.requestSleep      0x9d01cb28           0x28          40   
.text.clearHapticFeedba 0x9d01cb50           0x28          40   
.text.PLIB_PCACHE_WaitS 0x9d01cb78           0x28          40   
.rodata                 0x9d01cba0           0x28          40  Read-only const 
.text.APP_Localization_ 0x9d01cbc8           0x24          36   
.text.SYS_DEVCON_Tasks  0x9d01cbec           0x24          36   
.text.intListPush       0x9d01cc10           0x20          32   
.text._simple_tlb_refil 0x9d01cc30           0x20          32   
.text._cache_err_except 0x9d01cc50           0x20          32   
.text.APP_Timer_Tasks   0x9d01cc70           0x20          32   
.text.APP_Motor_Tasks   0x9d01cc90           0x20          32   
.text.APP_Motion_Initia 0x9d01ccb0           0x20          32   
.text.APP_Gesture_Initi 0x9d01ccd0           0x20          32   
.rodata                 0x9d01ccf0           0x20          32  Read-only const 
.text.PLIB_INT_Enable   0x9d01cd10           0x20          32   
.text.intPointMul       0x9d01cd30           0x38          56   
.text.intPointAdd       0x9d01cd68           0x1c          28   
.text.square            0x9d01cd84           0x1c          28   
.text.PLIB_DEVCON_Syste 0x9d01cda0           0x1c          28   
.text.PLIB_INT_IsEnable 0x9d01cdbc           0x1c          28   
.text.finitel           0x9d01cdd8           0x1c          28   
.text.dotsGetIntX       0x9d01cdf4           0x18          24   
.text.dotsGetIntY       0x9d01ce0c           0x18          24   
.text.dotsGetError      0x9d01ce24           0x18          24   
.text.initAxes          0x9d01ce3c           0x18          24   
.text.intGridCreateEmpt 0x9d01ce54           0x18          24   
.text.polyBezierInit    0x9d01ce6c           0x18          24   
.text.PLIB_DMA_Enable   0x9d01ce84           0x18          24   
.text.PLIB_DMA_Disable  0x9d01ce9c           0x18          24   
.text.PLIB_INT_MultiVec 0x9d01ceb4           0x18          24   
.text.PLIB_INT_External 0x9d01cecc           0x18          24   
.text.PLIB_INT_External 0x9d01cee4           0x18          24   
.text.PLIB_INT_Disable  0x9d01cefc           0x18          24   
.text                   0x9d01cf14           0x18          24  App's exec code 
.text.imgSegmentCreate  0x9d01cf2c           0x14          20   
.text.intListCreate     0x9d01cf40           0x20          32   
.text.rotationDecoderRe 0x9d01cf60            0xc          12   
.rodata                 0x9d01cf6c            0xc          12  Read-only const 
.text.polyBezierTrackin 0x9d01cf78            0xc          12   
.rodata                 0x9d01cf84           0x1c          28  Read-only const 
.text.PLIB_PCACHE_Exist 0x9d01cfa0            0x8           8   
.text.PLIB_PCACHE_Exist 0x9d01cfa8            0x8           8   
.text._on_reset         0x9d01cfb0            0x8           8   
.text._on_bootstrap     0x9d01cfb8            0x8           8   
.rodata                 0x9d01cfc0            0x8           8  Read-only const 
      Total kseg0_program_mem used  :     0x1cfc8      118728  11.3% of 0x100000

kseg0 Boot-Memory Usage
section                    address  length [bytes]      (dec)  Description
-------                 ----------  -------------------------  -----------
         Total kseg0_boot_mem used  :           0           0  

kseg1 Boot-Memory Usage
section                    address  length [bytes]      (dec)  Description
-------                 ----------  -------------------------  -----------
.reset                  0xbfc00000          0x1f8         504  Reset handler 
.bev_excpt              0xbfc00380           0x10          16  BEV-Exception 
         Total kseg1_boot_mem used  :       0x208         520  45.1% of 0x480
        --------------------------------------------------------------------------
         Total Program Memory used  :     0x1d1d0      119248  11.4% of 0x100480
        --------------------------------------------------------------------------


kseg0 Data-Memory Usage
section                    address  length [bytes]      (dec)  Description
-------                 ----------  -------------------------  -----------
.eh_frame               0x80000000           0x34          52   
.sdata                  0x80000034           0x5c          92  Small init data 
.sbss                   0x80000090          0x1ec         492  Small uninit data 
.bss                    0x8000027c         0x6668       26216  Uninitialized data 
.bss                    0x800068e4        0x30ea8      200360  Uninitialized data 
.data                   0x8003778c          0x5ec        1516  Initialized data 
.bss                    0x80037d78           0x38          56  Uninitialized data 
.data                   0x80037db0           0x60          96  Initialized data 
.data.math_errhandling_ 0x80037e10            0x4           4   
         Total kseg0_data_mem used  :     0x37e14      228884  43.7% of 0x80000
        --------------------------------------------------------------------------
            Total Data Memory used  :     0x37e14      228884  43.7% of 0x80000
        --------------------------------------------------------------------------


Dynamic Data-Memory Reservation
section                    address  length [bytes]      (dec)  Description
-------                 ----------  -------------------------  -----------
heap                    0x80037e18        0x30d40      200000  Reserved for heap 
stack                   0x80068b70        0x17480       95360  Reserved for stack 

        --------------------------------------------------------------------------

Discarded input sections

 .text          0x00000000        0x0 /opt/microchip/xc32/v1.34/bin/bin/../../lib/gcc/pic32mx/4.5.2/../../../../pic32mx/lib/./proc/32MZ1024ECG064/crt0_mips32r2.o
 .data          0x00000000        0x0 /opt/microchip/xc32/v1.34/bin/bin/../../lib/gcc/pic32mx/4.5.2/../../../../pic32mx/lib/./proc/32MZ1024ECG064/crt0_mips32r2.o
 .bss           0x00000000        0x0 /opt/microchip/xc32/v1.34/bin/bin/../../lib/gcc/pic32mx/4.5.2/../../../../pic32mx/lib/./proc/32MZ1024ECG064/crt0_mips32r2.o
 .text          0x00000000        0x0 /opt/microchip/xc32/v1.34/bin/bin/../../lib/gcc/pic32mx/4.5.2/../../../../pic32mx/lib/debug-exception-return.o
 .data          0x00000000        0x0 /opt/microchip/xc32/v1.34/bin/bin/../../lib/gcc/pic32mx/4.5.2/../../../../pic32mx/lib/debug-exception-return.o
 .bss           0x00000000        0x0 /opt/microchip/xc32/v1.34/bin/bin/../../lib/gcc/pic32mx/4.5.2/../../../../pic32mx/lib/debug-exception-return.o
 .reginfo       0x00000000       0x18 /opt/microchip/xc32/v1.34/bin/bin/../../lib/gcc/pic32mx/4.5.2/../../../../pic32mx/lib/debug-exception-return.o
 .text          0x00000000        0x0 build/pic32mz1024ecg064/production/_ext/115108523/decoder.o
 .bss           0x00000000        0x0 build/pic32mz1024ecg064/production/_ext/115108523/decoder.o
 .reginfo       0x00000000       0x18 build/pic32mz1024ecg064/production/_ext/115108523/decoder.o
 .text          0x00000000        0x0 build/pic32mz1024ecg064/production/_ext/115108523/dots_localization.o
 .data          0x00000000        0x0 build/pic32mz1024ecg064/production/_ext/115108523/dots_localization.o
 .reginfo       0x00000000       0x18 build/pic32mz1024ecg064/production/_ext/115108523/dots_localization.o
 .text.dotsGetFloatX
                0x00000000       0x5c build/pic32mz1024ecg064/production/_ext/115108523/dots_localization.o
 .text.dotsGetFloatY
                0x00000000       0x5c build/pic32mz1024ecg064/production/_ext/115108523/dots_localization.o
 .text.dotsGetSectorX
                0x00000000       0x18 build/pic32mz1024ecg064/production/_ext/115108523/dots_localization.o
 .text.dotsGetSectorY
                0x00000000       0x18 build/pic32mz1024ecg064/production/_ext/115108523/dots_localization.o
 .text.dotsGetDivisor
                0x00000000       0x18 build/pic32mz1024ecg064/production/_ext/115108523/dots_localization.o
 .text.dotsSetDivisor
                0x00000000       0x18 build/pic32mz1024ecg064/production/_ext/115108523/dots_localization.o
 .text.dotsIsDecoded
                0x00000000       0x18 build/pic32mz1024ecg064/production/_ext/115108523/dots_localization.o
 .text          0x00000000        0x0 build/pic32mz1024ecg064/production/_ext/115108523/grid.o
 .data          0x00000000        0x0 build/pic32mz1024ecg064/production/_ext/115108523/grid.o
 .reginfo       0x00000000       0x18 build/pic32mz1024ecg064/production/_ext/115108523/grid.o
 .text          0x00000000        0x0 build/pic32mz1024ecg064/production/_ext/115108523/imgproc.o
 .data          0x00000000        0x0 build/pic32mz1024ecg064/production/_ext/115108523/imgproc.o
 .reginfo       0x00000000       0x18 build/pic32mz1024ecg064/production/_ext/115108523/imgproc.o
 .text          0x00000000        0x0 build/pic32mz1024ecg064/production/_ext/115108523/imgsegment.o
 .data          0x00000000        0x0 build/pic32mz1024ecg064/production/_ext/115108523/imgsegment.o
 .bss           0x00000000        0x0 build/pic32mz1024ecg064/production/_ext/115108523/imgsegment.o
 .reginfo       0x00000000       0x18 build/pic32mz1024ecg064/production/_ext/115108523/imgsegment.o
 .text          0x00000000        0x0 build/pic32mz1024ecg064/production/_ext/115108523/intgrid.o
 .data          0x00000000        0x0 build/pic32mz1024ecg064/production/_ext/115108523/intgrid.o
 .bss           0x00000000        0x0 build/pic32mz1024ecg064/production/_ext/115108523/intgrid.o
 .reginfo       0x00000000       0x18 build/pic32mz1024ecg064/production/_ext/115108523/intgrid.o
 .text          0x00000000        0x0 build/pic32mz1024ecg064/production/_ext/115108523/gridprobability.o
 .data          0x00000000        0x0 build/pic32mz1024ecg064/production/_ext/115108523/gridprobability.o
 .reginfo       0x00000000       0x18 build/pic32mz1024ecg064/production/_ext/115108523/gridprobability.o
 .text          0x00000000        0x0 build/pic32mz1024ecg064/production/_ext/115108523/intlist.o
 .data          0x00000000        0x0 build/pic32mz1024ecg064/production/_ext/115108523/intlist.o
 .bss           0x00000000        0x0 build/pic32mz1024ecg064/production/_ext/115108523/intlist.o
 .reginfo       0x00000000       0x18 build/pic32mz1024ecg064/production/_ext/115108523/intlist.o
 .text          0x00000000        0x0 build/pic32mz1024ecg064/production/_ext/63677053/drv_i2c_static.o
 .data          0x00000000        0x0 build/pic32mz1024ecg064/production/_ext/63677053/drv_i2c_static.o
 .bss           0x00000000        0x0 build/pic32mz1024ecg064/production/_ext/63677053/drv_i2c_static.o
 .reginfo       0x00000000       0x18 build/pic32mz1024ecg064/production/_ext/63677053/drv_i2c_static.o
 .text.DRV_I2C0_WaitForReadByteAvailable
                0x00000000       0x4c build/pic32mz1024ecg064/production/_ext/63677053/drv_i2c_static.o
 .text.DRV_I2C0_BaudRateSet
                0x00000000       0x70 build/pic32mz1024ecg064/production/_ext/63677053/drv_i2c_static.o
 .text.DRV_I2C0_WaitForStopComplete
                0x00000000       0x84 build/pic32mz1024ecg064/production/_ext/63677053/drv_i2c_static.o
 .text.DRV_I2C0_WaitForACKOrNACKComplete
                0x00000000       0x7c build/pic32mz1024ecg064/production/_ext/63677053/drv_i2c_static.o
 .text          0x00000000        0x0 build/pic32mz1024ecg064/production/_ext/2001973653/drv_spi_static.o
 .data          0x00000000        0x0 build/pic32mz1024ecg064/production/_ext/2001973653/drv_spi_static.o
 .bss           0x00000000        0x0 build/pic32mz1024ecg064/production/_ext/2001973653/drv_spi_static.o
 .reginfo       0x00000000       0x18 build/pic32mz1024ecg064/production/_ext/2001973653/drv_spi_static.o
 .text.DRV_SPI0_DeInitialize
                0x00000000       0x34 build/pic32mz1024ecg064/production/_ext/2001973653/drv_spi_static.o
 .text.DRV_SPI0_ReceiverBufferIsFull
                0x00000000       0x34 build/pic32mz1024ecg064/production/_ext/2001973653/drv_spi_static.o
 .text.DRV_SPI0_TransmitterBufferIsFull
                0x00000000       0x34 build/pic32mz1024ecg064/production/_ext/2001973653/drv_spi_static.o
 .text.DRV_SPI0_BufferAddWriteRead
                0x00000000      0x190 build/pic32mz1024ecg064/production/_ext/2001973653/drv_spi_static.o
 .text          0x00000000        0x0 build/pic32mz1024ecg064/production/_ext/1040884377/drv_usart_static.o
 .data          0x00000000        0x0 build/pic32mz1024ecg064/production/_ext/1040884377/drv_usart_static.o
 .bss           0x00000000        0x0 build/pic32mz1024ecg064/production/_ext/1040884377/drv_usart_static.o
 .reginfo       0x00000000       0x18 build/pic32mz1024ecg064/production/_ext/1040884377/drv_usart_static.o
 .text.DRV_USART0_ReceiverBufferIsEmpty
                0x00000000       0x40 build/pic32mz1024ecg064/production/_ext/1040884377/drv_usart_static.o
 .text.DRV_USART0_ReadByte
                0x00000000       0x58 build/pic32mz1024ecg064/production/_ext/1040884377/drv_usart_static.o
 .text.DRV_USART0_WriteByte
                0x00000000       0x5c build/pic32mz1024ecg064/production/_ext/1040884377/drv_usart_static.o
 .text.DRV_USART1_ReceiverBufferIsEmpty
                0x00000000       0x40 build/pic32mz1024ecg064/production/_ext/1040884377/drv_usart_static.o
 .text.DRV_USART1_ReadByte
                0x00000000       0x58 build/pic32mz1024ecg064/production/_ext/1040884377/drv_usart_static.o
 .text.DRV_USART1_WriteByte
                0x00000000       0x5c build/pic32mz1024ecg064/production/_ext/1040884377/drv_usart_static.o
 .text          0x00000000        0x0 build/pic32mz1024ecg064/production/_ext/563981586/sys_clk_static.o
 .data          0x00000000        0x0 build/pic32mz1024ecg064/production/_ext/563981586/sys_clk_static.o
 .bss           0x00000000        0x0 build/pic32mz1024ecg064/production/_ext/563981586/sys_clk_static.o
 .reginfo       0x00000000       0x18 build/pic32mz1024ecg064/production/_ext/563981586/sys_clk_static.o
 .text.SYS_CLK_ReferenceClockFrequencyGet
                0x00000000       0x90 build/pic32mz1024ecg064/production/_ext/563981586/sys_clk_static.o
 .text          0x00000000        0x0 build/pic32mz1024ecg064/production/_ext/672157374/sys_ports_static.o
 .data          0x00000000        0x0 build/pic32mz1024ecg064/production/_ext/672157374/sys_ports_static.o
 .bss           0x00000000        0x0 build/pic32mz1024ecg064/production/_ext/672157374/sys_ports_static.o
 .reginfo       0x00000000       0x18 build/pic32mz1024ecg064/production/_ext/672157374/sys_ports_static.o
 .text          0x00000000        0x0 build/pic32mz1024ecg064/production/_ext/1055008133/system_init.o
 .data          0x00000000        0x0 build/pic32mz1024ecg064/production/_ext/1055008133/system_init.o
 .bss           0x00000000        0x0 build/pic32mz1024ecg064/production/_ext/1055008133/system_init.o
 .reginfo       0x00000000       0x18 build/pic32mz1024ecg064/production/_ext/1055008133/system_init.o
 .text          0x00000000        0x0 build/pic32mz1024ecg064/production/_ext/1055008133/system_interrupt.o
 .data          0x00000000        0x0 build/pic32mz1024ecg064/production/_ext/1055008133/system_interrupt.o
 .bss           0x00000000        0x0 build/pic32mz1024ecg064/production/_ext/1055008133/system_interrupt.o
 .reginfo       0x00000000       0x18 build/pic32mz1024ecg064/production/_ext/1055008133/system_interrupt.o
 .text          0x00000000        0x0 build/pic32mz1024ecg064/production/_ext/1055008133/system_tasks.o
 .data          0x00000000        0x0 build/pic32mz1024ecg064/production/_ext/1055008133/system_tasks.o
 .bss           0x00000000        0x0 build/pic32mz1024ecg064/production/_ext/1055008133/system_tasks.o
 .reginfo       0x00000000       0x18 build/pic32mz1024ecg064/production/_ext/1055008133/system_tasks.o
 .text          0x00000000        0x0 build/pic32mz1024ecg064/production/_ext/1360937237/main.o
 .data          0x00000000        0x0 build/pic32mz1024ecg064/production/_ext/1360937237/main.o
 .bss           0x00000000        0x0 build/pic32mz1024ecg064/production/_ext/1360937237/main.o
 .reginfo       0x00000000       0x18 build/pic32mz1024ecg064/production/_ext/1360937237/main.o
 .text          0x00000000        0x0 build/pic32mz1024ecg064/production/_ext/1360937237/led.o
 .data          0x00000000        0x0 build/pic32mz1024ecg064/production/_ext/1360937237/led.o
 .bss           0x00000000        0x0 build/pic32mz1024ecg064/production/_ext/1360937237/led.o
 .reginfo       0x00000000       0x18 build/pic32mz1024ecg064/production/_ext/1360937237/led.o
 .text.keyTouched
                0x00000000      0x2c4 build/pic32mz1024ecg064/production/_ext/1360937237/led.o
 .text          0x00000000        0x0 build/pic32mz1024ecg064/production/_ext/1360937237/i2c.o
 .data          0x00000000        0x0 build/pic32mz1024ecg064/production/_ext/1360937237/i2c.o
 .bss           0x00000000        0x0 build/pic32mz1024ecg064/production/_ext/1360937237/i2c.o
 .reginfo       0x00000000       0x18 build/pic32mz1024ecg064/production/_ext/1360937237/i2c.o
 .text          0x00000000        0x0 build/pic32mz1024ecg064/production/_ext/1360937237/mt9v034.o
 .data          0x00000000        0x0 build/pic32mz1024ecg064/production/_ext/1360937237/mt9v034.o
 .bss           0x00000000        0x0 build/pic32mz1024ecg064/production/_ext/1360937237/mt9v034.o
 .reginfo       0x00000000       0x18 build/pic32mz1024ecg064/production/_ext/1360937237/mt9v034.o
 .text.MT9V034SetRowNoiseCorrection
                0x00000000      0x144 build/pic32mz1024ecg064/production/_ext/1360937237/mt9v034.o
 .text          0x00000000        0x0 build/pic32mz1024ecg064/production/_ext/1360937237/cam.o
 .data          0x00000000        0x0 build/pic32mz1024ecg064/production/_ext/1360937237/cam.o
 .bss           0x00000000        0x0 build/pic32mz1024ecg064/production/_ext/1360937237/cam.o
 .reginfo       0x00000000       0x18 build/pic32mz1024ecg064/production/_ext/1360937237/cam.o
 .text          0x00000000        0x0 build/pic32mz1024ecg064/production/_ext/1360937237/bluetooth.o
 .bss           0x00000000        0x0 build/pic32mz1024ecg064/production/_ext/1360937237/bluetooth.o
 .reginfo       0x00000000       0x18 build/pic32mz1024ecg064/production/_ext/1360937237/bluetooth.o
 .text.bluetoothForceBaud9600
                0x00000000       0x68 build/pic32mz1024ecg064/production/_ext/1360937237/bluetooth.o
 .text.bluetoothSendWaitForever
                0x00000000       0x84 build/pic32mz1024ecg064/production/_ext/1360937237/bluetooth.o
 .text.sendUInt24
                0x00000000       0x78 build/pic32mz1024ecg064/production/_ext/1360937237/bluetooth.o
 .text.sendInt32
                0x00000000       0x90 build/pic32mz1024ecg064/production/_ext/1360937237/bluetooth.o
 .text.sendInt24
                0x00000000       0x78 build/pic32mz1024ecg064/production/_ext/1360937237/bluetooth.o
 .text.sendInt16
                0x00000000       0x64 build/pic32mz1024ecg064/production/_ext/1360937237/bluetooth.o
 .text.sendInt8
                0x00000000       0x4c build/pic32mz1024ecg064/production/_ext/1360937237/bluetooth.o
 .text.sendFloat
                0x00000000       0x90 build/pic32mz1024ecg064/production/_ext/1360937237/bluetooth.o
 .text.bluetoothEventShuttingDown
                0x00000000       0x34 build/pic32mz1024ecg064/production/_ext/1360937237/bluetooth.o
 .text.bluetoothEventTouchBegin
                0x00000000       0x54 build/pic32mz1024ecg064/production/_ext/1360937237/bluetooth.o
 .text.bluetoothEventTouchLongPressed
                0x00000000       0x54 build/pic32mz1024ecg064/production/_ext/1360937237/bluetooth.o
 .text.bluetoothEventTouchReleased
                0x00000000       0x54 build/pic32mz1024ecg064/production/_ext/1360937237/bluetooth.o
 .text.bluetoothEventDebug
                0x00000000       0x54 build/pic32mz1024ecg064/production/_ext/1360937237/bluetooth.o
 .text.unloadUInt24
                0x00000000       0x88 build/pic32mz1024ecg064/production/_ext/1360937237/bluetooth.o
 .text.unloadInt32
                0x00000000       0xa8 build/pic32mz1024ecg064/production/_ext/1360937237/bluetooth.o
 .text.unloadInt24
                0x00000000       0xb0 build/pic32mz1024ecg064/production/_ext/1360937237/bluetooth.o
 .text.unloadInt8
                0x00000000       0x48 build/pic32mz1024ecg064/production/_ext/1360937237/bluetooth.o
 .text          0x00000000        0x0 build/pic32mz1024ecg064/production/_ext/1360937237/at42qt1070.o
 .data          0x00000000        0x0 build/pic32mz1024ecg064/production/_ext/1360937237/at42qt1070.o
 .bss           0x00000000        0x0 build/pic32mz1024ecg064/production/_ext/1360937237/at42qt1070.o
 .reginfo       0x00000000       0x18 build/pic32mz1024ecg064/production/_ext/1360937237/at42qt1070.o
 .text.delayTenNanos
                0x00000000       0x44 build/pic32mz1024ecg064/production/_ext/1360937237/at42qt1070.o
 .text.AT42QT1070Init
                0x00000000       0x28 build/pic32mz1024ecg064/production/_ext/1360937237/at42qt1070.o
 .text.AT42QT1070Reset
                0x00000000       0x6c build/pic32mz1024ecg064/production/_ext/1360937237/at42qt1070.o
 .text.AT42QT1070SetAKS
                0x00000000       0xfc build/pic32mz1024ecg064/production/_ext/1360937237/at42qt1070.o
 .text.AT42QT1070SetAVE
                0x00000000      0x15c build/pic32mz1024ecg064/production/_ext/1360937237/at42qt1070.o
 .text.AT42QT1070DisableKey
                0x00000000       0x44 build/pic32mz1024ecg064/production/_ext/1360937237/at42qt1070.o
 .text.AT42QT1070SetMaxOnDuration
                0x00000000       0x58 build/pic32mz1024ecg064/production/_ext/1360937237/at42qt1070.o
 .text.AT42QT1070DisableMaxOnDuration
                0x00000000       0x34 build/pic32mz1024ecg064/production/_ext/1360937237/at42qt1070.o
 .text.AT42QT1070SetSamplePeriod
                0x00000000       0x58 build/pic32mz1024ecg064/production/_ext/1360937237/at42qt1070.o
 .text          0x00000000        0x0 build/pic32mz1024ecg064/production/_ext/1360937237/touch.o
 .bss           0x00000000        0x0 build/pic32mz1024ecg064/production/_ext/1360937237/touch.o
 .reginfo       0x00000000       0x18 build/pic32mz1024ecg064/production/_ext/1360937237/touch.o
 .text.APP_Touch_Initialize
                0x00000000       0xb8 build/pic32mz1024ecg064/production/_ext/1360937237/touch.o
 .text.numKeysTouched
                0x00000000       0x64 build/pic32mz1024ecg064/production/_ext/1360937237/touch.o
 .text.getThreeFingerDeathPunch
                0x00000000      0x184 build/pic32mz1024ecg064/production/_ext/1360937237/touch.o
 .text.APP_Touch_Tasks
                0x00000000      0x160 build/pic32mz1024ecg064/production/_ext/1360937237/touch.o
 .text          0x00000000        0x0 build/pic32mz1024ecg064/production/_ext/1360937237/battery.o
 .data          0x00000000        0x0 build/pic32mz1024ecg064/production/_ext/1360937237/battery.o
 .bss           0x00000000        0x0 build/pic32mz1024ecg064/production/_ext/1360937237/battery.o
 .reginfo       0x00000000       0x18 build/pic32mz1024ecg064/production/_ext/1360937237/battery.o
 .text          0x00000000        0x0 build/pic32mz1024ecg064/production/_ext/1360937237/timer.o
 .data          0x00000000        0x0 build/pic32mz1024ecg064/production/_ext/1360937237/timer.o
 .bss           0x00000000        0x0 build/pic32mz1024ecg064/production/_ext/1360937237/timer.o
 .reginfo       0x00000000       0x18 build/pic32mz1024ecg064/production/_ext/1360937237/timer.o
 .text          0x00000000        0x0 build/pic32mz1024ecg064/production/_ext/1360937237/power.o
 .data          0x00000000        0x0 build/pic32mz1024ecg064/production/_ext/1360937237/power.o
 .bss           0x00000000        0x0 build/pic32mz1024ecg064/production/_ext/1360937237/power.o
 .reginfo       0x00000000       0x18 build/pic32mz1024ecg064/production/_ext/1360937237/power.o
 .text.requestIdle
                0x00000000       0x88 build/pic32mz1024ecg064/production/_ext/1360937237/power.o
 .text          0x00000000        0x0 build/pic32mz1024ecg064/production/_ext/1360937237/watchdog.o
 .data          0x00000000        0x0 build/pic32mz1024ecg064/production/_ext/1360937237/watchdog.o
 .bss           0x00000000        0x0 build/pic32mz1024ecg064/production/_ext/1360937237/watchdog.o
 .reginfo       0x00000000       0x18 build/pic32mz1024ecg064/production/_ext/1360937237/watchdog.o
 .text          0x00000000        0x0 build/pic32mz1024ecg064/production/_ext/1360937237/motor.o
 .data          0x00000000        0x0 build/pic32mz1024ecg064/production/_ext/1360937237/motor.o
 .bss           0x00000000        0x0 build/pic32mz1024ecg064/production/_ext/1360937237/motor.o
 .reginfo       0x00000000       0x18 build/pic32mz1024ecg064/production/_ext/1360937237/motor.o
 .text          0x00000000        0x0 build/pic32mz1024ecg064/production/_ext/1360937237/motion.o
 .bss           0x00000000        0x0 build/pic32mz1024ecg064/production/_ext/1360937237/motion.o
 .reginfo       0x00000000       0x18 build/pic32mz1024ecg064/production/_ext/1360937237/motion.o
 .text          0x00000000        0x0 build/pic32mz1024ecg064/production/_ext/1360937237/localization.o
 .data          0x00000000        0x0 build/pic32mz1024ecg064/production/_ext/1360937237/localization.o
 .bss           0x00000000        0x0 build/pic32mz1024ecg064/production/_ext/1360937237/localization.o
 .reginfo       0x00000000       0x18 build/pic32mz1024ecg064/production/_ext/1360937237/localization.o
 .text          0x00000000        0x0 build/pic32mz1024ecg064/production/_ext/1360937237/pid.o
 .data          0x00000000        0x0 build/pic32mz1024ecg064/production/_ext/1360937237/pid.o
 .bss           0x00000000        0x0 build/pic32mz1024ecg064/production/_ext/1360937237/pid.o
 .reginfo       0x00000000       0x18 build/pic32mz1024ecg064/production/_ext/1360937237/pid.o
 .text.initPID  0x00000000       0x84 build/pic32mz1024ecg064/production/_ext/1360937237/pid.o
 .text.resetPID
                0x00000000       0x3c build/pic32mz1024ecg064/production/_ext/1360937237/pid.o
 .text.updatePID
                0x00000000      0x20c build/pic32mz1024ecg064/production/_ext/1360937237/pid.o
 .text          0x00000000        0x0 build/pic32mz1024ecg064/production/_ext/1360937237/gesture.o
 .data          0x00000000        0x0 build/pic32mz1024ecg064/production/_ext/1360937237/gesture.o
 .bss           0x00000000        0x0 build/pic32mz1024ecg064/production/_ext/1360937237/gesture.o
 .reginfo       0x00000000       0x18 build/pic32mz1024ecg064/production/_ext/1360937237/gesture.o
 .text          0x00000000        0x0 build/pic32mz1024ecg064/production/_ext/1360937237/haptics.o
 .data          0x00000000        0x0 build/pic32mz1024ecg064/production/_ext/1360937237/haptics.o
 .bss           0x00000000        0x0 build/pic32mz1024ecg064/production/_ext/1360937237/haptics.o
 .reginfo       0x00000000       0x18 build/pic32mz1024ecg064/production/_ext/1360937237/haptics.o
 .text          0x00000000        0x0 build/pic32mz1024ecg064/production/_ext/1360937237/bezier.o
 .data          0x00000000        0x0 build/pic32mz1024ecg064/production/_ext/1360937237/bezier.o
 .bss           0x00000000        0x0 build/pic32mz1024ecg064/production/_ext/1360937237/bezier.o
 .reginfo       0x00000000       0x18 build/pic32mz1024ecg064/production/_ext/1360937237/bezier.o
 .text          0x00000000        0x0 build/pic32mz1024ecg064/production/_ext/431183094/sys_devcon.o
 .data          0x00000000        0x0 build/pic32mz1024ecg064/production/_ext/431183094/sys_devcon.o
 .bss           0x00000000        0x0 build/pic32mz1024ecg064/production/_ext/431183094/sys_devcon.o
 .reginfo       0x00000000       0x18 build/pic32mz1024ecg064/production/_ext/431183094/sys_devcon.o
 .text.SYS_DEVCON_Reinitialize
                0x00000000       0x34 build/pic32mz1024ecg064/production/_ext/431183094/sys_devcon.o
 .text.SYS_DEVCON_Deinitialize
                0x00000000       0x28 build/pic32mz1024ecg064/production/_ext/431183094/sys_devcon.o
 .text.SYS_DEVCON_Status
                0x00000000       0x28 build/pic32mz1024ecg064/production/_ext/431183094/sys_devcon.o
 .text.SYS_DEVCON_JTAGEnable
                0x00000000       0x34 build/pic32mz1024ecg064/production/_ext/431183094/sys_devcon.o
 .text.SYS_DEVCON_JTAGDisable
                0x00000000       0x34 build/pic32mz1024ecg064/production/_ext/431183094/sys_devcon.o
 .text.SYS_DEVCON_TraceEnable
                0x00000000       0x34 build/pic32mz1024ecg064/production/_ext/431183094/sys_devcon.o
 .text.SYS_DEVCON_TraceDisable
                0x00000000       0x34 build/pic32mz1024ecg064/production/_ext/431183094/sys_devcon.o
 .text.SYS_DEVCON_PowerModeEnter
                0x00000000       0x80 build/pic32mz1024ecg064/production/_ext/431183094/sys_devcon.o
 .text          0x00000000        0x0 build/pic32mz1024ecg064/production/_ext/431183094/sys_devcon_pic32mz.o
 .data          0x00000000        0x0 build/pic32mz1024ecg064/production/_ext/431183094/sys_devcon_pic32mz.o
 .bss           0x00000000        0x0 build/pic32mz1024ecg064/production/_ext/431183094/sys_devcon_pic32mz.o
 .reginfo       0x00000000       0x18 build/pic32mz1024ecg064/production/_ext/431183094/sys_devcon_pic32mz.o
 .text.SYS_DEVCON_CacheInit
                0x00000000       0x40 build/pic32mz1024ecg064/production/_ext/431183094/sys_devcon_pic32mz.o
 .text.SYS_DEVCON_CacheFlush
                0x00000000       0x38 build/pic32mz1024ecg064/production/_ext/431183094/sys_devcon_pic32mz.o
 .text.SYS_DEVCON_DataCacheFlush
                0x00000000       0x38 build/pic32mz1024ecg064/production/_ext/431183094/sys_devcon_pic32mz.o
 .text.SYS_DEVCON_InstructionCacheFlush
                0x00000000       0x38 build/pic32mz1024ecg064/production/_ext/431183094/sys_devcon_pic32mz.o
 .text.SYS_DEVCON_CacheClean
                0x00000000       0x48 build/pic32mz1024ecg064/production/_ext/431183094/sys_devcon_pic32mz.o
 .text.SYS_DEVCON_DataCacheClean
                0x00000000       0x48 build/pic32mz1024ecg064/production/_ext/431183094/sys_devcon_pic32mz.o
 .text.SYS_DEVCON_DataCacheInvalidate
                0x00000000       0x48 build/pic32mz1024ecg064/production/_ext/431183094/sys_devcon_pic32mz.o
 .text.SYS_DEVCON_InstructionCacheInvalidate
                0x00000000       0x48 build/pic32mz1024ecg064/production/_ext/431183094/sys_devcon_pic32mz.o
 .text.SYS_DEVCON_InstructionCacheLock
                0x00000000       0x48 build/pic32mz1024ecg064/production/_ext/431183094/sys_devcon_pic32mz.o
 .text.SYS_DEVCON_DataCacheLock
                0x00000000       0x48 build/pic32mz1024ecg064/production/_ext/431183094/sys_devcon_pic32mz.o
 .text.SYS_DEVCON_CacheSync
                0x00000000       0x48 build/pic32mz1024ecg064/production/_ext/431183094/sys_devcon_pic32mz.o
 .text.SYS_DEVCON_CacheCoherencySet
                0x00000000       0x58 build/pic32mz1024ecg064/production/_ext/431183094/sys_devcon_pic32mz.o
 .text.SYS_DEVCON_CacheCoherencyGet
                0x00000000       0x28 build/pic32mz1024ecg064/production/_ext/431183094/sys_devcon_pic32mz.o
 .text.SYS_DEVCON_DataCacheAssociativityGet
                0x00000000       0x38 build/pic32mz1024ecg064/production/_ext/431183094/sys_devcon_pic32mz.o
 .text.SYS_DEVCON_InstructionCacheAssociativityGet
                0x00000000       0x38 build/pic32mz1024ecg064/production/_ext/431183094/sys_devcon_pic32mz.o
 .text.SYS_DEVCON_DataCacheLineSizeGet
                0x00000000       0x38 build/pic32mz1024ecg064/production/_ext/431183094/sys_devcon_pic32mz.o
 .text.SYS_DEVCON_InstructionCacheLineSizeGet
                0x00000000       0x38 build/pic32mz1024ecg064/production/_ext/431183094/sys_devcon_pic32mz.o
 .text.SYS_DEVCON_DataCacheLinesPerWayGet
                0x00000000       0x38 build/pic32mz1024ecg064/production/_ext/431183094/sys_devcon_pic32mz.o
 .text.SYS_DEVCON_InstructionCacheLinesPerWayGet
                0x00000000       0x38 build/pic32mz1024ecg064/production/_ext/431183094/sys_devcon_pic32mz.o
 .text.SYS_DEVCON_DataCacheSizeGet
                0x00000000       0x38 build/pic32mz1024ecg064/production/_ext/431183094/sys_devcon_pic32mz.o
 .text.SYS_DEVCON_InstructionCacheSizeGet
                0x00000000       0x38 build/pic32mz1024ecg064/production/_ext/431183094/sys_devcon_pic32mz.o
 .text          0x00000000      0x6bc build/pic32mz1024ecg064/production/_ext/431183094/sys_devcon_cache_pic32mz.o
 .data          0x00000000        0x0 build/pic32mz1024ecg064/production/_ext/431183094/sys_devcon_cache_pic32mz.o
 .bss           0x00000000        0x0 build/pic32mz1024ecg064/production/_ext/431183094/sys_devcon_cache_pic32mz.o
 .reginfo       0x00000000       0x18 build/pic32mz1024ecg064/production/_ext/431183094/sys_devcon_cache_pic32mz.o
 .debug_line    0x00000000      0x220 build/pic32mz1024ecg064/production/_ext/431183094/sys_devcon_cache_pic32mz.o
 .debug_info    0x00000000       0xbe build/pic32mz1024ecg064/production/_ext/431183094/sys_devcon_cache_pic32mz.o
 .debug_abbrev  0x00000000       0x14 build/pic32mz1024ecg064/production/_ext/431183094/sys_devcon_cache_pic32mz.o
 .debug_aranges
                0x00000000       0x20 build/pic32mz1024ecg064/production/_ext/431183094/sys_devcon_cache_pic32mz.o
 .text          0x00000000        0x0 build/pic32mz1024ecg064/production/_ext/754521456/sys_int_pic32.o
 .data          0x00000000        0x0 build/pic32mz1024ecg064/production/_ext/754521456/sys_int_pic32.o
 .bss           0x00000000        0x0 build/pic32mz1024ecg064/production/_ext/754521456/sys_int_pic32.o
 .reginfo       0x00000000       0x18 build/pic32mz1024ecg064/production/_ext/754521456/sys_int_pic32.o
 .text.SYS_INT_Disable
                0x00000000       0x48 build/pic32mz1024ecg064/production/_ext/754521456/sys_int_pic32.o
 .text          0x00000000        0x0 build/pic32mz1024ecg064/production/_ext/1419604243/sys_ports.o
 .data          0x00000000        0x0 build/pic32mz1024ecg064/production/_ext/1419604243/sys_ports.o
 .bss           0x00000000        0x0 build/pic32mz1024ecg064/production/_ext/1419604243/sys_ports.o
 .reginfo       0x00000000       0x18 build/pic32mz1024ecg064/production/_ext/1419604243/sys_ports.o
 .text.SYS_PORTS_Read
                0x00000000       0x40 build/pic32mz1024ecg064/production/_ext/1419604243/sys_ports.o
 .text.SYS_PORTS_Write
                0x00000000       0x48 build/pic32mz1024ecg064/production/_ext/1419604243/sys_ports.o
 .text.SYS_PORTS_Set
                0x00000000       0x58 build/pic32mz1024ecg064/production/_ext/1419604243/sys_ports.o
 .text.SYS_PORTS_Clear
                0x00000000       0x50 build/pic32mz1024ecg064/production/_ext/1419604243/sys_ports.o
 .text.SYS_PORTS_DirectionSelect
                0x00000000       0x84 build/pic32mz1024ecg064/production/_ext/1419604243/sys_ports.o
 .text.SYS_PORTS_DirectionGet
                0x00000000       0x40 build/pic32mz1024ecg064/production/_ext/1419604243/sys_ports.o
 .text.SYS_PORTS_Toggle
                0x00000000       0x50 build/pic32mz1024ecg064/production/_ext/1419604243/sys_ports.o
 .text.SYS_PORTS_OpenDrainEnable
                0x00000000       0x50 build/pic32mz1024ecg064/production/_ext/1419604243/sys_ports.o
 .text.SYS_PORTS_OpenDrainDisable
                0x00000000       0x50 build/pic32mz1024ecg064/production/_ext/1419604243/sys_ports.o
 .text.SYS_PORTS_ChangeNotificationGlobalEnable
                0x00000000       0x38 build/pic32mz1024ecg064/production/_ext/1419604243/sys_ports.o
 .text.SYS_PORTS_GlobalChangeNotificationDisable
                0x00000000       0x38 build/pic32mz1024ecg064/production/_ext/1419604243/sys_ports.o
 .text.SYS_PORTS_ChangeNotificationEnable
                0x00000000       0x90 build/pic32mz1024ecg064/production/_ext/1419604243/sys_ports.o
 .text.SYS_PORTS_ChangeNotificationDisable
                0x00000000       0x40 build/pic32mz1024ecg064/production/_ext/1419604243/sys_ports.o
 .text.SYS_PORTS_ChangeNotificationInIdleModeEnable
                0x00000000       0x38 build/pic32mz1024ecg064/production/_ext/1419604243/sys_ports.o
 .text.SYS_PORTS_ChangeNotificationInIdleModeDisable
                0x00000000       0x38 build/pic32mz1024ecg064/production/_ext/1419604243/sys_ports.o
 .text.SYS_PORTS_ChangeNotificationPullUpEnable
                0x00000000       0x40 build/pic32mz1024ecg064/production/_ext/1419604243/sys_ports.o
 .text.SYS_PORTS_ChangeNotificationPullUpDisable
                0x00000000       0x40 build/pic32mz1024ecg064/production/_ext/1419604243/sys_ports.o
 .text.SYS_PORTS_PinModeSelect
                0x00000000       0x48 build/pic32mz1024ecg064/production/_ext/1419604243/sys_ports.o
 .text.SYS_PORTS_PinWrite
                0x00000000       0x58 build/pic32mz1024ecg064/production/_ext/1419604243/sys_ports.o
 .text.SYS_PORTS_PinRead
                0x00000000       0x48 build/pic32mz1024ecg064/production/_ext/1419604243/sys_ports.o
 .text.SYS_PORTS_PinToggle
                0x00000000       0x48 build/pic32mz1024ecg064/production/_ext/1419604243/sys_ports.o
 .text.SYS_PORTS_PinSet
                0x00000000       0x48 build/pic32mz1024ecg064/production/_ext/1419604243/sys_ports.o
 .text.SYS_PORTS_PinClear
                0x00000000       0x48 build/pic32mz1024ecg064/production/_ext/1419604243/sys_ports.o
 .text.SYS_PORTS_PinDirectionSelect
                0x00000000       0x74 build/pic32mz1024ecg064/production/_ext/1419604243/sys_ports.o
 .text.SYS_PORTS_PinOpenDrainEnable
                0x00000000       0x48 build/pic32mz1024ecg064/production/_ext/1419604243/sys_ports.o
 .text.SYS_PORTS_PinOpenDrainDisable
                0x00000000       0x48 build/pic32mz1024ecg064/production/_ext/1419604243/sys_ports.o
 .text.SYS_PORTS_RemapInput
                0x00000000       0x64 build/pic32mz1024ecg064/production/_ext/1419604243/sys_ports.o
 .text.SYS_PORTS_RemapOutput
                0x00000000       0x64 build/pic32mz1024ecg064/production/_ext/1419604243/sys_ports.o
 .text          0x00000000        0x0 /opt/microchip/harmony/v1_03/bin/framework/peripheral/PIC32MZ1024ECG064_peripherals.a(peripheral.o)
 .data          0x00000000        0x0 /opt/microchip/harmony/v1_03/bin/framework/peripheral/PIC32MZ1024ECG064_peripherals.a(peripheral.o)
 .bss           0x00000000        0x0 /opt/microchip/harmony/v1_03/bin/framework/peripheral/PIC32MZ1024ECG064_peripherals.a(peripheral.o)
 .reginfo       0x00000000       0x18 /opt/microchip/harmony/v1_03/bin/framework/peripheral/PIC32MZ1024ECG064_peripherals.a(peripheral.o)
 .text.I2C_DataLineHoldTimeSet_Default
                0x00000000      0x110 /opt/microchip/harmony/v1_03/bin/framework/peripheral/PIC32MZ1024ECG064_peripherals.a(peripheral.o)
 .text._IC_BUFFER_32BIT_VALUE_VREG
                0x00000000       0xbc /opt/microchip/harmony/v1_03/bin/framework/peripheral/PIC32MZ1024ECG064_peripherals.a(peripheral.o)
 .text.IC_BufferIsEmpty_Default
                0x00000000       0xe4 /opt/microchip/harmony/v1_03/bin/framework/peripheral/PIC32MZ1024ECG064_peripherals.a(peripheral.o)
 .text.IC_BufferOverflowHasOccurred_Default
                0x00000000       0xe4 /opt/microchip/harmony/v1_03/bin/framework/peripheral/PIC32MZ1024ECG064_peripherals.a(peripheral.o)
 .text._OC_BUF_VAL_VREG
                0x00000000       0xbc /opt/microchip/harmony/v1_03/bin/framework/peripheral/PIC32MZ1024ECG064_peripherals.a(peripheral.o)
 .text._OC_SEC_CMP_VAL_VREG
                0x00000000       0xbc /opt/microchip/harmony/v1_03/bin/framework/peripheral/PIC32MZ1024ECG064_peripherals.a(peripheral.o)
 .text.OC_StopInIdleDisable_Default
                0x00000000       0xe4 /opt/microchip/harmony/v1_03/bin/framework/peripheral/PIC32MZ1024ECG064_peripherals.a(peripheral.o)
 .text.OC_FaultHasOccurred_Default
                0x00000000       0xe4 /opt/microchip/harmony/v1_03/bin/framework/peripheral/PIC32MZ1024ECG064_peripherals.a(peripheral.o)
 .text.SPI_PinEnable_PIC32
                0x00000000      0x19c /opt/microchip/harmony/v1_03/bin/framework/peripheral/PIC32MZ1024ECG064_peripherals.a(peripheral.o)
 .text.SPI_PinDisable_PIC32
                0x00000000      0x19c /opt/microchip/harmony/v1_03/bin/framework/peripheral/PIC32MZ1024ECG064_peripherals.a(peripheral.o)
 .text.SPI_AudioCommunicationWidthSelect_PIC32
                0x00000000      0x3ec /opt/microchip/harmony/v1_03/bin/framework/peripheral/PIC32MZ1024ECG064_peripherals.a(peripheral.o)
 .text.SPI_FIFOCountGet_PIC32
                0x00000000      0x130 /opt/microchip/harmony/v1_03/bin/framework/peripheral/PIC32MZ1024ECG064_peripherals.a(peripheral.o)
 .text.SPI_FIFOInterruptModeSelect_PIC32
                0x00000000      0x874 /opt/microchip/harmony/v1_03/bin/framework/peripheral/PIC32MZ1024ECG064_peripherals.a(peripheral.o)
 .text.SPI_FrameSyncPulseWidthSelect_Default
                0x00000000      0x110 /opt/microchip/harmony/v1_03/bin/framework/peripheral/PIC32MZ1024ECG064_peripherals.a(peripheral.o)
 .text.SPI_FrameSyncPulseCounterSelect_PIC32
                0x00000000      0x110 /opt/microchip/harmony/v1_03/bin/framework/peripheral/PIC32MZ1024ECG064_peripherals.a(peripheral.o)
 .text.SPI_BaudRateClockSelect_Default
                0x00000000      0x110 /opt/microchip/harmony/v1_03/bin/framework/peripheral/PIC32MZ1024ECG064_peripherals.a(peripheral.o)
 .text.SPI_ErrorInterruptEnable_Default
                0x00000000      0x19c /opt/microchip/harmony/v1_03/bin/framework/peripheral/PIC32MZ1024ECG064_peripherals.a(peripheral.o)
 .text.SPI_ErrorInterruptDisable_Default
                0x00000000      0x19c /opt/microchip/harmony/v1_03/bin/framework/peripheral/PIC32MZ1024ECG064_peripherals.a(peripheral.o)
 .text.SPI_AudioErrorEnable_Default
                0x00000000      0x118 /opt/microchip/harmony/v1_03/bin/framework/peripheral/PIC32MZ1024ECG064_peripherals.a(peripheral.o)
 .text.SPI_AudioErrorDisable_Default
                0x00000000      0x118 /opt/microchip/harmony/v1_03/bin/framework/peripheral/PIC32MZ1024ECG064_peripherals.a(peripheral.o)
 .text.SPI_AudioTransmitModeSelect_Default
                0x00000000      0x110 /opt/microchip/harmony/v1_03/bin/framework/peripheral/PIC32MZ1024ECG064_peripherals.a(peripheral.o)
 .text.SPI_AudioProtocolModeSelect_Default
                0x00000000      0x108 /opt/microchip/harmony/v1_03/bin/framework/peripheral/PIC32MZ1024ECG064_peripherals.a(peripheral.o)
 .text._TMR_PERIOD_REGISTER_16BIT_VREG
                0x00000000       0xbc /opt/microchip/harmony/v1_03/bin/framework/peripheral/PIC32MZ1024ECG064_peripherals.a(peripheral.o)
 .text._TMR_VALUE_REGISTER_16BIT_VREG
                0x00000000       0xbc /opt/microchip/harmony/v1_03/bin/framework/peripheral/PIC32MZ1024ECG064_peripherals.a(peripheral.o)
 .text.TMR_GateDisable_Default
                0x00000000       0xe4 /opt/microchip/harmony/v1_03/bin/framework/peripheral/PIC32MZ1024ECG064_peripherals.a(peripheral.o)
 .text.TMR_Mode16BitEnable_Default
                0x00000000       0xe0 /opt/microchip/harmony/v1_03/bin/framework/peripheral/PIC32MZ1024ECG064_peripherals.a(peripheral.o)
 .text.TMR_Mode32BitEnable_Default
                0x00000000       0xe0 /opt/microchip/harmony/v1_03/bin/framework/peripheral/PIC32MZ1024ECG064_peripherals.a(peripheral.o)
 .text.TMR_Stop_Default
                0x00000000       0xe4 /opt/microchip/harmony/v1_03/bin/framework/peripheral/PIC32MZ1024ECG064_peripherals.a(peripheral.o)
 .text.TMR_StopInIdleDisable_Default
                0x00000000       0xe4 /opt/microchip/harmony/v1_03/bin/framework/peripheral/PIC32MZ1024ECG064_peripherals.a(peripheral.o)
 .text.USART_InitializeModeGeneral_Default
                0x00000000       0xec /opt/microchip/harmony/v1_03/bin/framework/peripheral/PIC32MZ1024ECG064_peripherals.a(peripheral.o)
 .text.USART_BaudRateGet_In16BitRegister
                0x00000000       0xc0 /opt/microchip/harmony/v1_03/bin/framework/peripheral/PIC32MZ1024ECG064_peripherals.a(peripheral.o)
 .text.USART_BaudRateHighSet_In16BitRegister
                0x00000000      0x164 /opt/microchip/harmony/v1_03/bin/framework/peripheral/PIC32MZ1024ECG064_peripherals.a(peripheral.o)
 .text.USART_ReceiverAddressAutoDetectEnable_Default
                0x00000000      0x224 /opt/microchip/harmony/v1_03/bin/framework/peripheral/PIC32MZ1024ECG064_peripherals.a(peripheral.o)
 .text.USART_ReceiverAddressIsReceived_Default
                0x00000000       0xb4 /opt/microchip/harmony/v1_03/bin/framework/peripheral/PIC32MZ1024ECG064_peripherals.a(peripheral.o)
 .text.USART_Transmitter9BitsSend_InDataOnly
                0x00000000      0x138 /opt/microchip/harmony/v1_03/bin/framework/peripheral/PIC32MZ1024ECG064_peripherals.a(peripheral.o)
 .text.USART_ReceiverAddressDetectEnable_Default
                0x00000000       0xb4 /opt/microchip/harmony/v1_03/bin/framework/peripheral/PIC32MZ1024ECG064_peripherals.a(peripheral.o)
 .text.USART_ReceiverAddressDetectDisable_Default
                0x00000000       0xb4 /opt/microchip/harmony/v1_03/bin/framework/peripheral/PIC32MZ1024ECG064_peripherals.a(peripheral.o)
 .text.TMR_Start_Default
                0x00000000       0xe4 /opt/microchip/harmony/v1_03/bin/framework/peripheral/PIC32MZ1024ECG064_peripherals.a(peripheral.o)
 .text.TMR_StopInIdleEnable_Default
                0x00000000       0xe4 /opt/microchip/harmony/v1_03/bin/framework/peripheral/PIC32MZ1024ECG064_peripherals.a(peripheral.o)
 .text.TMR_GateEnable_Default
                0x00000000       0xe4 /opt/microchip/harmony/v1_03/bin/framework/peripheral/PIC32MZ1024ECG064_peripherals.a(peripheral.o)
 .text.IC_Enable_Default
                0x00000000       0xe4 /opt/microchip/harmony/v1_03/bin/framework/peripheral/PIC32MZ1024ECG064_peripherals.a(peripheral.o)
 .text.IC_StopInIdleEnable_Default
                0x00000000       0xe4 /opt/microchip/harmony/v1_03/bin/framework/peripheral/PIC32MZ1024ECG064_peripherals.a(peripheral.o)
 .text.OC_BufferSizeSelect_Default
                0x00000000      0x1e0 /opt/microchip/harmony/v1_03/bin/framework/peripheral/PIC32MZ1024ECG064_peripherals.a(peripheral.o)
 .text.OC_FaultInputSelect_Default
                0x00000000      0x1e0 /opt/microchip/harmony/v1_03/bin/framework/peripheral/PIC32MZ1024ECG064_peripherals.a(peripheral.o)
 .text.OC_StopInIdleEnable_Default
                0x00000000       0xe4 /opt/microchip/harmony/v1_03/bin/framework/peripheral/PIC32MZ1024ECG064_peripherals.a(peripheral.o)
 .text.OC_ModeSelect_Default
                0x00000000      0x1e0 /opt/microchip/harmony/v1_03/bin/framework/peripheral/PIC32MZ1024ECG064_peripherals.a(peripheral.o)
 .text.IC_ModeSelect_Default
                0x00000000      0x1e0 /opt/microchip/harmony/v1_03/bin/framework/peripheral/PIC32MZ1024ECG064_peripherals.a(peripheral.o)
 .text.IC_EventsPerInterruptSelect_Default
                0x00000000      0x1e8 /opt/microchip/harmony/v1_03/bin/framework/peripheral/PIC32MZ1024ECG064_peripherals.a(peripheral.o)
 .text.IC_BufferSizeSelect_Default
                0x00000000      0x1e0 /opt/microchip/harmony/v1_03/bin/framework/peripheral/PIC32MZ1024ECG064_peripherals.a(peripheral.o)
 .text.IC_StopInIdleDisable_Default
                0x00000000       0xe4 /opt/microchip/harmony/v1_03/bin/framework/peripheral/PIC32MZ1024ECG064_peripherals.a(peripheral.o)
 .text.IC_Disable_Default
                0x00000000       0xe4 /opt/microchip/harmony/v1_03/bin/framework/peripheral/PIC32MZ1024ECG064_peripherals.a(peripheral.o)
 .text.IC_FirstCaptureEdgeSelect_Default
                0x00000000      0x1e0 /opt/microchip/harmony/v1_03/bin/framework/peripheral/PIC32MZ1024ECG064_peripherals.a(peripheral.o)
 .text.USART_InitializeOperation_Default
                0x00000000      0x10c /opt/microchip/harmony/v1_03/bin/framework/peripheral/PIC32MZ1024ECG064_peripherals.a(peripheral.o)
 .text.USART_BaudSetAndEnable_Default
                0x00000000      0x1a4 /opt/microchip/harmony/v1_03/bin/framework/peripheral/PIC32MZ1024ECG064_peripherals.a(peripheral.o)
 .text.USART_WakeOnStartDisable_Default
                0x00000000       0xb4 /opt/microchip/harmony/v1_03/bin/framework/peripheral/PIC32MZ1024ECG064_peripherals.a(peripheral.o)
 .text.USART_WakeOnStartEnable_Default
                0x00000000       0xb4 /opt/microchip/harmony/v1_03/bin/framework/peripheral/PIC32MZ1024ECG064_peripherals.a(peripheral.o)
 .text.USART_WakeOnStartIsEnabled_Default
                0x00000000       0xb4 /opt/microchip/harmony/v1_03/bin/framework/peripheral/PIC32MZ1024ECG064_peripherals.a(peripheral.o)
 .text.USART_IrDADisable_Default
                0x00000000       0xb4 /opt/microchip/harmony/v1_03/bin/framework/peripheral/PIC32MZ1024ECG064_peripherals.a(peripheral.o)
 .text.USART_IrDAEnable_Default
                0x00000000       0xb4 /opt/microchip/harmony/v1_03/bin/framework/peripheral/PIC32MZ1024ECG064_peripherals.a(peripheral.o)
 .text.USART_TransmitterIdleIsLowEnable_pic32
                0x00000000      0x208 /opt/microchip/harmony/v1_03/bin/framework/peripheral/PIC32MZ1024ECG064_peripherals.a(peripheral.o)
 .text.USART_TransmitterIdleIsLowDisable_pic32
                0x00000000      0x208 /opt/microchip/harmony/v1_03/bin/framework/peripheral/PIC32MZ1024ECG064_peripherals.a(peripheral.o)
 .text.OC_IsEnabled_Default
                0x00000000       0xe4 /opt/microchip/harmony/v1_03/bin/framework/peripheral/PIC32MZ1024ECG064_peripherals.a(peripheral.o)
 .text.OC_Disable_Default
                0x00000000       0xe4 /opt/microchip/harmony/v1_03/bin/framework/peripheral/PIC32MZ1024ECG064_peripherals.a(peripheral.o)
 .text.OC_Enable_Default
                0x00000000       0xe4 /opt/microchip/harmony/v1_03/bin/framework/peripheral/PIC32MZ1024ECG064_peripherals.a(peripheral.o)
 .text.TMR_ClockSourceSelect_Default
                0x00000000      0x1d4 /opt/microchip/harmony/v1_03/bin/framework/peripheral/PIC32MZ1024ECG064_peripherals.a(peripheral.o)
 .text.IC_TimerSelect_MZ
                0x00000000      0x1e0 /opt/microchip/harmony/v1_03/bin/framework/peripheral/PIC32MZ1024ECG064_peripherals.a(peripheral.o)
 .text.OC_TimerSelect_MZ
                0x00000000      0x1e0 /opt/microchip/harmony/v1_03/bin/framework/peripheral/PIC32MZ1024ECG064_peripherals.a(peripheral.o)
 .text.TMR_PrescaleGet_Default
                0x00000000      0x164 /opt/microchip/harmony/v1_03/bin/framework/peripheral/PIC32MZ1024ECG064_peripherals.a(peripheral.o)
 .text.TMR_Period32BitSet_In16BitRegister_pic32
                0x00000000      0x1f4 /opt/microchip/harmony/v1_03/bin/framework/peripheral/PIC32MZ1024ECG064_peripherals.a(peripheral.o)
 .text.TMR_PrescaleSelect_Default
                0x00000000      0xa18 /opt/microchip/harmony/v1_03/bin/framework/peripheral/PIC32MZ1024ECG064_peripherals.a(peripheral.o)
 .text.IC_AlternateTimerSelect_Default
                0x00000000      0x5f4 /opt/microchip/harmony/v1_03/bin/framework/peripheral/PIC32MZ1024ECG064_peripherals.a(peripheral.o)
 .text.OC_AlternateTimerSelect_Default
                0x00000000      0x5f4 /opt/microchip/harmony/v1_03/bin/framework/peripheral/PIC32MZ1024ECG064_peripherals.a(peripheral.o)
 .text.TMR_Counter16BitSet_In16BitRegister
                0x00000000      0x1cc /opt/microchip/harmony/v1_03/bin/framework/peripheral/PIC32MZ1024ECG064_peripherals.a(peripheral.o)
 .text.TMR_Counter32BitSet_In16BitRegister
                0x00000000      0x318 /opt/microchip/harmony/v1_03/bin/framework/peripheral/PIC32MZ1024ECG064_peripherals.a(peripheral.o)
 .text.PLIB_ADC_Enable
                0x00000000        0x8 /opt/microchip/harmony/v1_03/bin/framework/peripheral/PIC32MZ1024ECG064_peripherals.a(peripheral.o)
 .text.PLIB_ADC_Disable
                0x00000000        0x8 /opt/microchip/harmony/v1_03/bin/framework/peripheral/PIC32MZ1024ECG064_peripherals.a(peripheral.o)
 .text.PLIB_ADC_ExistsEnableControl
                0x00000000        0x8 /opt/microchip/harmony/v1_03/bin/framework/peripheral/PIC32MZ1024ECG064_peripherals.a(peripheral.o)
 .text.PLIB_ADC_StopInIdleEnable
                0x00000000        0x8 /opt/microchip/harmony/v1_03/bin/framework/peripheral/PIC32MZ1024ECG064_peripherals.a(peripheral.o)
 .text.PLIB_ADC_StopInIdleDisable
                0x00000000        0x8 /opt/microchip/harmony/v1_03/bin/framework/peripheral/PIC32MZ1024ECG064_peripherals.a(peripheral.o)
 .text.PLIB_ADC_ExistsStopInIdleControl
                0x00000000        0x8 /opt/microchip/harmony/v1_03/bin/framework/peripheral/PIC32MZ1024ECG064_peripherals.a(peripheral.o)
 .text.PLIB_ADC_CalibrationEnable
                0x00000000        0x8 /opt/microchip/harmony/v1_03/bin/framework/peripheral/PIC32MZ1024ECG064_peripherals.a(peripheral.o)
 .text.PLIB_ADC_CalibrationDisable
                0x00000000        0x8 /opt/microchip/harmony/v1_03/bin/framework/peripheral/PIC32MZ1024ECG064_peripherals.a(peripheral.o)
 .text.PLIB_ADC_ExistsCalibrationControl
                0x00000000        0x8 /opt/microchip/harmony/v1_03/bin/framework/peripheral/PIC32MZ1024ECG064_peripherals.a(peripheral.o)
 .text.PLIB_ADC_InputSelectPositive
                0x00000000        0x8 /opt/microchip/harmony/v1_03/bin/framework/peripheral/PIC32MZ1024ECG064_peripherals.a(peripheral.o)
 .text.PLIB_ADC_InputSelectNegative
                0x00000000        0x8 /opt/microchip/harmony/v1_03/bin/framework/peripheral/PIC32MZ1024ECG064_peripherals.a(peripheral.o)
 .text.PLIB_ADC_ExistsInputSelect
                0x00000000        0x8 /opt/microchip/harmony/v1_03/bin/framework/peripheral/PIC32MZ1024ECG064_peripherals.a(peripheral.o)
 .text.PLIB_ADC_InputScanMaskAdd
                0x00000000        0x8 /opt/microchip/harmony/v1_03/bin/framework/peripheral/PIC32MZ1024ECG064_peripherals.a(peripheral.o)
 .text.PLIB_ADC_InputScanMaskRemove
                0x00000000        0x8 /opt/microchip/harmony/v1_03/bin/framework/peripheral/PIC32MZ1024ECG064_peripherals.a(peripheral.o)
 .text.PLIB_ADC_ExistsMuxInputScanSelect
                0x00000000        0x8 /opt/microchip/harmony/v1_03/bin/framework/peripheral/PIC32MZ1024ECG064_peripherals.a(peripheral.o)
 .text.PLIB_ADC_InputScanMaskAddExtended
                0x00000000        0x8 /opt/microchip/harmony/v1_03/bin/framework/peripheral/PIC32MZ1024ECG064_peripherals.a(peripheral.o)
 .text.PLIB_ADC_InputScanMaskRemoveExtended
                0x00000000        0x8 /opt/microchip/harmony/v1_03/bin/framework/peripheral/PIC32MZ1024ECG064_peripherals.a(peripheral.o)
 .text.PLIB_ADC_ExistsMuxInputScanSelectExtended
                0x00000000        0x8 /opt/microchip/harmony/v1_03/bin/framework/peripheral/PIC32MZ1024ECG064_peripherals.a(peripheral.o)
 .text.PLIB_ADC_VoltageReferenceSelect
                0x00000000        0x8 /opt/microchip/harmony/v1_03/bin/framework/peripheral/PIC32MZ1024ECG064_peripherals.a(peripheral.o)
 .text.PLIB_ADC_ExistsVoltageReference
                0x00000000        0x8 /opt/microchip/harmony/v1_03/bin/framework/peripheral/PIC32MZ1024ECG064_peripherals.a(peripheral.o)
 .text.PLIB_ADC_ChannelGroupSelect
                0x00000000        0x8 /opt/microchip/harmony/v1_03/bin/framework/peripheral/PIC32MZ1024ECG064_peripherals.a(peripheral.o)
 .text.PLIB_ADC_ExistsChannelGroup
                0x00000000        0x8 /opt/microchip/harmony/v1_03/bin/framework/peripheral/PIC32MZ1024ECG064_peripherals.a(peripheral.o)
 .text.PLIB_ADC_DMAEnable
                0x00000000        0x8 /opt/microchip/harmony/v1_03/bin/framework/peripheral/PIC32MZ1024ECG064_peripherals.a(peripheral.o)
 .text.PLIB_ADC_DMADisable
                0x00000000        0x8 /opt/microchip/harmony/v1_03/bin/framework/peripheral/PIC32MZ1024ECG064_peripherals.a(peripheral.o)
 .text.PLIB_ADC_ExistsDMAControl
                0x00000000        0x8 /opt/microchip/harmony/v1_03/bin/framework/peripheral/PIC32MZ1024ECG064_peripherals.a(peripheral.o)
 .text.PLIB_ADC_DMAAddressIncrementSelect
                0x00000000        0x8 /opt/microchip/harmony/v1_03/bin/framework/peripheral/PIC32MZ1024ECG064_peripherals.a(peripheral.o)
 .text.PLIB_ADC_ExistsDMAAddressIncrement
                0x00000000        0x8 /opt/microchip/harmony/v1_03/bin/framework/peripheral/PIC32MZ1024ECG064_peripherals.a(peripheral.o)
 .text.PLIB_ADC_DMABufferModeSelect
                0x00000000        0x8 /opt/microchip/harmony/v1_03/bin/framework/peripheral/PIC32MZ1024ECG064_peripherals.a(peripheral.o)
 .text.PLIB_ADC_ExistsDMABufferMode
                0x00000000        0x8 /opt/microchip/harmony/v1_03/bin/framework/peripheral/PIC32MZ1024ECG064_peripherals.a(peripheral.o)
 .text.PLIB_ADC_DMAInputBufferSelect
                0x00000000        0x8 /opt/microchip/harmony/v1_03/bin/framework/peripheral/PIC32MZ1024ECG064_peripherals.a(peripheral.o)
 .text.PLIB_ADC_ExistsDMABuffersPerAnalogInput
                0x00000000        0x8 /opt/microchip/harmony/v1_03/bin/framework/peripheral/PIC32MZ1024ECG064_peripherals.a(peripheral.o)
 .text.PLIB_ADC_MuxChannel0InputPositiveSelect
                0x00000000        0x8 /opt/microchip/harmony/v1_03/bin/framework/peripheral/PIC32MZ1024ECG064_peripherals.a(peripheral.o)
 .text.PLIB_ADC_ExistsMuxChannel0PositiveInput
                0x00000000        0x8 /opt/microchip/harmony/v1_03/bin/framework/peripheral/PIC32MZ1024ECG064_peripherals.a(peripheral.o)
 .text.PLIB_ADC_MuxChannel0InputNegativeSelect
                0x00000000        0x8 /opt/microchip/harmony/v1_03/bin/framework/peripheral/PIC32MZ1024ECG064_peripherals.a(peripheral.o)
 .text.PLIB_ADC_ExistsMuxChannel0NegativeInput
                0x00000000        0x8 /opt/microchip/harmony/v1_03/bin/framework/peripheral/PIC32MZ1024ECG064_peripherals.a(peripheral.o)
 .text.PLIB_ADC_MuxChannel123InputPositiveSelect
                0x00000000        0x8 /opt/microchip/harmony/v1_03/bin/framework/peripheral/PIC32MZ1024ECG064_peripherals.a(peripheral.o)
 .text.PLIB_ADC_ExistsMuxChannel123PositiveInput
                0x00000000        0x8 /opt/microchip/harmony/v1_03/bin/framework/peripheral/PIC32MZ1024ECG064_peripherals.a(peripheral.o)
 .text.PLIB_ADC_MuxChannel123InputNegativeSelect
                0x00000000        0x8 /opt/microchip/harmony/v1_03/bin/framework/peripheral/PIC32MZ1024ECG064_peripherals.a(peripheral.o)
 .text.PLIB_ADC_ExistsMuxChannel123NegativeInput
                0x00000000        0x8 /opt/microchip/harmony/v1_03/bin/framework/peripheral/PIC32MZ1024ECG064_peripherals.a(peripheral.o)
 .text.PLIB_ADC_MuxAInputScanEnable
                0x00000000        0x8 /opt/microchip/harmony/v1_03/bin/framework/peripheral/PIC32MZ1024ECG064_peripherals.a(peripheral.o)
 .text.PLIB_ADC_MuxAInputScanDisable
                0x00000000        0x8 /opt/microchip/harmony/v1_03/bin/framework/peripheral/PIC32MZ1024ECG064_peripherals.a(peripheral.o)
 .text.PLIB_ADC_ExistsMuxInputScanControl
                0x00000000        0x8 /opt/microchip/harmony/v1_03/bin/framework/peripheral/PIC32MZ1024ECG064_peripherals.a(peripheral.o)
 .text.PLIB_ADC_InternalReferenceChannelEnable
                0x00000000        0x8 /opt/microchip/harmony/v1_03/bin/framework/peripheral/PIC32MZ1024ECG064_peripherals.a(peripheral.o)
 .text.PLIB_ADC_InternalReferenceChannelDisable
                0x00000000        0x8 /opt/microchip/harmony/v1_03/bin/framework/peripheral/PIC32MZ1024ECG064_peripherals.a(peripheral.o)
 .text.PLIB_ADC_ExistsInternalReferenceChannelControl
                0x00000000        0x8 /opt/microchip/harmony/v1_03/bin/framework/peripheral/PIC32MZ1024ECG064_peripherals.a(peripheral.o)
 .text.PLIB_ADC_SamplingModeSelect
                0x00000000        0x8 /opt/microchip/harmony/v1_03/bin/framework/peripheral/PIC32MZ1024ECG064_peripherals.a(peripheral.o)
 .text.PLIB_ADC_ExistsSamplingModeControl
                0x00000000        0x8 /opt/microchip/harmony/v1_03/bin/framework/peripheral/PIC32MZ1024ECG064_peripherals.a(peripheral.o)
 .text.PLIB_ADC_SamplesPerInterruptSelect
                0x00000000        0x8 /opt/microchip/harmony/v1_03/bin/framework/peripheral/PIC32MZ1024ECG064_peripherals.a(peripheral.o)
 .text.PLIB_ADC_ExistsSamplesPerInterruptSelect
                0x00000000        0x8 /opt/microchip/harmony/v1_03/bin/framework/peripheral/PIC32MZ1024ECG064_peripherals.a(peripheral.o)
 .text.PLIB_ADC_SampleAutoStartEnable
                0x00000000        0x8 /opt/microchip/harmony/v1_03/bin/framework/peripheral/PIC32MZ1024ECG064_peripherals.a(peripheral.o)
 .text.PLIB_ADC_SampleAutoStartDisable
                0x00000000        0x8 /opt/microchip/harmony/v1_03/bin/framework/peripheral/PIC32MZ1024ECG064_peripherals.a(peripheral.o)
 .text.PLIB_ADC_ExistsSamplingAutoStart
                0x00000000        0x8 /opt/microchip/harmony/v1_03/bin/framework/peripheral/PIC32MZ1024ECG064_peripherals.a(peripheral.o)
 .text.PLIB_ADC_SamplingStart
                0x00000000        0x8 /opt/microchip/harmony/v1_03/bin/framework/peripheral/PIC32MZ1024ECG064_peripherals.a(peripheral.o)
 .text.PLIB_ADC_SamplingStop
                0x00000000        0x8 /opt/microchip/harmony/v1_03/bin/framework/peripheral/PIC32MZ1024ECG064_peripherals.a(peripheral.o)
 .text.PLIB_ADC_ExistsSamplingControl
                0x00000000        0x8 /opt/microchip/harmony/v1_03/bin/framework/peripheral/PIC32MZ1024ECG064_peripherals.a(peripheral.o)
 .text.PLIB_ADC_SampleMaxGet
                0x00000000        0x8 /opt/microchip/harmony/v1_03/bin/framework/peripheral/PIC32MZ1024ECG064_peripherals.a(peripheral.o)
 .text.PLIB_ADC_SampleMinGet
                0x00000000        0x8 /opt/microchip/harmony/v1_03/bin/framework/peripheral/PIC32MZ1024ECG064_peripherals.a(peripheral.o)
 .text.PLIB_ADC_ExistsSampleResolution
                0x00000000        0x8 /opt/microchip/harmony/v1_03/bin/framework/peripheral/PIC32MZ1024ECG064_peripherals.a(peripheral.o)
 .text.PLIB_ADC_SampleAcquisitionTimeSet
                0x00000000        0x8 /opt/microchip/harmony/v1_03/bin/framework/peripheral/PIC32MZ1024ECG064_peripherals.a(peripheral.o)
 .text.PLIB_ADC_ExistsSamplingAcquisitionTime
                0x00000000        0x8 /opt/microchip/harmony/v1_03/bin/framework/peripheral/PIC32MZ1024ECG064_peripherals.a(peripheral.o)
 .text.PLIB_ADC_SamplingIsActive
                0x00000000        0x8 /opt/microchip/harmony/v1_03/bin/framework/peripheral/PIC32MZ1024ECG064_peripherals.a(peripheral.o)
 .text.PLIB_ADC_ExistsSamplingStatus
                0x00000000        0x8 /opt/microchip/harmony/v1_03/bin/framework/peripheral/PIC32MZ1024ECG064_peripherals.a(peripheral.o)
 .text.PLIB_ADC_ConversionStart
                0x00000000        0x8 /opt/microchip/harmony/v1_03/bin/framework/peripheral/PIC32MZ1024ECG064_peripherals.a(peripheral.o)
 .text.PLIB_ADC_ExistsConversionControl
                0x00000000        0x8 /opt/microchip/harmony/v1_03/bin/framework/peripheral/PIC32MZ1024ECG064_peripherals.a(peripheral.o)
 .text.PLIB_ADC_ConversionClockSet
                0x00000000        0x8 /opt/microchip/harmony/v1_03/bin/framework/peripheral/PIC32MZ1024ECG064_peripherals.a(peripheral.o)
 .text.PLIB_ADC_ConversionClockGet
                0x00000000        0x8 /opt/microchip/harmony/v1_03/bin/framework/peripheral/PIC32MZ1024ECG064_peripherals.a(peripheral.o)
 .text.PLIB_ADC_ExistsConversionClock
                0x00000000        0x8 /opt/microchip/harmony/v1_03/bin/framework/peripheral/PIC32MZ1024ECG064_peripherals.a(peripheral.o)
 .text.PLIB_ADC_ConversionClockSourceSelect
                0x00000000        0x8 /opt/microchip/harmony/v1_03/bin/framework/peripheral/PIC32MZ1024ECG064_peripherals.a(peripheral.o)
 .text.PLIB_ADC_ExistsConversionClockSource
                0x00000000        0x8 /opt/microchip/harmony/v1_03/bin/framework/peripheral/PIC32MZ1024ECG064_peripherals.a(peripheral.o)
 .text.PLIB_ADC_ConversionTriggerGroupSelect
                0x00000000        0x8 /opt/microchip/harmony/v1_03/bin/framework/peripheral/PIC32MZ1024ECG064_peripherals.a(peripheral.o)
 .text.PLIB_ADC_ExistsConversionTriggerGroup
                0x00000000        0x8 /opt/microchip/harmony/v1_03/bin/framework/peripheral/PIC32MZ1024ECG064_peripherals.a(peripheral.o)
 .text.PLIB_ADC_ConversionTriggerSourceSelect
                0x00000000        0x8 /opt/microchip/harmony/v1_03/bin/framework/peripheral/PIC32MZ1024ECG064_peripherals.a(peripheral.o)
 .text.PLIB_ADC_ExistsConversionTriggerSource
                0x00000000        0x8 /opt/microchip/harmony/v1_03/bin/framework/peripheral/PIC32MZ1024ECG064_peripherals.a(peripheral.o)
 .text.PLIB_ADC_ConversionStopSequenceEnable
                0x00000000        0x8 /opt/microchip/harmony/v1_03/bin/framework/peripheral/PIC32MZ1024ECG064_peripherals.a(peripheral.o)
 .text.PLIB_ADC_ConversionStopSequenceDisable
                0x00000000        0x8 /opt/microchip/harmony/v1_03/bin/framework/peripheral/PIC32MZ1024ECG064_peripherals.a(peripheral.o)
 .text.PLIB_ADC_ExistsConversionStopSequenceControl
                0x00000000        0x8 /opt/microchip/harmony/v1_03/bin/framework/peripheral/PIC32MZ1024ECG064_peripherals.a(peripheral.o)
 .text.PLIB_ADC_ConversionHasCompleted
                0x00000000        0x8 /opt/microchip/harmony/v1_03/bin/framework/peripheral/PIC32MZ1024ECG064_peripherals.a(peripheral.o)
 .text.PLIB_ADC_ExistsConversionStatus
                0x00000000        0x8 /opt/microchip/harmony/v1_03/bin/framework/peripheral/PIC32MZ1024ECG064_peripherals.a(peripheral.o)
 .text.PLIB_ADC_ResultSizeSelect
                0x00000000        0x8 /opt/microchip/harmony/v1_03/bin/framework/peripheral/PIC32MZ1024ECG064_peripherals.a(peripheral.o)
 .text.PLIB_ADC_ExistsResultSize
                0x00000000        0x8 /opt/microchip/harmony/v1_03/bin/framework/peripheral/PIC32MZ1024ECG064_peripherals.a(peripheral.o)
 .text.PLIB_ADC_ResultFormatSelect
                0x00000000        0x8 /opt/microchip/harmony/v1_03/bin/framework/peripheral/PIC32MZ1024ECG064_peripherals.a(peripheral.o)
 .text.PLIB_ADC_ExistsResultFormat
                0x00000000        0x8 /opt/microchip/harmony/v1_03/bin/framework/peripheral/PIC32MZ1024ECG064_peripherals.a(peripheral.o)
 .text.PLIB_ADC_ResultBufferModeSelect
                0x00000000        0x8 /opt/microchip/harmony/v1_03/bin/framework/peripheral/PIC32MZ1024ECG064_peripherals.a(peripheral.o)
 .text.PLIB_ADC_ExistsResultBufferMode
                0x00000000        0x8 /opt/microchip/harmony/v1_03/bin/framework/peripheral/PIC32MZ1024ECG064_peripherals.a(peripheral.o)
 .text.PLIB_ADC_ResultBufferStatusGet
                0x00000000        0x8 /opt/microchip/harmony/v1_03/bin/framework/peripheral/PIC32MZ1024ECG064_peripherals.a(peripheral.o)
 .text.PLIB_ADC_ExistsResultBufferFillStatus
                0x00000000        0x8 /opt/microchip/harmony/v1_03/bin/framework/peripheral/PIC32MZ1024ECG064_peripherals.a(peripheral.o)
 .text.PLIB_ADC_ResultSignGet
                0x00000000        0x8 /opt/microchip/harmony/v1_03/bin/framework/peripheral/PIC32MZ1024ECG064_peripherals.a(peripheral.o)
 .text.PLIB_ADC_ExistsResultSign
                0x00000000        0x8 /opt/microchip/harmony/v1_03/bin/framework/peripheral/PIC32MZ1024ECG064_peripherals.a(peripheral.o)
 .text.PLIB_ADC_ResultGet
                0x00000000        0x8 /opt/microchip/harmony/v1_03/bin/framework/peripheral/PIC32MZ1024ECG064_peripherals.a(peripheral.o)
 .text.PLIB_ADC_ExistsResultGet
                0x00000000        0x8 /opt/microchip/harmony/v1_03/bin/framework/peripheral/PIC32MZ1024ECG064_peripherals.a(peripheral.o)
 .text.PLIB_ADC_ResultGetByIndex
                0x00000000        0x8 /opt/microchip/harmony/v1_03/bin/framework/peripheral/PIC32MZ1024ECG064_peripherals.a(peripheral.o)
 .text.PLIB_ADC_ExistsResultGetByIndex
                0x00000000        0x8 /opt/microchip/harmony/v1_03/bin/framework/peripheral/PIC32MZ1024ECG064_peripherals.a(peripheral.o)
 .text.PLIB_ADC_IsrJumpTableBaseAddressSet
                0x00000000        0x8 /opt/microchip/harmony/v1_03/bin/framework/peripheral/PIC32MZ1024ECG064_peripherals.a(peripheral.o)
 .text.PLIB_ADC_IsrJumpTableBaseAddressGet
                0x00000000        0x8 /opt/microchip/harmony/v1_03/bin/framework/peripheral/PIC32MZ1024ECG064_peripherals.a(peripheral.o)
 .text.PLIB_ADC_ExistsISRJumpTableBaseAddress
                0x00000000        0x8 /opt/microchip/harmony/v1_03/bin/framework/peripheral/PIC32MZ1024ECG064_peripherals.a(peripheral.o)
 .text.PLIB_ADC_GlobalSoftwareTriggerSet
                0x00000000        0x8 /opt/microchip/harmony/v1_03/bin/framework/peripheral/PIC32MZ1024ECG064_peripherals.a(peripheral.o)
 .text.PLIB_ADC_ExistsGlobalSoftwareTrigger
                0x00000000        0x8 /opt/microchip/harmony/v1_03/bin/framework/peripheral/PIC32MZ1024ECG064_peripherals.a(peripheral.o)
 .text.PLIB_ADC_ConversionOrderSelect
                0x00000000        0x8 /opt/microchip/harmony/v1_03/bin/framework/peripheral/PIC32MZ1024ECG064_peripherals.a(peripheral.o)
 .text.PLIB_ADC_ExistsConversionOrder
                0x00000000        0x8 /opt/microchip/harmony/v1_03/bin/framework/peripheral/PIC32MZ1024ECG064_peripherals.a(peripheral.o)
 .text.PLIB_ADC_AsynchronousDedicatedSamplingEnable
                0x00000000        0x8 /opt/microchip/harmony/v1_03/bin/framework/peripheral/PIC32MZ1024ECG064_peripherals.a(peripheral.o)
 .text.PLIB_ADC_AsynchronousDedicatedSamplingDisable
                0x00000000        0x8 /opt/microchip/harmony/v1_03/bin/framework/peripheral/PIC32MZ1024ECG064_peripherals.a(peripheral.o)
 .text.PLIB_ADC_ExistsAsynchronousDedicatedSampling
                0x00000000        0x8 /opt/microchip/harmony/v1_03/bin/framework/peripheral/PIC32MZ1024ECG064_peripherals.a(peripheral.o)
 .text.PLIB_ADC_PairInterruptAfterFirstConversion
                0x00000000        0x8 /opt/microchip/harmony/v1_03/bin/framework/peripheral/PIC32MZ1024ECG064_peripherals.a(peripheral.o)
 .text.PLIB_ADC_PairInterruptAfterSecondConversion
                0x00000000        0x8 /opt/microchip/harmony/v1_03/bin/framework/peripheral/PIC32MZ1024ECG064_peripherals.a(peripheral.o)
 .text.PLIB_ADC_ExistsPairInterruptOnConversion
                0x00000000        0x8 /opt/microchip/harmony/v1_03/bin/framework/peripheral/PIC32MZ1024ECG064_peripherals.a(peripheral.o)
 .text.PLIB_ADC_PairSampleStatusClear
                0x00000000        0x8 /opt/microchip/harmony/v1_03/bin/framework/peripheral/PIC32MZ1024ECG064_peripherals.a(peripheral.o)
 .text.PLIB_ADC_PairSampleIsAvailable
                0x00000000        0x8 /opt/microchip/harmony/v1_03/bin/framework/peripheral/PIC32MZ1024ECG064_peripherals.a(peripheral.o)
 .text.PLIB_ADC_ExistsPairSampleStatus
                0x00000000        0x8 /opt/microchip/harmony/v1_03/bin/framework/peripheral/PIC32MZ1024ECG064_peripherals.a(peripheral.o)
 .text.PLIB_ADC_PairInterruptRequestEnable
                0x00000000        0x8 /opt/microchip/harmony/v1_03/bin/framework/peripheral/PIC32MZ1024ECG064_peripherals.a(peripheral.o)
 .text.PLIB_ADC_PairInterruptRequestDisable
                0x00000000        0x8 /opt/microchip/harmony/v1_03/bin/framework/peripheral/PIC32MZ1024ECG064_peripherals.a(peripheral.o)
 .text.PLIB_ADC_ExistsPairInterruptRequest
                0x00000000        0x8 /opt/microchip/harmony/v1_03/bin/framework/peripheral/PIC32MZ1024ECG064_peripherals.a(peripheral.o)
 .text.PLIB_ADC_PairConversionStart
                0x00000000        0x8 /opt/microchip/harmony/v1_03/bin/framework/peripheral/PIC32MZ1024ECG064_peripherals.a(peripheral.o)
 .text.PLIB_ADC_PairConversionIsPending
                0x00000000        0x8 /opt/microchip/harmony/v1_03/bin/framework/peripheral/PIC32MZ1024ECG064_peripherals.a(peripheral.o)
 .text.PLIB_ADC_ExistsPairConversionControl
                0x00000000        0x8 /opt/microchip/harmony/v1_03/bin/framework/peripheral/PIC32MZ1024ECG064_peripherals.a(peripheral.o)
 .text.PLIB_ADC_PairTriggerSourceSelect
                0x00000000        0x8 /opt/microchip/harmony/v1_03/bin/framework/peripheral/PIC32MZ1024ECG064_peripherals.a(peripheral.o)
 .text.PLIB_ADC_ExistsPairTriggerSource
                0x00000000        0x8 /opt/microchip/harmony/v1_03/bin/framework/peripheral/PIC32MZ1024ECG064_peripherals.a(peripheral.o)
 .text.PLIB_ADCP_Enable
                0x00000000       0x28 /opt/microchip/harmony/v1_03/bin/framework/peripheral/PIC32MZ1024ECG064_peripherals.a(peripheral.o)
 .text.PLIB_ADCP_Disable
                0x00000000       0x24 /opt/microchip/harmony/v1_03/bin/framework/peripheral/PIC32MZ1024ECG064_peripherals.a(peripheral.o)
 .text.PLIB_ADCP_ExistsEnableControl
                0x00000000        0x8 /opt/microchip/harmony/v1_03/bin/framework/peripheral/PIC32MZ1024ECG064_peripherals.a(peripheral.o)
 .text.PLIB_ADCP_CalibrationStart
                0x00000000       0x20 /opt/microchip/harmony/v1_03/bin/framework/peripheral/PIC32MZ1024ECG064_peripherals.a(peripheral.o)
 .text.PLIB_ADCP_ExistsCalibration
                0x00000000        0x8 /opt/microchip/harmony/v1_03/bin/framework/peripheral/PIC32MZ1024ECG064_peripherals.a(peripheral.o)
 .text.PLIB_ADCP_Configure
                0x00000000      0x188 /opt/microchip/harmony/v1_03/bin/framework/peripheral/PIC32MZ1024ECG064_peripherals.a(peripheral.o)
 .text.PLIB_ADCP_ExistsConfiguration
                0x00000000        0x8 /opt/microchip/harmony/v1_03/bin/framework/peripheral/PIC32MZ1024ECG064_peripherals.a(peripheral.o)
 .text.PLIB_ADCP_LowPowerStateEnter
                0x00000000       0x1c /opt/microchip/harmony/v1_03/bin/framework/peripheral/PIC32MZ1024ECG064_peripherals.a(peripheral.o)
 .text.PLIB_ADCP_LowPowerStateExit
                0x00000000       0x20 /opt/microchip/harmony/v1_03/bin/framework/peripheral/PIC32MZ1024ECG064_peripherals.a(peripheral.o)
 .text.PLIB_ADCP_LowPowerStateGet
                0x00000000       0x20 /opt/microchip/harmony/v1_03/bin/framework/peripheral/PIC32MZ1024ECG064_peripherals.a(peripheral.o)
 .text.PLIB_ADCP_ExistsLowPowerControl
                0x00000000        0x8 /opt/microchip/harmony/v1_03/bin/framework/peripheral/PIC32MZ1024ECG064_peripherals.a(peripheral.o)
 .text.PLIB_ADCP_ModuleIsReady
                0x00000000       0x20 /opt/microchip/harmony/v1_03/bin/framework/peripheral/PIC32MZ1024ECG064_peripherals.a(peripheral.o)
 .text.PLIB_ADCP_ExistsReadyStatus
                0x00000000        0x8 /opt/microchip/harmony/v1_03/bin/framework/peripheral/PIC32MZ1024ECG064_peripherals.a(peripheral.o)
 .text.PLIB_ADCP_AlternateInputSelect
                0x00000000       0x40 /opt/microchip/harmony/v1_03/bin/framework/peripheral/PIC32MZ1024ECG064_peripherals.a(peripheral.o)
 .text.PLIB_ADCP_DefaultInputSelect
                0x00000000       0x2c /opt/microchip/harmony/v1_03/bin/framework/peripheral/PIC32MZ1024ECG064_peripherals.a(peripheral.o)
 .text.PLIB_ADCP_ExistsInputSelect
                0x00000000        0x8 /opt/microchip/harmony/v1_03/bin/framework/peripheral/PIC32MZ1024ECG064_peripherals.a(peripheral.o)
 .text.PLIB_ADCP_SHModeSelect
                0x00000000       0x38 /opt/microchip/harmony/v1_03/bin/framework/peripheral/PIC32MZ1024ECG064_peripherals.a(peripheral.o)
 .text.PLIB_ADCP_ExistsModeSelect
                0x00000000        0x8 /opt/microchip/harmony/v1_03/bin/framework/peripheral/PIC32MZ1024ECG064_peripherals.a(peripheral.o)
 .text.PLIB_ADCP_ChannelScanConfigure
                0x00000000       0xf4 /opt/microchip/harmony/v1_03/bin/framework/peripheral/PIC32MZ1024ECG064_peripherals.a(peripheral.o)
 .text.PLIB_ADCP_ExistsChannelScan
                0x00000000        0x8 /opt/microchip/harmony/v1_03/bin/framework/peripheral/PIC32MZ1024ECG064_peripherals.a(peripheral.o)
 .text.PLIB_ADCP_Class12TriggerConfigure
                0x00000000       0x4c /opt/microchip/harmony/v1_03/bin/framework/peripheral/PIC32MZ1024ECG064_peripherals.a(peripheral.o)
 .text.PLIB_ADCP_GlobalSoftwareTrigger
                0x00000000       0x28 /opt/microchip/harmony/v1_03/bin/framework/peripheral/PIC32MZ1024ECG064_peripherals.a(peripheral.o)
 .text.PLIB_ADCP_IndividualTrigger
                0x00000000       0x40 /opt/microchip/harmony/v1_03/bin/framework/peripheral/PIC32MZ1024ECG064_peripherals.a(peripheral.o)
 .text.PLIB_ADCP_ExistsTriggering
                0x00000000        0x8 /opt/microchip/harmony/v1_03/bin/framework/peripheral/PIC32MZ1024ECG064_peripherals.a(peripheral.o)
 .text.PLIB_ADCP_ResultReady
                0x00000000       0x38 /opt/microchip/harmony/v1_03/bin/framework/peripheral/PIC32MZ1024ECG064_peripherals.a(peripheral.o)
 .text.PLIB_ADCP_ResultGet
                0x00000000       0x20 /opt/microchip/harmony/v1_03/bin/framework/peripheral/PIC32MZ1024ECG064_peripherals.a(peripheral.o)
 .text.PLIB_ADCP_ResultReadyGrpIntConfigure
                0x00000000       0x1c /opt/microchip/harmony/v1_03/bin/framework/peripheral/PIC32MZ1024ECG064_peripherals.a(peripheral.o)
 .text.PLIB_ADCP_ExistsConversionResults
                0x00000000        0x8 /opt/microchip/harmony/v1_03/bin/framework/peripheral/PIC32MZ1024ECG064_peripherals.a(peripheral.o)
 .text.PLIB_ADCP_DigCmpConfig
                0x00000000      0x12c /opt/microchip/harmony/v1_03/bin/framework/peripheral/PIC32MZ1024ECG064_peripherals.a(peripheral.o)
 .text.PLIB_ADCP_DigCmpEnable
                0x00000000       0x28 /opt/microchip/harmony/v1_03/bin/framework/peripheral/PIC32MZ1024ECG064_peripherals.a(peripheral.o)
 .text.PLIB_ADCP_DigCmpDisable
                0x00000000       0x2c /opt/microchip/harmony/v1_03/bin/framework/peripheral/PIC32MZ1024ECG064_peripherals.a(peripheral.o)
 .text.PLIB_ADCP_DigCmpAIdGet
                0x00000000       0x40 /opt/microchip/harmony/v1_03/bin/framework/peripheral/PIC32MZ1024ECG064_peripherals.a(peripheral.o)
 .text.PLIB_ADCP_ExistsDigCmp
                0x00000000        0x8 /opt/microchip/harmony/v1_03/bin/framework/peripheral/PIC32MZ1024ECG064_peripherals.a(peripheral.o)
 .text.PLIB_ADCP_OsampDigFilterConfig
                0x00000000       0x88 /opt/microchip/harmony/v1_03/bin/framework/peripheral/PIC32MZ1024ECG064_peripherals.a(peripheral.o)
 .text.PLIB_ADCP_OsampDigFilterEnable
                0x00000000       0x2c /opt/microchip/harmony/v1_03/bin/framework/peripheral/PIC32MZ1024ECG064_peripherals.a(peripheral.o)
 .text.PLIB_ADCP_OsampDigFilterDisable
                0x00000000       0x28 /opt/microchip/harmony/v1_03/bin/framework/peripheral/PIC32MZ1024ECG064_peripherals.a(peripheral.o)
 .text.PLIB_ADCP_OsampDigFilterDataRdy
                0x00000000       0x28 /opt/microchip/harmony/v1_03/bin/framework/peripheral/PIC32MZ1024ECG064_peripherals.a(peripheral.o)
 .text.PLIB_ADCP_OsampDigFilterDataGet
                0x00000000       0x28 /opt/microchip/harmony/v1_03/bin/framework/peripheral/PIC32MZ1024ECG064_peripherals.a(peripheral.o)
 .text.PLIB_ADCP_ExistsOsampDigFilter
                0x00000000        0x8 /opt/microchip/harmony/v1_03/bin/framework/peripheral/PIC32MZ1024ECG064_peripherals.a(peripheral.o)
 .text.PLIB_BMX_ExistsArbitrationMode
                0x00000000        0x8 /opt/microchip/harmony/v1_03/bin/framework/peripheral/PIC32MZ1024ECG064_peripherals.a(peripheral.o)
 .text.PLIB_BMX_ArbitrationModeSet
                0x00000000        0x8 /opt/microchip/harmony/v1_03/bin/framework/peripheral/PIC32MZ1024ECG064_peripherals.a(peripheral.o)
 .text.PLIB_BMX_ArbitrationModeGet
                0x00000000        0x8 /opt/microchip/harmony/v1_03/bin/framework/peripheral/PIC32MZ1024ECG064_peripherals.a(peripheral.o)
 .text.PLIB_BMX_ExistsDataRamWaitState
                0x00000000        0x8 /opt/microchip/harmony/v1_03/bin/framework/peripheral/PIC32MZ1024ECG064_peripherals.a(peripheral.o)
 .text.PLIB_BMX_DataRamWaitStateSet
                0x00000000        0x8 /opt/microchip/harmony/v1_03/bin/framework/peripheral/PIC32MZ1024ECG064_peripherals.a(peripheral.o)
 .text.PLIB_BMX_DataRamWaitStateGet
                0x00000000        0x8 /opt/microchip/harmony/v1_03/bin/framework/peripheral/PIC32MZ1024ECG064_peripherals.a(peripheral.o)
 .text.PLIB_BMX_ExistsProgramFlashMemoryCacheDma
                0x00000000        0x8 /opt/microchip/harmony/v1_03/bin/framework/peripheral/PIC32MZ1024ECG064_peripherals.a(peripheral.o)
 .text.PLIB_BMX_ProgramFlashMemoryCacheDmaEnable
                0x00000000        0x8 /opt/microchip/harmony/v1_03/bin/framework/peripheral/PIC32MZ1024ECG064_peripherals.a(peripheral.o)
 .text.PLIB_BMX_ProgramFlashMemoryCacheDmaDisable
                0x00000000        0x8 /opt/microchip/harmony/v1_03/bin/framework/peripheral/PIC32MZ1024ECG064_peripherals.a(peripheral.o)
 .text.PLIB_BMX_ExistsBusExceptionIXI
                0x00000000        0x8 /opt/microchip/harmony/v1_03/bin/framework/peripheral/PIC32MZ1024ECG064_peripherals.a(peripheral.o)
 .text.PLIB_BMX_BusExceptionIXIEnable
                0x00000000        0x8 /opt/microchip/harmony/v1_03/bin/framework/peripheral/PIC32MZ1024ECG064_peripherals.a(peripheral.o)
 .text.PLIB_BMX_BusExceptionIXIDisable
                0x00000000        0x8 /opt/microchip/harmony/v1_03/bin/framework/peripheral/PIC32MZ1024ECG064_peripherals.a(peripheral.o)
 .text.PLIB_BMX_ExistsBusExceptionICD
                0x00000000        0x8 /opt/microchip/harmony/v1_03/bin/framework/peripheral/PIC32MZ1024ECG064_peripherals.a(peripheral.o)
 .text.PLIB_BMX_BusExceptionICDEnable
                0x00000000        0x8 /opt/microchip/harmony/v1_03/bin/framework/peripheral/PIC32MZ1024ECG064_peripherals.a(peripheral.o)
 .text.PLIB_BMX_BusExceptionICDDisable
                0x00000000        0x8 /opt/microchip/harmony/v1_03/bin/framework/peripheral/PIC32MZ1024ECG064_peripherals.a(peripheral.o)
 .text.PLIB_BMX_ExistsBusExceptionDMA
                0x00000000        0x8 /opt/microchip/harmony/v1_03/bin/framework/peripheral/PIC32MZ1024ECG064_peripherals.a(peripheral.o)
 .text.PLIB_BMX_BusExceptionDMAEnable
                0x00000000        0x8 /opt/microchip/harmony/v1_03/bin/framework/peripheral/PIC32MZ1024ECG064_peripherals.a(peripheral.o)
 .text.PLIB_BMX_BusExceptionDMADisable
                0x00000000        0x8 /opt/microchip/harmony/v1_03/bin/framework/peripheral/PIC32MZ1024ECG064_peripherals.a(peripheral.o)
 .text.PLIB_BMX_ExistsBusExceptionData
                0x00000000        0x8 /opt/microchip/harmony/v1_03/bin/framework/peripheral/PIC32MZ1024ECG064_peripherals.a(peripheral.o)
 .text.PLIB_BMX_BusExceptionDataEnable
                0x00000000        0x8 /opt/microchip/harmony/v1_03/bin/framework/peripheral/PIC32MZ1024ECG064_peripherals.a(peripheral.o)
 .text.PLIB_BMX_BusExceptionDataDisable
                0x00000000        0x8 /opt/microchip/harmony/v1_03/bin/framework/peripheral/PIC32MZ1024ECG064_peripherals.a(peripheral.o)
 .text.PLIB_BMX_ExistsBusExceptionInstruction
                0x00000000        0x8 /opt/microchip/harmony/v1_03/bin/framework/peripheral/PIC32MZ1024ECG064_peripherals.a(peripheral.o)
 .text.PLIB_BMX_BusExceptionInstructionEnable
                0x00000000        0x8 /opt/microchip/harmony/v1_03/bin/framework/peripheral/PIC32MZ1024ECG064_peripherals.a(peripheral.o)
 .text.PLIB_BMX_BusExceptionInstructionDisable
                0x00000000        0x8 /opt/microchip/harmony/v1_03/bin/framework/peripheral/PIC32MZ1024ECG064_peripherals.a(peripheral.o)
 .text.PLIB_BMX_ExistsProgramFlashPartition
                0x00000000        0x8 /opt/microchip/harmony/v1_03/bin/framework/peripheral/PIC32MZ1024ECG064_peripherals.a(peripheral.o)
 .text.PLIB_BMX_ProgramFlashPartitionGet
                0x00000000        0x8 /opt/microchip/harmony/v1_03/bin/framework/peripheral/PIC32MZ1024ECG064_peripherals.a(peripheral.o)
 .text.PLIB_BMX_ProgramFlashPartitionSet
                0x00000000        0x8 /opt/microchip/harmony/v1_03/bin/framework/peripheral/PIC32MZ1024ECG064_peripherals.a(peripheral.o)
 .text.PLIB_BMX_ExistsDataRAMPartition
                0x00000000        0x8 /opt/microchip/harmony/v1_03/bin/framework/peripheral/PIC32MZ1024ECG064_peripherals.a(peripheral.o)
 .text.PLIB_BMX_DataRAMPartitionSet
                0x00000000        0x8 /opt/microchip/harmony/v1_03/bin/framework/peripheral/PIC32MZ1024ECG064_peripherals.a(peripheral.o)
 .text.PLIB_BMX_DataRAMKernelProgramOffsetGet
                0x00000000        0x8 /opt/microchip/harmony/v1_03/bin/framework/peripheral/PIC32MZ1024ECG064_peripherals.a(peripheral.o)
 .text.PLIB_BMX_DataRAMUserDataOffsetGet
                0x00000000        0x8 /opt/microchip/harmony/v1_03/bin/framework/peripheral/PIC32MZ1024ECG064_peripherals.a(peripheral.o)
 .text.PLIB_BMX_DataRAMUserProgramOffsetGet
                0x00000000        0x8 /opt/microchip/harmony/v1_03/bin/framework/peripheral/PIC32MZ1024ECG064_peripherals.a(peripheral.o)
 .text.PLIB_BMX_ExistsProgramFlashMemorySize
                0x00000000        0x8 /opt/microchip/harmony/v1_03/bin/framework/peripheral/PIC32MZ1024ECG064_peripherals.a(peripheral.o)
 .text.PLIB_BMX_ProgramFlashMemorySizeGet
                0x00000000        0x8 /opt/microchip/harmony/v1_03/bin/framework/peripheral/PIC32MZ1024ECG064_peripherals.a(peripheral.o)
 .text.PLIB_BMX_ExistsDataRAMSize
                0x00000000        0x8 /opt/microchip/harmony/v1_03/bin/framework/peripheral/PIC32MZ1024ECG064_peripherals.a(peripheral.o)
 .text.PLIB_BMX_DataRAMSizeGet
                0x00000000        0x8 /opt/microchip/harmony/v1_03/bin/framework/peripheral/PIC32MZ1024ECG064_peripherals.a(peripheral.o)
 .text.PLIB_BMX_ExistsProgramFlashBootSize
                0x00000000        0x8 /opt/microchip/harmony/v1_03/bin/framework/peripheral/PIC32MZ1024ECG064_peripherals.a(peripheral.o)
 .text.PLIB_BMX_ProgramFlashBootSizeGet
                0x00000000        0x8 /opt/microchip/harmony/v1_03/bin/framework/peripheral/PIC32MZ1024ECG064_peripherals.a(peripheral.o)
 .text.PLIB_CAN_DeviceNetConfigure
                0x00000000        0x8 /opt/microchip/harmony/v1_03/bin/framework/peripheral/PIC32MZ1024ECG064_peripherals.a(peripheral.o)
 .text.PLIB_CAN_ExistsDeviceNet
                0x00000000        0x8 /opt/microchip/harmony/v1_03/bin/framework/peripheral/PIC32MZ1024ECG064_peripherals.a(peripheral.o)
 .text.PLIB_CAN_IsActive
                0x00000000        0x8 /opt/microchip/harmony/v1_03/bin/framework/peripheral/PIC32MZ1024ECG064_peripherals.a(peripheral.o)
 .text.PLIB_CAN_ExistsActiveStatus
                0x00000000        0x8 /opt/microchip/harmony/v1_03/bin/framework/peripheral/PIC32MZ1024ECG064_peripherals.a(peripheral.o)
 .text.PLIB_CAN_StopInIdleEnable
                0x00000000        0x8 /opt/microchip/harmony/v1_03/bin/framework/peripheral/PIC32MZ1024ECG064_peripherals.a(peripheral.o)
 .text.PLIB_CAN_StopInIdleDisable
                0x00000000        0x8 /opt/microchip/harmony/v1_03/bin/framework/peripheral/PIC32MZ1024ECG064_peripherals.a(peripheral.o)
 .text.PLIB_CAN_ExistsStopInIdle
                0x00000000        0x8 /opt/microchip/harmony/v1_03/bin/framework/peripheral/PIC32MZ1024ECG064_peripherals.a(peripheral.o)
 .text.PLIB_CAN_Enable
                0x00000000        0x8 /opt/microchip/harmony/v1_03/bin/framework/peripheral/PIC32MZ1024ECG064_peripherals.a(peripheral.o)
 .text.PLIB_CAN_Disable
                0x00000000        0x8 /opt/microchip/harmony/v1_03/bin/framework/peripheral/PIC32MZ1024ECG064_peripherals.a(peripheral.o)
 .text.PLIB_CAN_ExistsEnableControl
                0x00000000        0x8 /opt/microchip/harmony/v1_03/bin/framework/peripheral/PIC32MZ1024ECG064_peripherals.a(peripheral.o)
 .text.PLIB_CAN_TimeStampEnable
                0x00000000        0x8 /opt/microchip/harmony/v1_03/bin/framework/peripheral/PIC32MZ1024ECG064_peripherals.a(peripheral.o)
 .text.PLIB_CAN_TimeStampDisable
                0x00000000        0x8 /opt/microchip/harmony/v1_03/bin/framework/peripheral/PIC32MZ1024ECG064_peripherals.a(peripheral.o)
 .text.PLIB_CAN_ExistsTimeStampEnable
                0x00000000        0x8 /opt/microchip/harmony/v1_03/bin/framework/peripheral/PIC32MZ1024ECG064_peripherals.a(peripheral.o)
 .text.PLIB_CAN_TimeStampValueSet
                0x00000000        0x8 /opt/microchip/harmony/v1_03/bin/framework/peripheral/PIC32MZ1024ECG064_peripherals.a(peripheral.o)
 .text.PLIB_CAN_TimeStampValueGet
                0x00000000        0x8 /opt/microchip/harmony/v1_03/bin/framework/peripheral/PIC32MZ1024ECG064_peripherals.a(peripheral.o)
 .text.PLIB_CAN_ExistsTimeStampValue
                0x00000000        0x8 /opt/microchip/harmony/v1_03/bin/framework/peripheral/PIC32MZ1024ECG064_peripherals.a(peripheral.o)
 .text.PLIB_CAN_BusActivityWakeupEnable
                0x00000000        0x8 /opt/microchip/harmony/v1_03/bin/framework/peripheral/PIC32MZ1024ECG064_peripherals.a(peripheral.o)
 .text.PLIB_CAN_BusActivityWakeupDisable
                0x00000000        0x8 /opt/microchip/harmony/v1_03/bin/framework/peripheral/PIC32MZ1024ECG064_peripherals.a(peripheral.o)
 .text.PLIB_CAN_ExistsBusActivityWakeup
                0x00000000        0x8 /opt/microchip/harmony/v1_03/bin/framework/peripheral/PIC32MZ1024ECG064_peripherals.a(peripheral.o)
 .text.PLIB_CAN_MemoryBufferAssign
                0x00000000        0x8 /opt/microchip/harmony/v1_03/bin/framework/peripheral/PIC32MZ1024ECG064_peripherals.a(peripheral.o)
 .text.PLIB_CAN_ExistsMemoryBufferAssign
                0x00000000        0x8 /opt/microchip/harmony/v1_03/bin/framework/peripheral/PIC32MZ1024ECG064_peripherals.a(peripheral.o)
 .text.PLIB_CAN_OperationModeGet
                0x00000000        0x8 /opt/microchip/harmony/v1_03/bin/framework/peripheral/PIC32MZ1024ECG064_peripherals.a(peripheral.o)
 .text.PLIB_CAN_ExistsOperationModeRead
                0x00000000        0x8 /opt/microchip/harmony/v1_03/bin/framework/peripheral/PIC32MZ1024ECG064_peripherals.a(peripheral.o)
 .text.PLIB_CAN_OperationModeSelect
                0x00000000        0x8 /opt/microchip/harmony/v1_03/bin/framework/peripheral/PIC32MZ1024ECG064_peripherals.a(peripheral.o)
 .text.PLIB_CAN_ExistsOperationModeWrite
                0x00000000        0x8 /opt/microchip/harmony/v1_03/bin/framework/peripheral/PIC32MZ1024ECG064_peripherals.a(peripheral.o)
 .text.PLIB_CAN_TimeStampPrescalerSet
                0x00000000        0x8 /opt/microchip/harmony/v1_03/bin/framework/peripheral/PIC32MZ1024ECG064_peripherals.a(peripheral.o)
 .text.PLIB_CAN_ExistsTimeStampPrescaler
                0x00000000        0x8 /opt/microchip/harmony/v1_03/bin/framework/peripheral/PIC32MZ1024ECG064_peripherals.a(peripheral.o)
 .text.PLIB_CAN_PhaseSegment2LengthSet
                0x00000000        0x8 /opt/microchip/harmony/v1_03/bin/framework/peripheral/PIC32MZ1024ECG064_peripherals.a(peripheral.o)
 .text.PLIB_CAN_ExistsPhaseSegment2Length
                0x00000000        0x8 /opt/microchip/harmony/v1_03/bin/framework/peripheral/PIC32MZ1024ECG064_peripherals.a(peripheral.o)
 .text.PLIB_CAN_PhaseSegment1LengthSet
                0x00000000        0x8 /opt/microchip/harmony/v1_03/bin/framework/peripheral/PIC32MZ1024ECG064_peripherals.a(peripheral.o)
 .text.PLIB_CAN_ExistsPhaseSegment1Length
                0x00000000        0x8 /opt/microchip/harmony/v1_03/bin/framework/peripheral/PIC32MZ1024ECG064_peripherals.a(peripheral.o)
 .text.PLIB_CAN_PhaseSegment2LengthFreelyProgrammableEnable
                0x00000000        0x8 /opt/microchip/harmony/v1_03/bin/framework/peripheral/PIC32MZ1024ECG064_peripherals.a(peripheral.o)
 .text.PLIB_CAN_PhaseSegment2LengthFreelyProgrammableDisable
                0x00000000        0x8 /opt/microchip/harmony/v1_03/bin/framework/peripheral/PIC32MZ1024ECG064_peripherals.a(peripheral.o)
 .text.PLIB_CAN_ExistsPhaseSegment2LengthFreelyProgrammable
                0x00000000        0x8 /opt/microchip/harmony/v1_03/bin/framework/peripheral/PIC32MZ1024ECG064_peripherals.a(peripheral.o)
 .text.PLIB_CAN_BusLine3TimesSamplingEnable
                0x00000000        0x8 /opt/microchip/harmony/v1_03/bin/framework/peripheral/PIC32MZ1024ECG064_peripherals.a(peripheral.o)
 .text.PLIB_CAN_BusLine3TimesSamplingDisable
                0x00000000        0x8 /opt/microchip/harmony/v1_03/bin/framework/peripheral/PIC32MZ1024ECG064_peripherals.a(peripheral.o)
 .text.PLIB_CAN_ExistsBusLine3TimesSampling
                0x00000000        0x8 /opt/microchip/harmony/v1_03/bin/framework/peripheral/PIC32MZ1024ECG064_peripherals.a(peripheral.o)
 .text.PLIB_CAN_PropagationTimeSegmentSet
                0x00000000        0x8 /opt/microchip/harmony/v1_03/bin/framework/peripheral/PIC32MZ1024ECG064_peripherals.a(peripheral.o)
 .text.PLIB_CAN_ExistsPropagationTimeSegment
                0x00000000        0x8 /opt/microchip/harmony/v1_03/bin/framework/peripheral/PIC32MZ1024ECG064_peripherals.a(peripheral.o)
 .text.PLIB_CAN_SyncJumpWidthSet
                0x00000000        0x8 /opt/microchip/harmony/v1_03/bin/framework/peripheral/PIC32MZ1024ECG064_peripherals.a(peripheral.o)
 .text.PLIB_CAN_ExistsSyncJumpWidthSet
                0x00000000        0x8 /opt/microchip/harmony/v1_03/bin/framework/peripheral/PIC32MZ1024ECG064_peripherals.a(peripheral.o)
 .text.PLIB_CAN_BaudRatePrescaleSet
                0x00000000        0x8 /opt/microchip/harmony/v1_03/bin/framework/peripheral/PIC32MZ1024ECG064_peripherals.a(peripheral.o)
 .text.PLIB_CAN_ExistsBaudRatePrescale
                0x00000000        0x8 /opt/microchip/harmony/v1_03/bin/framework/peripheral/PIC32MZ1024ECG064_peripherals.a(peripheral.o)
 .text.PLIB_CAN_PrecalculatedBitRateSetup
                0x00000000        0x8 /opt/microchip/harmony/v1_03/bin/framework/peripheral/PIC32MZ1024ECG064_peripherals.a(peripheral.o)
 .text.PLIB_CAN_ExistsPrecalculatedBitRateSetup
                0x00000000        0x8 /opt/microchip/harmony/v1_03/bin/framework/peripheral/PIC32MZ1024ECG064_peripherals.a(peripheral.o)
 .text.PLIB_CAN_BitSamplePhaseSet
                0x00000000        0x8 /opt/microchip/harmony/v1_03/bin/framework/peripheral/PIC32MZ1024ECG064_peripherals.a(peripheral.o)
 .text.PLIB_CAN_ExistsBitSamplePhaseSet
                0x00000000        0x8 /opt/microchip/harmony/v1_03/bin/framework/peripheral/PIC32MZ1024ECG064_peripherals.a(peripheral.o)
 .text.PLIB_CAN_BaudRatePrescaleSetup
                0x00000000        0x8 /opt/microchip/harmony/v1_03/bin/framework/peripheral/PIC32MZ1024ECG064_peripherals.a(peripheral.o)
 .text.PLIB_CAN_ExistsBaudRatePrescaleSetup
                0x00000000        0x8 /opt/microchip/harmony/v1_03/bin/framework/peripheral/PIC32MZ1024ECG064_peripherals.a(peripheral.o)
 .text.PLIB_CAN_BaudRateGet
                0x00000000        0x8 /opt/microchip/harmony/v1_03/bin/framework/peripheral/PIC32MZ1024ECG064_peripherals.a(peripheral.o)
 .text.PLIB_CAN_ExistsBaudRateGet
                0x00000000        0x8 /opt/microchip/harmony/v1_03/bin/framework/peripheral/PIC32MZ1024ECG064_peripherals.a(peripheral.o)
 .text.PLIB_CAN_ChannelReset
                0x00000000        0x8 /opt/microchip/harmony/v1_03/bin/framework/peripheral/PIC32MZ1024ECG064_peripherals.a(peripheral.o)
 .text.PLIB_CAN_ChannelResetIsComplete
                0x00000000        0x8 /opt/microchip/harmony/v1_03/bin/framework/peripheral/PIC32MZ1024ECG064_peripherals.a(peripheral.o)
 .text.PLIB_CAN_ExistsChannelReset
                0x00000000        0x8 /opt/microchip/harmony/v1_03/bin/framework/peripheral/PIC32MZ1024ECG064_peripherals.a(peripheral.o)
 .text.PLIB_CAN_ChannelUpdate
                0x00000000        0x8 /opt/microchip/harmony/v1_03/bin/framework/peripheral/PIC32MZ1024ECG064_peripherals.a(peripheral.o)
 .text.PLIB_CAN_ExistsChannelUpdate
                0x00000000        0x8 /opt/microchip/harmony/v1_03/bin/framework/peripheral/PIC32MZ1024ECG064_peripherals.a(peripheral.o)
 .text.PLIB_CAN_ModuleEventEnable
                0x00000000        0x8 /opt/microchip/harmony/v1_03/bin/framework/peripheral/PIC32MZ1024ECG064_peripherals.a(peripheral.o)
 .text.PLIB_CAN_ModuleEventDisable
                0x00000000        0x8 /opt/microchip/harmony/v1_03/bin/framework/peripheral/PIC32MZ1024ECG064_peripherals.a(peripheral.o)
 .text.PLIB_CAN_ExistsModuleEventEnable
                0x00000000        0x8 /opt/microchip/harmony/v1_03/bin/framework/peripheral/PIC32MZ1024ECG064_peripherals.a(peripheral.o)
 .text.PLIB_CAN_ModuleEventClear
                0x00000000        0x8 /opt/microchip/harmony/v1_03/bin/framework/peripheral/PIC32MZ1024ECG064_peripherals.a(peripheral.o)
 .text.PLIB_CAN_ModuleEventGet
                0x00000000        0x8 /opt/microchip/harmony/v1_03/bin/framework/peripheral/PIC32MZ1024ECG064_peripherals.a(peripheral.o)
 .text.PLIB_CAN_ExistsModuleEventClear
                0x00000000        0x8 /opt/microchip/harmony/v1_03/bin/framework/peripheral/PIC32MZ1024ECG064_peripherals.a(peripheral.o)
 .text.PLIB_CAN_ChannelEventEnable
                0x00000000        0x8 /opt/microchip/harmony/v1_03/bin/framework/peripheral/PIC32MZ1024ECG064_peripherals.a(peripheral.o)
 .text.PLIB_CAN_ChannelEventDisable
                0x00000000        0x8 /opt/microchip/harmony/v1_03/bin/framework/peripheral/PIC32MZ1024ECG064_peripherals.a(peripheral.o)
 .text.PLIB_CAN_ExistsChannelEventEnable
                0x00000000        0x8 /opt/microchip/harmony/v1_03/bin/framework/peripheral/PIC32MZ1024ECG064_peripherals.a(peripheral.o)
 .text.PLIB_CAN_PendingEventsGet
                0x00000000        0x8 /opt/microchip/harmony/v1_03/bin/framework/peripheral/PIC32MZ1024ECG064_peripherals.a(peripheral.o)
 .text.PLIB_CAN_ExistsPendingEventsGet
                0x00000000        0x8 /opt/microchip/harmony/v1_03/bin/framework/peripheral/PIC32MZ1024ECG064_peripherals.a(peripheral.o)
 .text.PLIB_CAN_AllChannelEventsGet
                0x00000000        0x8 /opt/microchip/harmony/v1_03/bin/framework/peripheral/PIC32MZ1024ECG064_peripherals.a(peripheral.o)
 .text.PLIB_CAN_ExistsAllChannelEvents
                0x00000000        0x8 /opt/microchip/harmony/v1_03/bin/framework/peripheral/PIC32MZ1024ECG064_peripherals.a(peripheral.o)
 .text.PLIB_CAN_AllChannelOverflowStatusGet
                0x00000000        0x8 /opt/microchip/harmony/v1_03/bin/framework/peripheral/PIC32MZ1024ECG064_peripherals.a(peripheral.o)
 .text.PLIB_CAN_ExistsAllChannelOverflow
                0x00000000        0x8 /opt/microchip/harmony/v1_03/bin/framework/peripheral/PIC32MZ1024ECG064_peripherals.a(peripheral.o)
 .text.PLIB_CAN_ChannelEventGet
                0x00000000        0x8 /opt/microchip/harmony/v1_03/bin/framework/peripheral/PIC32MZ1024ECG064_peripherals.a(peripheral.o)
 .text.PLIB_CAN_ChannelEventClear
                0x00000000        0x8 /opt/microchip/harmony/v1_03/bin/framework/peripheral/PIC32MZ1024ECG064_peripherals.a(peripheral.o)
 .text.PLIB_CAN_ExistsChannelEvent
                0x00000000        0x8 /opt/microchip/harmony/v1_03/bin/framework/peripheral/PIC32MZ1024ECG064_peripherals.a(peripheral.o)
 .text.PLIB_CAN_ChannelForTransmitSet
                0x00000000        0x8 /opt/microchip/harmony/v1_03/bin/framework/peripheral/PIC32MZ1024ECG064_peripherals.a(peripheral.o)
 .text.PLIB_CAN_ExistsChannelForTransmitSet
                0x00000000        0x8 /opt/microchip/harmony/v1_03/bin/framework/peripheral/PIC32MZ1024ECG064_peripherals.a(peripheral.o)
 .text.PLIB_CAN_PendingTransmissionsAbort
                0x00000000        0x8 /opt/microchip/harmony/v1_03/bin/framework/peripheral/PIC32MZ1024ECG064_peripherals.a(peripheral.o)
 .text.PLIB_CAN_ExistsPendingTransmissionsAbort
                0x00000000        0x8 /opt/microchip/harmony/v1_03/bin/framework/peripheral/PIC32MZ1024ECG064_peripherals.a(peripheral.o)
 .text.PLIB_CAN_TransmitChannelFlush
                0x00000000        0x8 /opt/microchip/harmony/v1_03/bin/framework/peripheral/PIC32MZ1024ECG064_peripherals.a(peripheral.o)
 .text.PLIB_CAN_ExistsTransmitChannelFlush
                0x00000000        0x8 /opt/microchip/harmony/v1_03/bin/framework/peripheral/PIC32MZ1024ECG064_peripherals.a(peripheral.o)
 .text.PLIB_CAN_TransmitChannelStatusGet
                0x00000000        0x8 /opt/microchip/harmony/v1_03/bin/framework/peripheral/PIC32MZ1024ECG064_peripherals.a(peripheral.o)
 .text.PLIB_CAN_ExistsTransmitChannelStatus
                0x00000000        0x8 /opt/microchip/harmony/v1_03/bin/framework/peripheral/PIC32MZ1024ECG064_peripherals.a(peripheral.o)
 .text.PLIB_CAN_TransmitBufferGet
                0x00000000        0x8 /opt/microchip/harmony/v1_03/bin/framework/peripheral/PIC32MZ1024ECG064_peripherals.a(peripheral.o)
 .text.PLIB_CAN_ExistsTransmitBufferGet
                0x00000000        0x8 /opt/microchip/harmony/v1_03/bin/framework/peripheral/PIC32MZ1024ECG064_peripherals.a(peripheral.o)
 .text.PLIB_CAN_TransmissionIsAborted
                0x00000000        0x8 /opt/microchip/harmony/v1_03/bin/framework/peripheral/PIC32MZ1024ECG064_peripherals.a(peripheral.o)
 .text.PLIB_CAN_ExistsTransmissionIsAborted
                0x00000000        0x8 /opt/microchip/harmony/v1_03/bin/framework/peripheral/PIC32MZ1024ECG064_peripherals.a(peripheral.o)
 .text.PLIB_CAN_ReceivedMessageGet
                0x00000000        0x8 /opt/microchip/harmony/v1_03/bin/framework/peripheral/PIC32MZ1024ECG064_peripherals.a(peripheral.o)
 .text.PLIB_CAN_ExistsReceivedMessageGet
                0x00000000        0x8 /opt/microchip/harmony/v1_03/bin/framework/peripheral/PIC32MZ1024ECG064_peripherals.a(peripheral.o)
 .text.PLIB_CAN_ChannelForReceiveSet
                0x00000000        0x8 /opt/microchip/harmony/v1_03/bin/framework/peripheral/PIC32MZ1024ECG064_peripherals.a(peripheral.o)
 .text.PLIB_CAN_ExistsChannelForReceiveSet
                0x00000000        0x8 /opt/microchip/harmony/v1_03/bin/framework/peripheral/PIC32MZ1024ECG064_peripherals.a(peripheral.o)
 .text.PLIB_CAN_FilterMaskConfigure
                0x00000000        0x8 /opt/microchip/harmony/v1_03/bin/framework/peripheral/PIC32MZ1024ECG064_peripherals.a(peripheral.o)
 .text.PLIB_CAN_ExistsFilterMaskConfigure
                0x00000000        0x8 /opt/microchip/harmony/v1_03/bin/framework/peripheral/PIC32MZ1024ECG064_peripherals.a(peripheral.o)
 .text.PLIB_CAN_FilterConfigure
                0x00000000        0x8 /opt/microchip/harmony/v1_03/bin/framework/peripheral/PIC32MZ1024ECG064_peripherals.a(peripheral.o)
 .text.PLIB_CAN_ExistsFilterConfigure
                0x00000000        0x8 /opt/microchip/harmony/v1_03/bin/framework/peripheral/PIC32MZ1024ECG064_peripherals.a(peripheral.o)
 .text.PLIB_CAN_FilterEnable
                0x00000000        0x8 /opt/microchip/harmony/v1_03/bin/framework/peripheral/PIC32MZ1024ECG064_peripherals.a(peripheral.o)
 .text.PLIB_CAN_FilterDisable
                0x00000000        0x8 /opt/microchip/harmony/v1_03/bin/framework/peripheral/PIC32MZ1024ECG064_peripherals.a(peripheral.o)
 .text.PLIB_CAN_FilterIsDisabled
                0x00000000        0x8 /opt/microchip/harmony/v1_03/bin/framework/peripheral/PIC32MZ1024ECG064_peripherals.a(peripheral.o)
 .text.PLIB_CAN_ExistsFilterEnable
                0x00000000        0x8 /opt/microchip/harmony/v1_03/bin/framework/peripheral/PIC32MZ1024ECG064_peripherals.a(peripheral.o)
 .text.PLIB_CAN_LatestFilterMatchGet
                0x00000000        0x8 /opt/microchip/harmony/v1_03/bin/framework/peripheral/PIC32MZ1024ECG064_peripherals.a(peripheral.o)
 .text.PLIB_CAN_ExistsLatestFilterMatchGet
                0x00000000        0x8 /opt/microchip/harmony/v1_03/bin/framework/peripheral/PIC32MZ1024ECG064_peripherals.a(peripheral.o)
 .text.PLIB_CAN_FilterToChannelLink
                0x00000000        0x8 /opt/microchip/harmony/v1_03/bin/framework/peripheral/PIC32MZ1024ECG064_peripherals.a(peripheral.o)
 .text.PLIB_CAN_ExistsFilterToChannelLink
                0x00000000        0x8 /opt/microchip/harmony/v1_03/bin/framework/peripheral/PIC32MZ1024ECG064_peripherals.a(peripheral.o)
 .text.PLIB_CAN_ReceiveErrorCountGet
                0x00000000        0x8 /opt/microchip/harmony/v1_03/bin/framework/peripheral/PIC32MZ1024ECG064_peripherals.a(peripheral.o)
 .text.PLIB_CAN_ExistsReceiveErrorCount
                0x00000000        0x8 /opt/microchip/harmony/v1_03/bin/framework/peripheral/PIC32MZ1024ECG064_peripherals.a(peripheral.o)
 .text.PLIB_CAN_TransmitErrorCountGet
                0x00000000        0x8 /opt/microchip/harmony/v1_03/bin/framework/peripheral/PIC32MZ1024ECG064_peripherals.a(peripheral.o)
 .text.PLIB_CAN_ExistsTransmitErrorCountGet
                0x00000000        0x8 /opt/microchip/harmony/v1_03/bin/framework/peripheral/PIC32MZ1024ECG064_peripherals.a(peripheral.o)
 .text.PLIB_CAN_ErrorStateGet
                0x00000000        0x8 /opt/microchip/harmony/v1_03/bin/framework/peripheral/PIC32MZ1024ECG064_peripherals.a(peripheral.o)
 .text.PLIB_CAN_ExistsErrorState
                0x00000000        0x8 /opt/microchip/harmony/v1_03/bin/framework/peripheral/PIC32MZ1024ECG064_peripherals.a(peripheral.o)
 .text.PLIB_CAN_TotalChannelsGet
                0x00000000        0x8 /opt/microchip/harmony/v1_03/bin/framework/peripheral/PIC32MZ1024ECG064_peripherals.a(peripheral.o)
 .text.PLIB_CAN_TotalFiltersGet
                0x00000000        0x8 /opt/microchip/harmony/v1_03/bin/framework/peripheral/PIC32MZ1024ECG064_peripherals.a(peripheral.o)
 .text.PLIB_CAN_TotalMasksGet
                0x00000000        0x8 /opt/microchip/harmony/v1_03/bin/framework/peripheral/PIC32MZ1024ECG064_peripherals.a(peripheral.o)
 .text.PLIB_CAN_ExistsModuleInfo
                0x00000000        0x8 /opt/microchip/harmony/v1_03/bin/framework/peripheral/PIC32MZ1024ECG064_peripherals.a(peripheral.o)
 .text.PLIB_CMP_ExistsEnableControl
                0x00000000        0x8 /opt/microchip/harmony/v1_03/bin/framework/peripheral/PIC32MZ1024ECG064_peripherals.a(peripheral.o)
 .text.PLIB_CMP_Enable
                0x00000000       0x18 /opt/microchip/harmony/v1_03/bin/framework/peripheral/PIC32MZ1024ECG064_peripherals.a(peripheral.o)
 .text.PLIB_CMP_Disable
                0x00000000       0x18 /opt/microchip/harmony/v1_03/bin/framework/peripheral/PIC32MZ1024ECG064_peripherals.a(peripheral.o)
 .text.PLIB_CMP_ExistsOutputEnableControl
                0x00000000        0x8 /opt/microchip/harmony/v1_03/bin/framework/peripheral/PIC32MZ1024ECG064_peripherals.a(peripheral.o)
 .text.PLIB_CMP_OutputEnable
                0x00000000       0x18 /opt/microchip/harmony/v1_03/bin/framework/peripheral/PIC32MZ1024ECG064_peripherals.a(peripheral.o)
 .text.PLIB_CMP_OutputDisable
                0x00000000       0x18 /opt/microchip/harmony/v1_03/bin/framework/peripheral/PIC32MZ1024ECG064_peripherals.a(peripheral.o)
 .text.PLIB_CMP_ExistsInvertOutputControl
                0x00000000        0x8 /opt/microchip/harmony/v1_03/bin/framework/peripheral/PIC32MZ1024ECG064_peripherals.a(peripheral.o)
 .text.PLIB_CMP_OutputInvertEnable
                0x00000000       0x18 /opt/microchip/harmony/v1_03/bin/framework/peripheral/PIC32MZ1024ECG064_peripherals.a(peripheral.o)
 .text.PLIB_CMP_OutputInvertDisable
                0x00000000       0x18 /opt/microchip/harmony/v1_03/bin/framework/peripheral/PIC32MZ1024ECG064_peripherals.a(peripheral.o)
 .text.PLIB_CMP_ExistsOutputLevelControl
                0x00000000        0x8 /opt/microchip/harmony/v1_03/bin/framework/peripheral/PIC32MZ1024ECG064_peripherals.a(peripheral.o)
 .text.PLIB_CMP_OutputLogicHigh
                0x00000000       0x18 /opt/microchip/harmony/v1_03/bin/framework/peripheral/PIC32MZ1024ECG064_peripherals.a(peripheral.o)
 .text.PLIB_CMP_OutputLogicLow
                0x00000000       0x18 /opt/microchip/harmony/v1_03/bin/framework/peripheral/PIC32MZ1024ECG064_peripherals.a(peripheral.o)
 .text.PLIB_CMP_ExistsOutputStatusGet
                0x00000000        0x8 /opt/microchip/harmony/v1_03/bin/framework/peripheral/PIC32MZ1024ECG064_peripherals.a(peripheral.o)
 .text.PLIB_CMP_OutputStatusGet
                0x00000000       0x20 /opt/microchip/harmony/v1_03/bin/framework/peripheral/PIC32MZ1024ECG064_peripherals.a(peripheral.o)
 .text.PLIB_CMP_ExistsInterruptEventSelect
                0x00000000        0x8 /opt/microchip/harmony/v1_03/bin/framework/peripheral/PIC32MZ1024ECG064_peripherals.a(peripheral.o)
 .text.PLIB_CMP_InterruptEventSelect
                0x00000000       0x2c /opt/microchip/harmony/v1_03/bin/framework/peripheral/PIC32MZ1024ECG064_peripherals.a(peripheral.o)
 .text.PLIB_CMP_ExistsNonInvertingInputSelect
                0x00000000        0x8 /opt/microchip/harmony/v1_03/bin/framework/peripheral/PIC32MZ1024ECG064_peripherals.a(peripheral.o)
 .text.PLIB_CMP_NonInvertingInputChannelSelect
                0x00000000       0x2c /opt/microchip/harmony/v1_03/bin/framework/peripheral/PIC32MZ1024ECG064_peripherals.a(peripheral.o)
 .text.PLIB_CMP_ExistsInvertingInputSelect
                0x00000000        0x8 /opt/microchip/harmony/v1_03/bin/framework/peripheral/PIC32MZ1024ECG064_peripherals.a(peripheral.o)
 .text.PLIB_CMP_InvertingInputChannelSelect
                0x00000000       0x28 /opt/microchip/harmony/v1_03/bin/framework/peripheral/PIC32MZ1024ECG064_peripherals.a(peripheral.o)
 .text.PLIB_CMP_ExistsStopInIdle
                0x00000000        0x8 /opt/microchip/harmony/v1_03/bin/framework/peripheral/PIC32MZ1024ECG064_peripherals.a(peripheral.o)
 .text.PLIB_CMP_StopInIdleModeEnable
                0x00000000       0x18 /opt/microchip/harmony/v1_03/bin/framework/peripheral/PIC32MZ1024ECG064_peripherals.a(peripheral.o)
 .text.PLIB_CMP_StopInIdleModeDisable
                0x00000000       0x18 /opt/microchip/harmony/v1_03/bin/framework/peripheral/PIC32MZ1024ECG064_peripherals.a(peripheral.o)
 .text.PLIB_CMP_ExistsCVREFEnableControl
                0x00000000        0x8 /opt/microchip/harmony/v1_03/bin/framework/peripheral/PIC32MZ1024ECG064_peripherals.a(peripheral.o)
 .text.PLIB_CMP_CVREF_Enable
                0x00000000       0x18 /opt/microchip/harmony/v1_03/bin/framework/peripheral/PIC32MZ1024ECG064_peripherals.a(peripheral.o)
 .text.PLIB_CMP_CVREF_Disable
                0x00000000       0x18 /opt/microchip/harmony/v1_03/bin/framework/peripheral/PIC32MZ1024ECG064_peripherals.a(peripheral.o)
 .text.PLIB_CMP_ExistsCVREFOutputEnableControl
                0x00000000        0x8 /opt/microchip/harmony/v1_03/bin/framework/peripheral/PIC32MZ1024ECG064_peripherals.a(peripheral.o)
 .text.PLIB_CMP_CVREF_OutputEnable
                0x00000000       0x18 /opt/microchip/harmony/v1_03/bin/framework/peripheral/PIC32MZ1024ECG064_peripherals.a(peripheral.o)
 .text.PLIB_CMP_CVREF_OutputDisable
                0x00000000       0x18 /opt/microchip/harmony/v1_03/bin/framework/peripheral/PIC32MZ1024ECG064_peripherals.a(peripheral.o)
 .text.PLIB_CMP_ExistsCVREFWideRangeControl
                0x00000000        0x8 /opt/microchip/harmony/v1_03/bin/framework/peripheral/PIC32MZ1024ECG064_peripherals.a(peripheral.o)
 .text.PLIB_CMP_CVREF_WideRangeEnable
                0x00000000       0x18 /opt/microchip/harmony/v1_03/bin/framework/peripheral/PIC32MZ1024ECG064_peripherals.a(peripheral.o)
 .text.PLIB_CMP_CVREF_WideRangeDisable
                0x00000000       0x18 /opt/microchip/harmony/v1_03/bin/framework/peripheral/PIC32MZ1024ECG064_peripherals.a(peripheral.o)
 .text.PLIB_CMP_CVREF_WideRangeIsEnabled
                0x00000000       0x20 /opt/microchip/harmony/v1_03/bin/framework/peripheral/PIC32MZ1024ECG064_peripherals.a(peripheral.o)
 .text.PLIB_CMP_ExistsCVREFVoltageRangeSelect
                0x00000000        0x8 /opt/microchip/harmony/v1_03/bin/framework/peripheral/PIC32MZ1024ECG064_peripherals.a(peripheral.o)
 .text.PLIB_CMP_CVREF_SourceVoltageSelect
                0x00000000       0x2c /opt/microchip/harmony/v1_03/bin/framework/peripheral/PIC32MZ1024ECG064_peripherals.a(peripheral.o)
 .text.PLIB_CMP_ExistsCVREFRefVoltageRangeSelect
                0x00000000        0x8 /opt/microchip/harmony/v1_03/bin/framework/peripheral/PIC32MZ1024ECG064_peripherals.a(peripheral.o)
 .text.PLIB_CMP_CVREF_ReferenceVoltageSelect
                0x00000000        0x8 /opt/microchip/harmony/v1_03/bin/framework/peripheral/PIC32MZ1024ECG064_peripherals.a(peripheral.o)
 .text.PLIB_CMP_ExistsCVREFBGRefVoltageRangeSelect
                0x00000000        0x8 /opt/microchip/harmony/v1_03/bin/framework/peripheral/PIC32MZ1024ECG064_peripherals.a(peripheral.o)
 .text.PLIB_CMP_CVREF_BandGapReferenceSourceSelect
                0x00000000        0x8 /opt/microchip/harmony/v1_03/bin/framework/peripheral/PIC32MZ1024ECG064_peripherals.a(peripheral.o)
 .text.PLIB_CMP_ExistsCVREFValueSelect
                0x00000000        0x8 /opt/microchip/harmony/v1_03/bin/framework/peripheral/PIC32MZ1024ECG064_peripherals.a(peripheral.o)
 .text.PLIB_CMP_CVREF_ValueSelect
                0x00000000       0x28 /opt/microchip/harmony/v1_03/bin/framework/peripheral/PIC32MZ1024ECG064_peripherals.a(peripheral.o)
 .text.PLIB_DEVCON_AlternateClockEnable
                0x00000000       0x54 /opt/microchip/harmony/v1_03/bin/framework/peripheral/PIC32MZ1024ECG064_peripherals.a(peripheral.o)
 .text.PLIB_DEVCON_AlternateClockDisable
                0x00000000       0x54 /opt/microchip/harmony/v1_03/bin/framework/peripheral/PIC32MZ1024ECG064_peripherals.a(peripheral.o)
 .text.PLIB_DEVCON_ExistsAlternateClock
                0x00000000        0x8 /opt/microchip/harmony/v1_03/bin/framework/peripheral/PIC32MZ1024ECG064_peripherals.a(peripheral.o)
 .text.PLIB_DEVCON_DeviceRegistersLock
                0x00000000       0x90 /opt/microchip/harmony/v1_03/bin/framework/peripheral/PIC32MZ1024ECG064_peripherals.a(peripheral.o)
 .text.PLIB_DEVCON_DeviceRegistersUnlock
                0x00000000       0x90 /opt/microchip/harmony/v1_03/bin/framework/peripheral/PIC32MZ1024ECG064_peripherals.a(peripheral.o)
 .text.PLIB_DEVCON_ExistsDeviceRegsLockUnlock
                0x00000000        0x8 /opt/microchip/harmony/v1_03/bin/framework/peripheral/PIC32MZ1024ECG064_peripherals.a(peripheral.o)
 .text.PLIB_DEVCON_USBPHYSleepModeSet
                0x00000000       0x2c /opt/microchip/harmony/v1_03/bin/framework/peripheral/PIC32MZ1024ECG064_peripherals.a(peripheral.o)
 .text.PLIB_DEVCON_ExistsUSB_PHY_SleepModeSet
                0x00000000        0x8 /opt/microchip/harmony/v1_03/bin/framework/peripheral/PIC32MZ1024ECG064_peripherals.a(peripheral.o)
 .text.PLIB_DEVCON_FlashErrCorrectionModeSet
                0x00000000       0x2c /opt/microchip/harmony/v1_03/bin/framework/peripheral/PIC32MZ1024ECG064_peripherals.a(peripheral.o)
 .text.PLIB_DEVCON_ExistsECCModes
                0x00000000        0x8 /opt/microchip/harmony/v1_03/bin/framework/peripheral/PIC32MZ1024ECG064_peripherals.a(peripheral.o)
 .text.PLIB_DEVCON_JTAGPortEnable
                0x00000000       0x1c /opt/microchip/harmony/v1_03/bin/framework/peripheral/PIC32MZ1024ECG064_peripherals.a(peripheral.o)
 .text.PLIB_DEVCON_JTAGPortDisable
                0x00000000       0x20 /opt/microchip/harmony/v1_03/bin/framework/peripheral/PIC32MZ1024ECG064_peripherals.a(peripheral.o)
 .text.PLIB_DEVCON_ExistsJTAGEnable
                0x00000000        0x8 /opt/microchip/harmony/v1_03/bin/framework/peripheral/PIC32MZ1024ECG064_peripherals.a(peripheral.o)
 .text.PLIB_DEVCON_TraceOutputEnable
                0x00000000       0x18 /opt/microchip/harmony/v1_03/bin/framework/peripheral/PIC32MZ1024ECG064_peripherals.a(peripheral.o)
 .text.PLIB_DEVCON_TraceOutputDisable
                0x00000000       0x18 /opt/microchip/harmony/v1_03/bin/framework/peripheral/PIC32MZ1024ECG064_peripherals.a(peripheral.o)
 .text.PLIB_DEVCON_ExistsTraceOutput
                0x00000000        0x8 /opt/microchip/harmony/v1_03/bin/framework/peripheral/PIC32MZ1024ECG064_peripherals.a(peripheral.o)
 .text.PLIB_DEVCON_2WireJTAGEnableTDO
                0x00000000       0x18 /opt/microchip/harmony/v1_03/bin/framework/peripheral/PIC32MZ1024ECG064_peripherals.a(peripheral.o)
 .text.PLIB_DEVCON_2WireJTAGDisableTDO
                0x00000000       0x18 /opt/microchip/harmony/v1_03/bin/framework/peripheral/PIC32MZ1024ECG064_peripherals.a(peripheral.o)
 .text.PLIB_DEVCON_ExistsJTAGUsesTDO
                0x00000000        0x8 /opt/microchip/harmony/v1_03/bin/framework/peripheral/PIC32MZ1024ECG064_peripherals.a(peripheral.o)
 .text.PLIB_DEVCON_IgnoreDebugFreezeEnable
                0x00000000        0x8 /opt/microchip/harmony/v1_03/bin/framework/peripheral/PIC32MZ1024ECG064_peripherals.a(peripheral.o)
 .text.PLIB_DEVCON_IgnoreDebugFreezeDisable
                0x00000000        0x8 /opt/microchip/harmony/v1_03/bin/framework/peripheral/PIC32MZ1024ECG064_peripherals.a(peripheral.o)
 .text.PLIB_DEVCON_ExistsIgnoreDebugFreeze
                0x00000000        0x8 /opt/microchip/harmony/v1_03/bin/framework/peripheral/PIC32MZ1024ECG064_peripherals.a(peripheral.o)
 .text.PLIB_DEVCON_DeviceVersionGet
                0x00000000       0x20 /opt/microchip/harmony/v1_03/bin/framework/peripheral/PIC32MZ1024ECG064_peripherals.a(peripheral.o)
 .text.PLIB_DEVCON_DeviceIdGet
                0x00000000       0x20 /opt/microchip/harmony/v1_03/bin/framework/peripheral/PIC32MZ1024ECG064_peripherals.a(peripheral.o)
 .text.PLIB_DEVCON_ExistsDeviceVerAndId
                0x00000000        0x8 /opt/microchip/harmony/v1_03/bin/framework/peripheral/PIC32MZ1024ECG064_peripherals.a(peripheral.o)
 .text.PLIB_DEVCON_ExistsSystemLockUnlock
                0x00000000        0x8 /opt/microchip/harmony/v1_03/bin/framework/peripheral/PIC32MZ1024ECG064_peripherals.a(peripheral.o)
 .text.PLIB_DMA_ExistsBusy
                0x00000000        0x8 /opt/microchip/harmony/v1_03/bin/framework/peripheral/PIC32MZ1024ECG064_peripherals.a(peripheral.o)
 .text.PLIB_DMA_BusyActiveSet
                0x00000000       0x18 /opt/microchip/harmony/v1_03/bin/framework/peripheral/PIC32MZ1024ECG064_peripherals.a(peripheral.o)
 .text.PLIB_DMA_BusyActiveReset
                0x00000000       0x18 /opt/microchip/harmony/v1_03/bin/framework/peripheral/PIC32MZ1024ECG064_peripherals.a(peripheral.o)
 .text.PLIB_DMA_IsBusy
                0x00000000       0x20 /opt/microchip/harmony/v1_03/bin/framework/peripheral/PIC32MZ1024ECG064_peripherals.a(peripheral.o)
 .text.PLIB_DMA_ExistsSuspend
                0x00000000        0x8 /opt/microchip/harmony/v1_03/bin/framework/peripheral/PIC32MZ1024ECG064_peripherals.a(peripheral.o)
 .text.PLIB_DMA_SuspendEnable
                0x00000000       0x18 /opt/microchip/harmony/v1_03/bin/framework/peripheral/PIC32MZ1024ECG064_peripherals.a(peripheral.o)
 .text.PLIB_DMA_SuspendDisable
                0x00000000       0x18 /opt/microchip/harmony/v1_03/bin/framework/peripheral/PIC32MZ1024ECG064_peripherals.a(peripheral.o)
 .text.PLIB_DMA_SuspendIsEnabled
                0x00000000       0x20 /opt/microchip/harmony/v1_03/bin/framework/peripheral/PIC32MZ1024ECG064_peripherals.a(peripheral.o)
 .text.PLIB_DMA_ExistsStopInIdle
                0x00000000        0x8 /opt/microchip/harmony/v1_03/bin/framework/peripheral/PIC32MZ1024ECG064_peripherals.a(peripheral.o)
 .text.PLIB_DMA_StopInIdleEnable
                0x00000000        0x8 /opt/microchip/harmony/v1_03/bin/framework/peripheral/PIC32MZ1024ECG064_peripherals.a(peripheral.o)
 .text.PLIB_DMA_StopInIdleDisable
                0x00000000        0x8 /opt/microchip/harmony/v1_03/bin/framework/peripheral/PIC32MZ1024ECG064_peripherals.a(peripheral.o)
 .text.PLIB_DMA_ExistsEnableControl
                0x00000000        0x8 /opt/microchip/harmony/v1_03/bin/framework/peripheral/PIC32MZ1024ECG064_peripherals.a(peripheral.o)
 .text.PLIB_DMA_IsEnabled
                0x00000000       0x20 /opt/microchip/harmony/v1_03/bin/framework/peripheral/PIC32MZ1024ECG064_peripherals.a(peripheral.o)
 .text.PLIB_DMA_ExistsChannelBits
                0x00000000        0x8 /opt/microchip/harmony/v1_03/bin/framework/peripheral/PIC32MZ1024ECG064_peripherals.a(peripheral.o)
 .text.PLIB_DMA_ChannelBitsGet
                0x00000000       0x20 /opt/microchip/harmony/v1_03/bin/framework/peripheral/PIC32MZ1024ECG064_peripherals.a(peripheral.o)
 .text.PLIB_DMA_ExistsLastBusAccess
                0x00000000        0x8 /opt/microchip/harmony/v1_03/bin/framework/peripheral/PIC32MZ1024ECG064_peripherals.a(peripheral.o)
 .text.PLIB_DMA_LastBusAccessIsRead
                0x00000000       0x20 /opt/microchip/harmony/v1_03/bin/framework/peripheral/PIC32MZ1024ECG064_peripherals.a(peripheral.o)
 .text.PLIB_DMA_LastBusAccessIsWrite
                0x00000000       0x28 /opt/microchip/harmony/v1_03/bin/framework/peripheral/PIC32MZ1024ECG064_peripherals.a(peripheral.o)
 .text.PLIB_DMA_ExistsRecentAddress
                0x00000000        0x8 /opt/microchip/harmony/v1_03/bin/framework/peripheral/PIC32MZ1024ECG064_peripherals.a(peripheral.o)
 .text.PLIB_DMA_RecentAddressAccessed
                0x00000000       0x24 /opt/microchip/harmony/v1_03/bin/framework/peripheral/PIC32MZ1024ECG064_peripherals.a(peripheral.o)
 .text.PLIB_DMA_ExistsCRCChannel
                0x00000000        0x8 /opt/microchip/harmony/v1_03/bin/framework/peripheral/PIC32MZ1024ECG064_peripherals.a(peripheral.o)
 .text.PLIB_DMA_CRCChannelSelect
                0x00000000       0x28 /opt/microchip/harmony/v1_03/bin/framework/peripheral/PIC32MZ1024ECG064_peripherals.a(peripheral.o)
 .text.PLIB_DMA_CRCChannelGet
                0x00000000       0x20 /opt/microchip/harmony/v1_03/bin/framework/peripheral/PIC32MZ1024ECG064_peripherals.a(peripheral.o)
 .text.PLIB_DMA_ExistsCRCType
                0x00000000        0x8 /opt/microchip/harmony/v1_03/bin/framework/peripheral/PIC32MZ1024ECG064_peripherals.a(peripheral.o)
 .text.PLIB_DMA_CRCTypeGet
                0x00000000       0x20 /opt/microchip/harmony/v1_03/bin/framework/peripheral/PIC32MZ1024ECG064_peripherals.a(peripheral.o)
 .text.PLIB_DMA_CRCTypeSet
                0x00000000       0x2c /opt/microchip/harmony/v1_03/bin/framework/peripheral/PIC32MZ1024ECG064_peripherals.a(peripheral.o)
 .text.PLIB_DMA_ExistsCRCAppendMode
                0x00000000        0x8 /opt/microchip/harmony/v1_03/bin/framework/peripheral/PIC32MZ1024ECG064_peripherals.a(peripheral.o)
 .text.PLIB_DMA_CRCAppendModeEnable
                0x00000000       0x18 /opt/microchip/harmony/v1_03/bin/framework/peripheral/PIC32MZ1024ECG064_peripherals.a(peripheral.o)
 .text.PLIB_DMA_CRCAppendModeDisable
                0x00000000       0x18 /opt/microchip/harmony/v1_03/bin/framework/peripheral/PIC32MZ1024ECG064_peripherals.a(peripheral.o)
 .text.PLIB_DMA_CRCAppendModeIsEnabled
                0x00000000       0x20 /opt/microchip/harmony/v1_03/bin/framework/peripheral/PIC32MZ1024ECG064_peripherals.a(peripheral.o)
 .text.PLIB_DMA_ExistsCRC
                0x00000000        0x8 /opt/microchip/harmony/v1_03/bin/framework/peripheral/PIC32MZ1024ECG064_peripherals.a(peripheral.o)
 .text.PLIB_DMA_CRCEnable
                0x00000000       0x18 /opt/microchip/harmony/v1_03/bin/framework/peripheral/PIC32MZ1024ECG064_peripherals.a(peripheral.o)
 .text.PLIB_DMA_CRCDisable
                0x00000000       0x18 /opt/microchip/harmony/v1_03/bin/framework/peripheral/PIC32MZ1024ECG064_peripherals.a(peripheral.o)
 .text.PLIB_DMA_CRCIsEnabled
                0x00000000       0x20 /opt/microchip/harmony/v1_03/bin/framework/peripheral/PIC32MZ1024ECG064_peripherals.a(peripheral.o)
 .text.PLIB_DMA_ExistsCRCPolynomialLength
                0x00000000        0x8 /opt/microchip/harmony/v1_03/bin/framework/peripheral/PIC32MZ1024ECG064_peripherals.a(peripheral.o)
 .text.PLIB_DMA_CRCPolynomialLengthSet
                0x00000000       0x30 /opt/microchip/harmony/v1_03/bin/framework/peripheral/PIC32MZ1024ECG064_peripherals.a(peripheral.o)
 .text.PLIB_DMA_CRCPolynomialLengthGet
                0x00000000       0x20 /opt/microchip/harmony/v1_03/bin/framework/peripheral/PIC32MZ1024ECG064_peripherals.a(peripheral.o)
 .text.PLIB_DMA_ExistsCRCBitOrder
                0x00000000        0x8 /opt/microchip/harmony/v1_03/bin/framework/peripheral/PIC32MZ1024ECG064_peripherals.a(peripheral.o)
 .text.PLIB_DMA_CRCBitOrderSelect
                0x00000000       0x30 /opt/microchip/harmony/v1_03/bin/framework/peripheral/PIC32MZ1024ECG064_peripherals.a(peripheral.o)
 .text.PLIB_DMA_ExistsCRCWriteByteOrder
                0x00000000        0x8 /opt/microchip/harmony/v1_03/bin/framework/peripheral/PIC32MZ1024ECG064_peripherals.a(peripheral.o)
 .text.PLIB_DMA_CRCWriteByteOrderAlter
                0x00000000       0x18 /opt/microchip/harmony/v1_03/bin/framework/peripheral/PIC32MZ1024ECG064_peripherals.a(peripheral.o)
 .text.PLIB_DMA_CRCWriteByteOrderMaintain
                0x00000000       0x18 /opt/microchip/harmony/v1_03/bin/framework/peripheral/PIC32MZ1024ECG064_peripherals.a(peripheral.o)
 .text.PLIB_DMA_ExistsCRCByteOrder
                0x00000000        0x8 /opt/microchip/harmony/v1_03/bin/framework/peripheral/PIC32MZ1024ECG064_peripherals.a(peripheral.o)
 .text.PLIB_DMA_CRCByteOrderSelect
                0x00000000       0x34 /opt/microchip/harmony/v1_03/bin/framework/peripheral/PIC32MZ1024ECG064_peripherals.a(peripheral.o)
 .text.PLIB_DMA_CRCByteOrderGet
                0x00000000       0x20 /opt/microchip/harmony/v1_03/bin/framework/peripheral/PIC32MZ1024ECG064_peripherals.a(peripheral.o)
 .text.PLIB_DMA_ExistsCRCData
                0x00000000        0x8 /opt/microchip/harmony/v1_03/bin/framework/peripheral/PIC32MZ1024ECG064_peripherals.a(peripheral.o)
 .text.PLIB_DMA_CRCDataRead
                0x00000000       0x18 /opt/microchip/harmony/v1_03/bin/framework/peripheral/PIC32MZ1024ECG064_peripherals.a(peripheral.o)
 .text.PLIB_DMA_CRCDataWrite
                0x00000000       0x14 /opt/microchip/harmony/v1_03/bin/framework/peripheral/PIC32MZ1024ECG064_peripherals.a(peripheral.o)
 .text.PLIB_DMA_ExistsCRCXOREnable
                0x00000000        0x8 /opt/microchip/harmony/v1_03/bin/framework/peripheral/PIC32MZ1024ECG064_peripherals.a(peripheral.o)
 .text.PLIB_DMA_CRCXOREnableSet
                0x00000000       0x14 /opt/microchip/harmony/v1_03/bin/framework/peripheral/PIC32MZ1024ECG064_peripherals.a(peripheral.o)
 .text.PLIB_DMA_CRCXOREnableGet
                0x00000000       0x18 /opt/microchip/harmony/v1_03/bin/framework/peripheral/PIC32MZ1024ECG064_peripherals.a(peripheral.o)
 .text.PLIB_DMA_ExistsChannelXPriority
                0x00000000        0x8 /opt/microchip/harmony/v1_03/bin/framework/peripheral/PIC32MZ1024ECG064_peripherals.a(peripheral.o)
 .text.PLIB_DMA_ChannelXPriorityGet
                0x00000000       0x30 /opt/microchip/harmony/v1_03/bin/framework/peripheral/PIC32MZ1024ECG064_peripherals.a(peripheral.o)
 .text.PLIB_DMA_ExistsChannelXEvent
                0x00000000        0x8 /opt/microchip/harmony/v1_03/bin/framework/peripheral/PIC32MZ1024ECG064_peripherals.a(peripheral.o)
 .text.PLIB_DMA_ChannelXEventIsDetected
                0x00000000       0x30 /opt/microchip/harmony/v1_03/bin/framework/peripheral/PIC32MZ1024ECG064_peripherals.a(peripheral.o)
 .text.PLIB_DMA_ExistsChannelXAuto
                0x00000000        0x8 /opt/microchip/harmony/v1_03/bin/framework/peripheral/PIC32MZ1024ECG064_peripherals.a(peripheral.o)
 .text.PLIB_DMA_ChannelXAutoEnable
                0x00000000       0x30 /opt/microchip/harmony/v1_03/bin/framework/peripheral/PIC32MZ1024ECG064_peripherals.a(peripheral.o)
 .text.PLIB_DMA_ChannelXAutoDisable
                0x00000000       0x30 /opt/microchip/harmony/v1_03/bin/framework/peripheral/PIC32MZ1024ECG064_peripherals.a(peripheral.o)
 .text.PLIB_DMA_ChannelXAutoIsEnabled
                0x00000000       0x30 /opt/microchip/harmony/v1_03/bin/framework/peripheral/PIC32MZ1024ECG064_peripherals.a(peripheral.o)
 .text.PLIB_DMA_ExistsChannelXChainEnbl
                0x00000000        0x8 /opt/microchip/harmony/v1_03/bin/framework/peripheral/PIC32MZ1024ECG064_peripherals.a(peripheral.o)
 .text.PLIB_DMA_ChannelXChainEnable
                0x00000000       0x30 /opt/microchip/harmony/v1_03/bin/framework/peripheral/PIC32MZ1024ECG064_peripherals.a(peripheral.o)
 .text.PLIB_DMA_ChannelXChainDisable
                0x00000000       0x30 /opt/microchip/harmony/v1_03/bin/framework/peripheral/PIC32MZ1024ECG064_peripherals.a(peripheral.o)
 .text.PLIB_DMA_ChannelXChainIsEnabled
                0x00000000       0x30 /opt/microchip/harmony/v1_03/bin/framework/peripheral/PIC32MZ1024ECG064_peripherals.a(peripheral.o)
 .text.PLIB_DMA_ExistsChannelXDisabled
                0x00000000        0x8 /opt/microchip/harmony/v1_03/bin/framework/peripheral/PIC32MZ1024ECG064_peripherals.a(peripheral.o)
 .text.PLIB_DMA_ChannelXDisabledEnablesEvents
                0x00000000       0x30 /opt/microchip/harmony/v1_03/bin/framework/peripheral/PIC32MZ1024ECG064_peripherals.a(peripheral.o)
 .text.PLIB_DMA_ChannelXDisabledDisablesEvents
                0x00000000       0x30 /opt/microchip/harmony/v1_03/bin/framework/peripheral/PIC32MZ1024ECG064_peripherals.a(peripheral.o)
 .text.PLIB_DMA_ExistsChannelX
                0x00000000        0x8 /opt/microchip/harmony/v1_03/bin/framework/peripheral/PIC32MZ1024ECG064_peripherals.a(peripheral.o)
 .text.PLIB_DMA_ChannelXEnable
                0x00000000       0x30 /opt/microchip/harmony/v1_03/bin/framework/peripheral/PIC32MZ1024ECG064_peripherals.a(peripheral.o)
 .text.PLIB_DMA_ChannelXIsEnabled
                0x00000000       0x30 /opt/microchip/harmony/v1_03/bin/framework/peripheral/PIC32MZ1024ECG064_peripherals.a(peripheral.o)
 .text.PLIB_DMA_ChannelXDisable
                0x00000000       0x30 /opt/microchip/harmony/v1_03/bin/framework/peripheral/PIC32MZ1024ECG064_peripherals.a(peripheral.o)
 .text.PLIB_DMA_ExistsChannelXChain
                0x00000000        0x8 /opt/microchip/harmony/v1_03/bin/framework/peripheral/PIC32MZ1024ECG064_peripherals.a(peripheral.o)
 .text.PLIB_DMA_ChannelXChainToLower
                0x00000000       0x30 /opt/microchip/harmony/v1_03/bin/framework/peripheral/PIC32MZ1024ECG064_peripherals.a(peripheral.o)
 .text.PLIB_DMA_ChannelXChainToHigher
                0x00000000       0x30 /opt/microchip/harmony/v1_03/bin/framework/peripheral/PIC32MZ1024ECG064_peripherals.a(peripheral.o)
 .text.PLIB_DMA_ExistsChannelXPatternLength
                0x00000000        0x8 /opt/microchip/harmony/v1_03/bin/framework/peripheral/PIC32MZ1024ECG064_peripherals.a(peripheral.o)
 .text.PLIB_DMA_ChannelXPatternLengthSet
                0x00000000       0x6c /opt/microchip/harmony/v1_03/bin/framework/peripheral/PIC32MZ1024ECG064_peripherals.a(peripheral.o)
 .text.PLIB_DMA_ChannelXPatternLengthGet
                0x00000000       0x30 /opt/microchip/harmony/v1_03/bin/framework/peripheral/PIC32MZ1024ECG064_peripherals.a(peripheral.o)
 .text.PLIB_DMA_ExistsChannelXPatternIgnoreByte
                0x00000000        0x8 /opt/microchip/harmony/v1_03/bin/framework/peripheral/PIC32MZ1024ECG064_peripherals.a(peripheral.o)
 .text.PLIB_DMA_ChannelXPatternIgnoreByteEnable
                0x00000000       0x30 /opt/microchip/harmony/v1_03/bin/framework/peripheral/PIC32MZ1024ECG064_peripherals.a(peripheral.o)
 .text.PLIB_DMA_ChannelXPatternIgnoreByteIsEnabled
                0x00000000       0x30 /opt/microchip/harmony/v1_03/bin/framework/peripheral/PIC32MZ1024ECG064_peripherals.a(peripheral.o)
 .text.PLIB_DMA_ChannelXPatternIgnoreByteDisable
                0x00000000       0x30 /opt/microchip/harmony/v1_03/bin/framework/peripheral/PIC32MZ1024ECG064_peripherals.a(peripheral.o)
 .text.PLIB_DMA_ExistsChannelXBusy
                0x00000000        0x8 /opt/microchip/harmony/v1_03/bin/framework/peripheral/PIC32MZ1024ECG064_peripherals.a(peripheral.o)
 .text.PLIB_DMA_ChannelXBusyActiveSet
                0x00000000       0x30 /opt/microchip/harmony/v1_03/bin/framework/peripheral/PIC32MZ1024ECG064_peripherals.a(peripheral.o)
 .text.PLIB_DMA_ChannelXBusyInActiveSet
                0x00000000       0x30 /opt/microchip/harmony/v1_03/bin/framework/peripheral/PIC32MZ1024ECG064_peripherals.a(peripheral.o)
 .text.PLIB_DMA_ChannelXBusyIsBusy
                0x00000000       0x30 /opt/microchip/harmony/v1_03/bin/framework/peripheral/PIC32MZ1024ECG064_peripherals.a(peripheral.o)
 .text.PLIB_DMA_ExistsChannelXPatternIgnore
                0x00000000        0x8 /opt/microchip/harmony/v1_03/bin/framework/peripheral/PIC32MZ1024ECG064_peripherals.a(peripheral.o)
 .text.PLIB_DMA_ChannelXPatternIgnoreSet
                0x00000000       0x3c /opt/microchip/harmony/v1_03/bin/framework/peripheral/PIC32MZ1024ECG064_peripherals.a(peripheral.o)
 .text.PLIB_DMA_ChannelXPatternIgnoreGet
                0x00000000       0x30 /opt/microchip/harmony/v1_03/bin/framework/peripheral/PIC32MZ1024ECG064_peripherals.a(peripheral.o)
 .text.PLIB_DMA_ExistsChannelXTrigger
                0x00000000        0x8 /opt/microchip/harmony/v1_03/bin/framework/peripheral/PIC32MZ1024ECG064_peripherals.a(peripheral.o)
 .text.PLIB_DMA_ChannelXTriggerIsEnabled
                0x00000000       0x88 /opt/microchip/harmony/v1_03/bin/framework/peripheral/PIC32MZ1024ECG064_peripherals.a(peripheral.o)
 .text.PLIB_DMA_ChannelXTriggerDisable
                0x00000000       0xa0 /opt/microchip/harmony/v1_03/bin/framework/peripheral/PIC32MZ1024ECG064_peripherals.a(peripheral.o)
 .text.PLIB_DMA_ChannelXTriggerSourceNumberGet
                0x00000000       0x18 /opt/microchip/harmony/v1_03/bin/framework/peripheral/PIC32MZ1024ECG064_peripherals.a(peripheral.o)
 .text.PLIB_DMA_ExistsAbortTransfer
                0x00000000        0x8 /opt/microchip/harmony/v1_03/bin/framework/peripheral/PIC32MZ1024ECG064_peripherals.a(peripheral.o)
 .text.PLIB_DMA_AbortTransferSet
                0x00000000       0x30 /opt/microchip/harmony/v1_03/bin/framework/peripheral/PIC32MZ1024ECG064_peripherals.a(peripheral.o)
 .text.PLIB_DMA_ExistsStartTransfer
                0x00000000        0x8 /opt/microchip/harmony/v1_03/bin/framework/peripheral/PIC32MZ1024ECG064_peripherals.a(peripheral.o)
 .text.PLIB_DMA_StartTransferSet
                0x00000000       0x30 /opt/microchip/harmony/v1_03/bin/framework/peripheral/PIC32MZ1024ECG064_peripherals.a(peripheral.o)
 .text.PLIB_DMA_ExistsChannelXStartIRQ
                0x00000000        0x8 /opt/microchip/harmony/v1_03/bin/framework/peripheral/PIC32MZ1024ECG064_peripherals.a(peripheral.o)
 .text.PLIB_DMA_ExistsChannelXAbortIRQ
                0x00000000        0x8 /opt/microchip/harmony/v1_03/bin/framework/peripheral/PIC32MZ1024ECG064_peripherals.a(peripheral.o)
 .text.PLIB_DMA_ChannelXAbortIRQSet
                0x00000000       0x48 /opt/microchip/harmony/v1_03/bin/framework/peripheral/PIC32MZ1024ECG064_peripherals.a(peripheral.o)
 .text.PLIB_DMA_ExistsChannelXINTSourceFlag
                0x00000000        0x8 /opt/microchip/harmony/v1_03/bin/framework/peripheral/PIC32MZ1024ECG064_peripherals.a(peripheral.o)
 .text.PLIB_DMA_ChannelXINTSourceFlagGet
                0x00000000      0x178 /opt/microchip/harmony/v1_03/bin/framework/peripheral/PIC32MZ1024ECG064_peripherals.a(peripheral.o)
 .text.PLIB_DMA_ChannelXINTSourceFlagSet
                0x00000000      0x1c0 /opt/microchip/harmony/v1_03/bin/framework/peripheral/PIC32MZ1024ECG064_peripherals.a(peripheral.o)
 .text.PLIB_DMA_ChannelXINTSourceFlagClear
                0x00000000      0x1c0 /opt/microchip/harmony/v1_03/bin/framework/peripheral/PIC32MZ1024ECG064_peripherals.a(peripheral.o)
 .text.PLIB_DMA_ExistsChannelXINTSource
                0x00000000        0x8 /opt/microchip/harmony/v1_03/bin/framework/peripheral/PIC32MZ1024ECG064_peripherals.a(peripheral.o)
 .text.PLIB_DMA_ChannelXINTSourceEnable
                0x00000000      0x1c0 /opt/microchip/harmony/v1_03/bin/framework/peripheral/PIC32MZ1024ECG064_peripherals.a(peripheral.o)
 .text.PLIB_DMA_ChannelXINTSourceDisable
                0x00000000      0x1c0 /opt/microchip/harmony/v1_03/bin/framework/peripheral/PIC32MZ1024ECG064_peripherals.a(peripheral.o)
 .text.PLIB_DMA_ChannelXINTSourceIsEnabled
                0x00000000      0x178 /opt/microchip/harmony/v1_03/bin/framework/peripheral/PIC32MZ1024ECG064_peripherals.a(peripheral.o)
 .text.PLIB_DMA_ExistsChannelXSourceStartAddress
                0x00000000        0x8 /opt/microchip/harmony/v1_03/bin/framework/peripheral/PIC32MZ1024ECG064_peripherals.a(peripheral.o)
 .text.PLIB_DMA_ChannelXSourceStartAddressGet
                0x00000000       0x70 /opt/microchip/harmony/v1_03/bin/framework/peripheral/PIC32MZ1024ECG064_peripherals.a(peripheral.o)
 .text.PLIB_DMA_ExistsChannelXDestinationStartAddress
                0x00000000        0x8 /opt/microchip/harmony/v1_03/bin/framework/peripheral/PIC32MZ1024ECG064_peripherals.a(peripheral.o)
 .text.PLIB_DMA_ChannelXDestinationStartAddressGet
                0x00000000       0x70 /opt/microchip/harmony/v1_03/bin/framework/peripheral/PIC32MZ1024ECG064_peripherals.a(peripheral.o)
 .text.PLIB_DMA_ChannelXDestinationStartAddressSet
                0x00000000       0xac /opt/microchip/harmony/v1_03/bin/framework/peripheral/PIC32MZ1024ECG064_peripherals.a(peripheral.o)
 .text.PLIB_DMA_ExistsChannelXSourceSize
                0x00000000        0x8 /opt/microchip/harmony/v1_03/bin/framework/peripheral/PIC32MZ1024ECG064_peripherals.a(peripheral.o)
 .text.PLIB_DMA_ChannelXSourceSizeGet
                0x00000000       0x30 /opt/microchip/harmony/v1_03/bin/framework/peripheral/PIC32MZ1024ECG064_peripherals.a(peripheral.o)
 .text.PLIB_DMA_ExistsChannelXDestinationSize
                0x00000000        0x8 /opt/microchip/harmony/v1_03/bin/framework/peripheral/PIC32MZ1024ECG064_peripherals.a(peripheral.o)
 .text.PLIB_DMA_ChannelXDestinationSizeGet
                0x00000000       0x30 /opt/microchip/harmony/v1_03/bin/framework/peripheral/PIC32MZ1024ECG064_peripherals.a(peripheral.o)
 .text.PLIB_DMA_ExistsChannelXSourcePointer
                0x00000000        0x8 /opt/microchip/harmony/v1_03/bin/framework/peripheral/PIC32MZ1024ECG064_peripherals.a(peripheral.o)
 .text.PLIB_DMA_ChannelXSourcePointerGet
                0x00000000       0x30 /opt/microchip/harmony/v1_03/bin/framework/peripheral/PIC32MZ1024ECG064_peripherals.a(peripheral.o)
 .text.PLIB_DMA_ExistsChannelXDestinationPointer
                0x00000000        0x8 /opt/microchip/harmony/v1_03/bin/framework/peripheral/PIC32MZ1024ECG064_peripherals.a(peripheral.o)
 .text.PLIB_DMA_ChannelXDestinationPointerGet
                0x00000000       0x30 /opt/microchip/harmony/v1_03/bin/framework/peripheral/PIC32MZ1024ECG064_peripherals.a(peripheral.o)
 .text.PLIB_DMA_ExistsChannelXCellSize
                0x00000000        0x8 /opt/microchip/harmony/v1_03/bin/framework/peripheral/PIC32MZ1024ECG064_peripherals.a(peripheral.o)
 .text.PLIB_DMA_ChannelXCellSizeGet
                0x00000000       0x30 /opt/microchip/harmony/v1_03/bin/framework/peripheral/PIC32MZ1024ECG064_peripherals.a(peripheral.o)
 .text.PLIB_DMA_ExistsChannelXCellProgressPointer
                0x00000000        0x8 /opt/microchip/harmony/v1_03/bin/framework/peripheral/PIC32MZ1024ECG064_peripherals.a(peripheral.o)
 .text.PLIB_DMA_ChannelXCellProgressPointerGet
                0x00000000       0x30 /opt/microchip/harmony/v1_03/bin/framework/peripheral/PIC32MZ1024ECG064_peripherals.a(peripheral.o)
 .text.PLIB_DMA_ExistsChannelXPatternData
                0x00000000        0x8 /opt/microchip/harmony/v1_03/bin/framework/peripheral/PIC32MZ1024ECG064_peripherals.a(peripheral.o)
 .text.PLIB_DMA_ChannelXPatternDataGet
                0x00000000       0x30 /opt/microchip/harmony/v1_03/bin/framework/peripheral/PIC32MZ1024ECG064_peripherals.a(peripheral.o)
 .text.PLIB_DMA_ChannelXPatternDataSet
                0x00000000       0x34 /opt/microchip/harmony/v1_03/bin/framework/peripheral/PIC32MZ1024ECG064_peripherals.a(peripheral.o)
 .text.PLIB_DMT_Enable
                0x00000000       0x18 /opt/microchip/harmony/v1_03/bin/framework/peripheral/PIC32MZ1024ECG064_peripherals.a(peripheral.o)
 .text.PLIB_DMT_Disable
                0x00000000       0x18 /opt/microchip/harmony/v1_03/bin/framework/peripheral/PIC32MZ1024ECG064_peripherals.a(peripheral.o)
 .text.PLIB_DMT_IsEnabled
                0x00000000       0x20 /opt/microchip/harmony/v1_03/bin/framework/peripheral/PIC32MZ1024ECG064_peripherals.a(peripheral.o)
 .text.PLIB_DMT_ExistsEnableControl
                0x00000000        0x8 /opt/microchip/harmony/v1_03/bin/framework/peripheral/PIC32MZ1024ECG064_peripherals.a(peripheral.o)
 .text.PLIB_DMT_WindowIsOpen
                0x00000000       0x20 /opt/microchip/harmony/v1_03/bin/framework/peripheral/PIC32MZ1024ECG064_peripherals.a(peripheral.o)
 .text.PLIB_DMT_EventOccurred
                0x00000000       0x1c /opt/microchip/harmony/v1_03/bin/framework/peripheral/PIC32MZ1024ECG064_peripherals.a(peripheral.o)
 .text.PLIB_DMT_BAD2Get
                0x00000000       0x20 /opt/microchip/harmony/v1_03/bin/framework/peripheral/PIC32MZ1024ECG064_peripherals.a(peripheral.o)
 .text.PLIB_DMT_BAD1Get
                0x00000000       0x20 /opt/microchip/harmony/v1_03/bin/framework/peripheral/PIC32MZ1024ECG064_peripherals.a(peripheral.o)
 .text.PLIB_DMT_ExistsStatus
                0x00000000        0x8 /opt/microchip/harmony/v1_03/bin/framework/peripheral/PIC32MZ1024ECG064_peripherals.a(peripheral.o)
 .text.PLIB_DMT_ClearStep1
                0x00000000       0x28 /opt/microchip/harmony/v1_03/bin/framework/peripheral/PIC32MZ1024ECG064_peripherals.a(peripheral.o)
 .text.PLIB_DMT_ExistsStep1
                0x00000000        0x8 /opt/microchip/harmony/v1_03/bin/framework/peripheral/PIC32MZ1024ECG064_peripherals.a(peripheral.o)
 .text.PLIB_DMT_ClearStep2
                0x00000000       0x24 /opt/microchip/harmony/v1_03/bin/framework/peripheral/PIC32MZ1024ECG064_peripherals.a(peripheral.o)
 .text.PLIB_DMT_ExistsStep2
                0x00000000        0x8 /opt/microchip/harmony/v1_03/bin/framework/peripheral/PIC32MZ1024ECG064_peripherals.a(peripheral.o)
 .text.PLIB_DMT_CounterGet
                0x00000000       0x18 /opt/microchip/harmony/v1_03/bin/framework/peripheral/PIC32MZ1024ECG064_peripherals.a(peripheral.o)
 .text.PLIB_DMT_ExistsCounter
                0x00000000        0x8 /opt/microchip/harmony/v1_03/bin/framework/peripheral/PIC32MZ1024ECG064_peripherals.a(peripheral.o)
 .text.PLIB_DMT_PostscalerValueGet
                0x00000000       0x18 /opt/microchip/harmony/v1_03/bin/framework/peripheral/PIC32MZ1024ECG064_peripherals.a(peripheral.o)
 .text.PLIB_DMT_ExistsPostscalerValue
                0x00000000        0x8 /opt/microchip/harmony/v1_03/bin/framework/peripheral/PIC32MZ1024ECG064_peripherals.a(peripheral.o)
 .text.PLIB_DMT_PostscalerIntervalGet
                0x00000000       0x18 /opt/microchip/harmony/v1_03/bin/framework/peripheral/PIC32MZ1024ECG064_peripherals.a(peripheral.o)
 .text.PLIB_DMT_ExistsPostscalerInterval
                0x00000000        0x8 /opt/microchip/harmony/v1_03/bin/framework/peripheral/PIC32MZ1024ECG064_peripherals.a(peripheral.o)
 .text.PLIB_EBI_BaseAddressSet
                0x00000000        0x8 /opt/microchip/harmony/v1_03/bin/framework/peripheral/PIC32MZ1024ECG064_peripherals.a(peripheral.o)
 .text.PLIB_EBI_BaseAddressGet
                0x00000000        0x8 /opt/microchip/harmony/v1_03/bin/framework/peripheral/PIC32MZ1024ECG064_peripherals.a(peripheral.o)
 .text.PLIB_EBI_ExistsBaseAddress
                0x00000000        0x8 /opt/microchip/harmony/v1_03/bin/framework/peripheral/PIC32MZ1024ECG064_peripherals.a(peripheral.o)
 .text.PLIB_EBI_MemoryCharacteristicsSet
                0x00000000        0x8 /opt/microchip/harmony/v1_03/bin/framework/peripheral/PIC32MZ1024ECG064_peripherals.a(peripheral.o)
 .text.PLIB_EBI_ExistsMemoryCharacteristics
                0x00000000        0x8 /opt/microchip/harmony/v1_03/bin/framework/peripheral/PIC32MZ1024ECG064_peripherals.a(peripheral.o)
 .text.PLIB_EBI_MemoryTimingConfigSet
                0x00000000        0x8 /opt/microchip/harmony/v1_03/bin/framework/peripheral/PIC32MZ1024ECG064_peripherals.a(peripheral.o)
 .text.PLIB_EBI_ExistsMemoryTimingConfig
                0x00000000        0x8 /opt/microchip/harmony/v1_03/bin/framework/peripheral/PIC32MZ1024ECG064_peripherals.a(peripheral.o)
 .text.PLIB_EBI_ReadyModeSet
                0x00000000        0x8 /opt/microchip/harmony/v1_03/bin/framework/peripheral/PIC32MZ1024ECG064_peripherals.a(peripheral.o)
 .text.PLIB_EBI_ReadyModeGet
                0x00000000        0x8 /opt/microchip/harmony/v1_03/bin/framework/peripheral/PIC32MZ1024ECG064_peripherals.a(peripheral.o)
 .text.PLIB_EBI_ExistsReadyMode
                0x00000000        0x8 /opt/microchip/harmony/v1_03/bin/framework/peripheral/PIC32MZ1024ECG064_peripherals.a(peripheral.o)
 .text.PLIB_EBI_MemoryPagingSet
                0x00000000        0x8 /opt/microchip/harmony/v1_03/bin/framework/peripheral/PIC32MZ1024ECG064_peripherals.a(peripheral.o)
 .text.PLIB_EBI_MemoryPageSizeGet
                0x00000000        0x8 /opt/microchip/harmony/v1_03/bin/framework/peripheral/PIC32MZ1024ECG064_peripherals.a(peripheral.o)
 .text.PLIB_EBI_ExistsMemoryPaging
                0x00000000        0x8 /opt/microchip/harmony/v1_03/bin/framework/peripheral/PIC32MZ1024ECG064_peripherals.a(peripheral.o)
 .text.PLIB_EBI_PageModeGet
                0x00000000        0x8 /opt/microchip/harmony/v1_03/bin/framework/peripheral/PIC32MZ1024ECG064_peripherals.a(peripheral.o)
 .text.PLIB_EBI_ExistsPageMode
                0x00000000        0x8 /opt/microchip/harmony/v1_03/bin/framework/peripheral/PIC32MZ1024ECG064_peripherals.a(peripheral.o)
 .text.PLIB_EBI_PageReadCycleTimeGet
                0x00000000        0x8 /opt/microchip/harmony/v1_03/bin/framework/peripheral/PIC32MZ1024ECG064_peripherals.a(peripheral.o)
 .text.PLIB_EBI_ExistsPageReadTime
                0x00000000        0x8 /opt/microchip/harmony/v1_03/bin/framework/peripheral/PIC32MZ1024ECG064_peripherals.a(peripheral.o)
 .text.PLIB_EBI_DataTurnAroundTimeGet
                0x00000000        0x8 /opt/microchip/harmony/v1_03/bin/framework/peripheral/PIC32MZ1024ECG064_peripherals.a(peripheral.o)
 .text.PLIB_EBI_ExistsDataTurnAroundTime
                0x00000000        0x8 /opt/microchip/harmony/v1_03/bin/framework/peripheral/PIC32MZ1024ECG064_peripherals.a(peripheral.o)
 .text.PLIB_EBI_WritePulseWidthGet
                0x00000000        0x8 /opt/microchip/harmony/v1_03/bin/framework/peripheral/PIC32MZ1024ECG064_peripherals.a(peripheral.o)
 .text.PLIB_EBI_ExistsWritePulseWidth
                0x00000000        0x8 /opt/microchip/harmony/v1_03/bin/framework/peripheral/PIC32MZ1024ECG064_peripherals.a(peripheral.o)
 .text.PLIB_EBI_AddressHoldTimeGet
                0x00000000        0x8 /opt/microchip/harmony/v1_03/bin/framework/peripheral/PIC32MZ1024ECG064_peripherals.a(peripheral.o)
 .text.PLIB_EBI_ExistsAddressHoldTime
                0x00000000        0x8 /opt/microchip/harmony/v1_03/bin/framework/peripheral/PIC32MZ1024ECG064_peripherals.a(peripheral.o)
 .text.PLIB_EBI_AddressSetupTimeGet
                0x00000000        0x8 /opt/microchip/harmony/v1_03/bin/framework/peripheral/PIC32MZ1024ECG064_peripherals.a(peripheral.o)
 .text.PLIB_EBI_ExistsAddressSetupTime
                0x00000000        0x8 /opt/microchip/harmony/v1_03/bin/framework/peripheral/PIC32MZ1024ECG064_peripherals.a(peripheral.o)
 .text.PLIB_EBI_ReadCycleTimeGet
                0x00000000        0x8 /opt/microchip/harmony/v1_03/bin/framework/peripheral/PIC32MZ1024ECG064_peripherals.a(peripheral.o)
 .text.PLIB_EBI_ExistsReadCycleTime
                0x00000000        0x8 /opt/microchip/harmony/v1_03/bin/framework/peripheral/PIC32MZ1024ECG064_peripherals.a(peripheral.o)
 .text.PLIB_EBI_FlashTimingSet
                0x00000000        0x8 /opt/microchip/harmony/v1_03/bin/framework/peripheral/PIC32MZ1024ECG064_peripherals.a(peripheral.o)
 .text.PLIB_EBI_FlashTimingGet
                0x00000000        0x8 /opt/microchip/harmony/v1_03/bin/framework/peripheral/PIC32MZ1024ECG064_peripherals.a(peripheral.o)
 .text.PLIB_EBI_ExistsFlashTiming
                0x00000000        0x8 /opt/microchip/harmony/v1_03/bin/framework/peripheral/PIC32MZ1024ECG064_peripherals.a(peripheral.o)
 .text.PLIB_EBI_StaticMemoryWidthRegisterSet
                0x00000000        0x8 /opt/microchip/harmony/v1_03/bin/framework/peripheral/PIC32MZ1024ECG064_peripherals.a(peripheral.o)
 .text.PLIB_EBI_StaticMemoryWidthRegisterGet
                0x00000000        0x8 /opt/microchip/harmony/v1_03/bin/framework/peripheral/PIC32MZ1024ECG064_peripherals.a(peripheral.o)
 .text.PLIB_EBI_ExistsStaticMemoryWidthRegister
                0x00000000        0x8 /opt/microchip/harmony/v1_03/bin/framework/peripheral/PIC32MZ1024ECG064_peripherals.a(peripheral.o)
 .text.PLIB_EBI_FlashPowerDownModeSet
                0x00000000        0x8 /opt/microchip/harmony/v1_03/bin/framework/peripheral/PIC32MZ1024ECG064_peripherals.a(peripheral.o)
 .text.PLIB_EBI_FlashPowerDownModeGet
                0x00000000        0x8 /opt/microchip/harmony/v1_03/bin/framework/peripheral/PIC32MZ1024ECG064_peripherals.a(peripheral.o)
 .text.PLIB_EBI_ExistsFlashPowerDownMode
                0x00000000        0x8 /opt/microchip/harmony/v1_03/bin/framework/peripheral/PIC32MZ1024ECG064_peripherals.a(peripheral.o)
 .text.PLIB_EBI_ControlEnableSet
                0x00000000        0x8 /opt/microchip/harmony/v1_03/bin/framework/peripheral/PIC32MZ1024ECG064_peripherals.a(peripheral.o)
 .text.PLIB_EBI_ControlEnableGet
                0x00000000        0x8 /opt/microchip/harmony/v1_03/bin/framework/peripheral/PIC32MZ1024ECG064_peripherals.a(peripheral.o)
 .text.PLIB_EBI_ExistsControlEnable
                0x00000000        0x8 /opt/microchip/harmony/v1_03/bin/framework/peripheral/PIC32MZ1024ECG064_peripherals.a(peripheral.o)
 .text.PLIB_EBI_AddressPinEnableBitsSet
                0x00000000        0x8 /opt/microchip/harmony/v1_03/bin/framework/peripheral/PIC32MZ1024ECG064_peripherals.a(peripheral.o)
 .text.PLIB_EBI_ExistsAddressPinEnableBits
                0x00000000        0x8 /opt/microchip/harmony/v1_03/bin/framework/peripheral/PIC32MZ1024ECG064_peripherals.a(peripheral.o)
 .text.PLIB_EBI_ReadyPin3ConfigSet
                0x00000000        0x8 /opt/microchip/harmony/v1_03/bin/framework/peripheral/PIC32MZ1024ECG064_peripherals.a(peripheral.o)
 .text.PLIB_EBI_ExistsReadyPin3Config
                0x00000000        0x8 /opt/microchip/harmony/v1_03/bin/framework/peripheral/PIC32MZ1024ECG064_peripherals.a(peripheral.o)
 .text.PLIB_EBI_ReadyPin2ConfigSet
                0x00000000        0x8 /opt/microchip/harmony/v1_03/bin/framework/peripheral/PIC32MZ1024ECG064_peripherals.a(peripheral.o)
 .text.PLIB_EBI_ExistsReadyPin2Config
                0x00000000        0x8 /opt/microchip/harmony/v1_03/bin/framework/peripheral/PIC32MZ1024ECG064_peripherals.a(peripheral.o)
 .text.PLIB_EBI_ReadyPin1ConfigSet
                0x00000000        0x8 /opt/microchip/harmony/v1_03/bin/framework/peripheral/PIC32MZ1024ECG064_peripherals.a(peripheral.o)
 .text.PLIB_EBI_ExistsReadyPin1Config
                0x00000000        0x8 /opt/microchip/harmony/v1_03/bin/framework/peripheral/PIC32MZ1024ECG064_peripherals.a(peripheral.o)
 .text.PLIB_EBI_ReadyPinSensSet
                0x00000000        0x8 /opt/microchip/harmony/v1_03/bin/framework/peripheral/PIC32MZ1024ECG064_peripherals.a(peripheral.o)
 .text.PLIB_EBI_ExistsReadyPinSens
                0x00000000        0x8 /opt/microchip/harmony/v1_03/bin/framework/peripheral/PIC32MZ1024ECG064_peripherals.a(peripheral.o)
 .text.PLIB_EBI_FlashResetPinSet
                0x00000000        0x8 /opt/microchip/harmony/v1_03/bin/framework/peripheral/PIC32MZ1024ECG064_peripherals.a(peripheral.o)
 .text.PLIB_EBI_FlashResetPinGet
                0x00000000        0x8 /opt/microchip/harmony/v1_03/bin/framework/peripheral/PIC32MZ1024ECG064_peripherals.a(peripheral.o)
 .text.PLIB_EBI_ExistsFlashResetPin
                0x00000000        0x8 /opt/microchip/harmony/v1_03/bin/framework/peripheral/PIC32MZ1024ECG064_peripherals.a(peripheral.o)
 .text.PLIB_EBI_WriteOutputControlSet
                0x00000000        0x8 /opt/microchip/harmony/v1_03/bin/framework/peripheral/PIC32MZ1024ECG064_peripherals.a(peripheral.o)
 .text.PLIB_EBI_ExistsWriteOutputControl
                0x00000000        0x8 /opt/microchip/harmony/v1_03/bin/framework/peripheral/PIC32MZ1024ECG064_peripherals.a(peripheral.o)
 .text.PLIB_EBI_ByteSelectPinSet
                0x00000000        0x8 /opt/microchip/harmony/v1_03/bin/framework/peripheral/PIC32MZ1024ECG064_peripherals.a(peripheral.o)
 .text.PLIB_EBI_ExistsByteSelectPin
                0x00000000        0x8 /opt/microchip/harmony/v1_03/bin/framework/peripheral/PIC32MZ1024ECG064_peripherals.a(peripheral.o)
 .text.PLIB_EBI_ChipSelectEnableSet
                0x00000000        0x8 /opt/microchip/harmony/v1_03/bin/framework/peripheral/PIC32MZ1024ECG064_peripherals.a(peripheral.o)
 .text.PLIB_EBI_ExistsChipSelectEnable
                0x00000000        0x8 /opt/microchip/harmony/v1_03/bin/framework/peripheral/PIC32MZ1024ECG064_peripherals.a(peripheral.o)
 .text.PLIB_EBI_DataEnableSet
                0x00000000        0x8 /opt/microchip/harmony/v1_03/bin/framework/peripheral/PIC32MZ1024ECG064_peripherals.a(peripheral.o)
 .text.PLIB_EBI_ExistsDataEnable
                0x00000000        0x8 /opt/microchip/harmony/v1_03/bin/framework/peripheral/PIC32MZ1024ECG064_peripherals.a(peripheral.o)
 .text.PLIB_ETH_PauseTimerSet
                0x00000000       0x28 /opt/microchip/harmony/v1_03/bin/framework/peripheral/PIC32MZ1024ECG064_peripherals.a(peripheral.o)
 .text.PLIB_ETH_PauseTimerGet
                0x00000000       0x20 /opt/microchip/harmony/v1_03/bin/framework/peripheral/PIC32MZ1024ECG064_peripherals.a(peripheral.o)
 .text.PLIB_ETH_ExistsPauseTimer
                0x00000000        0x8 /opt/microchip/harmony/v1_03/bin/framework/peripheral/PIC32MZ1024ECG064_peripherals.a(peripheral.o)
 .text.PLIB_ETH_Enable
                0x00000000       0x18 /opt/microchip/harmony/v1_03/bin/framework/peripheral/PIC32MZ1024ECG064_peripherals.a(peripheral.o)
 .text.PLIB_ETH_Disable
                0x00000000       0x18 /opt/microchip/harmony/v1_03/bin/framework/peripheral/PIC32MZ1024ECG064_peripherals.a(peripheral.o)
 .text.PLIB_ETH_IsEnabled
                0x00000000       0x20 /opt/microchip/harmony/v1_03/bin/framework/peripheral/PIC32MZ1024ECG064_peripherals.a(peripheral.o)
 .text.PLIB_ETH_ExistsEnable
                0x00000000        0x8 /opt/microchip/harmony/v1_03/bin/framework/peripheral/PIC32MZ1024ECG064_peripherals.a(peripheral.o)
 .text.PLIB_ETH_StopInIdleEnable
                0x00000000       0x18 /opt/microchip/harmony/v1_03/bin/framework/peripheral/PIC32MZ1024ECG064_peripherals.a(peripheral.o)
 .text.PLIB_ETH_StopInIdleDisable
                0x00000000       0x18 /opt/microchip/harmony/v1_03/bin/framework/peripheral/PIC32MZ1024ECG064_peripherals.a(peripheral.o)
 .text.PLIB_ETH_StopInIdleIsEnabled
                0x00000000       0x20 /opt/microchip/harmony/v1_03/bin/framework/peripheral/PIC32MZ1024ECG064_peripherals.a(peripheral.o)
 .text.PLIB_ETH_ExistsStopInIdle
                0x00000000        0x8 /opt/microchip/harmony/v1_03/bin/framework/peripheral/PIC32MZ1024ECG064_peripherals.a(peripheral.o)
 .text.PLIB_ETH_TxRTSEnable
                0x00000000       0x18 /opt/microchip/harmony/v1_03/bin/framework/peripheral/PIC32MZ1024ECG064_peripherals.a(peripheral.o)
 .text.PLIB_ETH_TxRTSDisable
                0x00000000       0x18 /opt/microchip/harmony/v1_03/bin/framework/peripheral/PIC32MZ1024ECG064_peripherals.a(peripheral.o)
 .text.PLIB_ETH_TxRTSIsEnabled
                0x00000000       0x20 /opt/microchip/harmony/v1_03/bin/framework/peripheral/PIC32MZ1024ECG064_peripherals.a(peripheral.o)
 .text.PLIB_ETH_ExistsTransmitRTS
                0x00000000        0x8 /opt/microchip/harmony/v1_03/bin/framework/peripheral/PIC32MZ1024ECG064_peripherals.a(peripheral.o)
 .text.PLIB_ETH_RxEnable
                0x00000000       0x18 /opt/microchip/harmony/v1_03/bin/framework/peripheral/PIC32MZ1024ECG064_peripherals.a(peripheral.o)
 .text.PLIB_ETH_RxDisable
                0x00000000       0x18 /opt/microchip/harmony/v1_03/bin/framework/peripheral/PIC32MZ1024ECG064_peripherals.a(peripheral.o)
 .text.PLIB_ETH_RxIsEnabled
                0x00000000       0x20 /opt/microchip/harmony/v1_03/bin/framework/peripheral/PIC32MZ1024ECG064_peripherals.a(peripheral.o)
 .text.PLIB_ETH_ExistsRxEnable
                0x00000000        0x8 /opt/microchip/harmony/v1_03/bin/framework/peripheral/PIC32MZ1024ECG064_peripherals.a(peripheral.o)
 .text.PLIB_ETH_AutoFlowControlEnable
                0x00000000       0x18 /opt/microchip/harmony/v1_03/bin/framework/peripheral/PIC32MZ1024ECG064_peripherals.a(peripheral.o)
 .text.PLIB_ETH_AutoFlowControlDisable
                0x00000000       0x18 /opt/microchip/harmony/v1_03/bin/framework/peripheral/PIC32MZ1024ECG064_peripherals.a(peripheral.o)
 .text.PLIB_ETH_AutoFlowControlIsEnabled
                0x00000000       0x20 /opt/microchip/harmony/v1_03/bin/framework/peripheral/PIC32MZ1024ECG064_peripherals.a(peripheral.o)
 .text.PLIB_ETH_ExistsAutoFlowControl
                0x00000000        0x8 /opt/microchip/harmony/v1_03/bin/framework/peripheral/PIC32MZ1024ECG064_peripherals.a(peripheral.o)
 .text.PLIB_ETH_ManualFlowControlEnable
                0x00000000       0x18 /opt/microchip/harmony/v1_03/bin/framework/peripheral/PIC32MZ1024ECG064_peripherals.a(peripheral.o)
 .text.PLIB_ETH_ManualFlowControlDisable
                0x00000000       0x18 /opt/microchip/harmony/v1_03/bin/framework/peripheral/PIC32MZ1024ECG064_peripherals.a(peripheral.o)
 .text.PLIB_ETH_ManualFlowControlIsEnabled
                0x00000000       0x20 /opt/microchip/harmony/v1_03/bin/framework/peripheral/PIC32MZ1024ECG064_peripherals.a(peripheral.o)
 .text.PLIB_ETH_ExistsManualFlowControl
                0x00000000        0x8 /opt/microchip/harmony/v1_03/bin/framework/peripheral/PIC32MZ1024ECG064_peripherals.a(peripheral.o)
 .text.PLIB_ETH_RxBufferCountDecrement
                0x00000000       0x18 /opt/microchip/harmony/v1_03/bin/framework/peripheral/PIC32MZ1024ECG064_peripherals.a(peripheral.o)
 .text.PLIB_ETH_ExistsRxBufferCountDecrement
                0x00000000        0x8 /opt/microchip/harmony/v1_03/bin/framework/peripheral/PIC32MZ1024ECG064_peripherals.a(peripheral.o)
 .text.PLIB_ETH_ReceiveBufferSizeGet
                0x00000000       0x20 /opt/microchip/harmony/v1_03/bin/framework/peripheral/PIC32MZ1024ECG064_peripherals.a(peripheral.o)
 .text.PLIB_ETH_ReceiveBufferSizeSet
                0x00000000       0x30 /opt/microchip/harmony/v1_03/bin/framework/peripheral/PIC32MZ1024ECG064_peripherals.a(peripheral.o)
 .text.PLIB_ETH_ExistsReceiveBufferSize
                0x00000000        0x8 /opt/microchip/harmony/v1_03/bin/framework/peripheral/PIC32MZ1024ECG064_peripherals.a(peripheral.o)
 .text.PLIB_ETH_TxPacketDescAddrSet
                0x00000000       0x14 /opt/microchip/harmony/v1_03/bin/framework/peripheral/PIC32MZ1024ECG064_peripherals.a(peripheral.o)
 .text.PLIB_ETH_TxPacketDescAddrGet
                0x00000000       0x18 /opt/microchip/harmony/v1_03/bin/framework/peripheral/PIC32MZ1024ECG064_peripherals.a(peripheral.o)
 .text.PLIB_ETH_ExistsTxPacketDescriptorAddress
                0x00000000        0x8 /opt/microchip/harmony/v1_03/bin/framework/peripheral/PIC32MZ1024ECG064_peripherals.a(peripheral.o)
 .text.PLIB_ETH_RxPacketDescAddrSet
                0x00000000       0x14 /opt/microchip/harmony/v1_03/bin/framework/peripheral/PIC32MZ1024ECG064_peripherals.a(peripheral.o)
 .text.PLIB_ETH_RxPacketDescAddrGet
                0x00000000       0x18 /opt/microchip/harmony/v1_03/bin/framework/peripheral/PIC32MZ1024ECG064_peripherals.a(peripheral.o)
 .text.PLIB_ETH_ExistsRxPacketDescriptorAddress
                0x00000000        0x8 /opt/microchip/harmony/v1_03/bin/framework/peripheral/PIC32MZ1024ECG064_peripherals.a(peripheral.o)
 .text.PLIB_ETH_HashTableSet
                0x00000000       0x1c /opt/microchip/harmony/v1_03/bin/framework/peripheral/PIC32MZ1024ECG064_peripherals.a(peripheral.o)
 .text.PLIB_ETH_HashTableGet
                0x00000000       0x20 /opt/microchip/harmony/v1_03/bin/framework/peripheral/PIC32MZ1024ECG064_peripherals.a(peripheral.o)
 .text.PLIB_ETH_ExistsHashTable
                0x00000000        0x8 /opt/microchip/harmony/v1_03/bin/framework/peripheral/PIC32MZ1024ECG064_peripherals.a(peripheral.o)
 .text.PLIB_ETH_PatternMatchSet
                0x00000000       0x1c /opt/microchip/harmony/v1_03/bin/framework/peripheral/PIC32MZ1024ECG064_peripherals.a(peripheral.o)
 .text.PLIB_ETH_PatternMatchGet
                0x00000000       0x38 /opt/microchip/harmony/v1_03/bin/framework/peripheral/PIC32MZ1024ECG064_peripherals.a(peripheral.o)
 .text.PLIB_ETH_PatternMatchChecksumSet
                0x00000000       0x18 /opt/microchip/harmony/v1_03/bin/framework/peripheral/PIC32MZ1024ECG064_peripherals.a(peripheral.o)
 .text.PLIB_ETH_PatternMatchChecksumGet
                0x00000000       0x20 /opt/microchip/harmony/v1_03/bin/framework/peripheral/PIC32MZ1024ECG064_peripherals.a(peripheral.o)
 .text.PLIB_ETH_PatternMatchOffsetSet
                0x00000000       0x18 /opt/microchip/harmony/v1_03/bin/framework/peripheral/PIC32MZ1024ECG064_peripherals.a(peripheral.o)
 .text.PLIB_ETH_PatternMatchOffsetGet
                0x00000000       0x20 /opt/microchip/harmony/v1_03/bin/framework/peripheral/PIC32MZ1024ECG064_peripherals.a(peripheral.o)
 .text.PLIB_ETH_PatternMatchModeSet
                0x00000000       0x2c /opt/microchip/harmony/v1_03/bin/framework/peripheral/PIC32MZ1024ECG064_peripherals.a(peripheral.o)
 .text.PLIB_ETH_PatternMatchModeGet
                0x00000000       0x20 /opt/microchip/harmony/v1_03/bin/framework/peripheral/PIC32MZ1024ECG064_peripherals.a(peripheral.o)
 .text.PLIB_ETH_ExistsPatternMatch
                0x00000000        0x8 /opt/microchip/harmony/v1_03/bin/framework/peripheral/PIC32MZ1024ECG064_peripherals.a(peripheral.o)
 .text.PLIB_ETH_ReceiveFilterEnable
                0x00000000       0x18 /opt/microchip/harmony/v1_03/bin/framework/peripheral/PIC32MZ1024ECG064_peripherals.a(peripheral.o)
 .text.PLIB_ETH_ReceiveFilterDisable
                0x00000000       0x18 /opt/microchip/harmony/v1_03/bin/framework/peripheral/PIC32MZ1024ECG064_peripherals.a(peripheral.o)
 .text.PLIB_ETH_ReceiveFilterIsEnable
                0x00000000       0x28 /opt/microchip/harmony/v1_03/bin/framework/peripheral/PIC32MZ1024ECG064_peripherals.a(peripheral.o)
 .text.PLIB_ETH_ExistsReceiveFilters
                0x00000000        0x8 /opt/microchip/harmony/v1_03/bin/framework/peripheral/PIC32MZ1024ECG064_peripherals.a(peripheral.o)
 .text.PLIB_ETH_RxFullWmarkSet
                0x00000000       0x30 /opt/microchip/harmony/v1_03/bin/framework/peripheral/PIC32MZ1024ECG064_peripherals.a(peripheral.o)
 .text.PLIB_ETH_RxFullWmarkGet
                0x00000000       0x20 /opt/microchip/harmony/v1_03/bin/framework/peripheral/PIC32MZ1024ECG064_peripherals.a(peripheral.o)
 .text.PLIB_ETH_RxEmptyWmarkSet
                0x00000000       0x28 /opt/microchip/harmony/v1_03/bin/framework/peripheral/PIC32MZ1024ECG064_peripherals.a(peripheral.o)
 .text.PLIB_ETH_RxEmptyWmarkGet
                0x00000000       0x20 /opt/microchip/harmony/v1_03/bin/framework/peripheral/PIC32MZ1024ECG064_peripherals.a(peripheral.o)
 .text.PLIB_ETH_ExistsReceiveWmarks
                0x00000000        0x8 /opt/microchip/harmony/v1_03/bin/framework/peripheral/PIC32MZ1024ECG064_peripherals.a(peripheral.o)
 .text.PLIB_ETH_InterruptSourceEnable
                0x00000000       0x14 /opt/microchip/harmony/v1_03/bin/framework/peripheral/PIC32MZ1024ECG064_peripherals.a(peripheral.o)
 .text.PLIB_ETH_InterruptSourceDisable
                0x00000000       0x14 /opt/microchip/harmony/v1_03/bin/framework/peripheral/PIC32MZ1024ECG064_peripherals.a(peripheral.o)
 .text.PLIB_ETH_InterruptSourceIsEnabled
                0x00000000       0x24 /opt/microchip/harmony/v1_03/bin/framework/peripheral/PIC32MZ1024ECG064_peripherals.a(peripheral.o)
 .text.PLIB_ETH_InterruptSourcesGet
                0x00000000       0x18 /opt/microchip/harmony/v1_03/bin/framework/peripheral/PIC32MZ1024ECG064_peripherals.a(peripheral.o)
 .text.PLIB_ETH_InterruptSet
                0x00000000       0x14 /opt/microchip/harmony/v1_03/bin/framework/peripheral/PIC32MZ1024ECG064_peripherals.a(peripheral.o)
 .text.PLIB_ETH_InterruptClear
                0x00000000       0x14 /opt/microchip/harmony/v1_03/bin/framework/peripheral/PIC32MZ1024ECG064_peripherals.a(peripheral.o)
 .text.PLIB_ETH_InterruptsGet
                0x00000000       0x18 /opt/microchip/harmony/v1_03/bin/framework/peripheral/PIC32MZ1024ECG064_peripherals.a(peripheral.o)
 .text.PLIB_ETH_InterruptStatusGet
                0x00000000       0x24 /opt/microchip/harmony/v1_03/bin/framework/peripheral/PIC32MZ1024ECG064_peripherals.a(peripheral.o)
 .text.PLIB_ETH_ExistsInterrupt
                0x00000000        0x8 /opt/microchip/harmony/v1_03/bin/framework/peripheral/PIC32MZ1024ECG064_peripherals.a(peripheral.o)
 .text.PLIB_ETH_RxPacketCountGet
                0x00000000       0x20 /opt/microchip/harmony/v1_03/bin/framework/peripheral/PIC32MZ1024ECG064_peripherals.a(peripheral.o)
 .text.PLIB_ETH_EthernetIsBusy
                0x00000000       0x20 /opt/microchip/harmony/v1_03/bin/framework/peripheral/PIC32MZ1024ECG064_peripherals.a(peripheral.o)
 .text.PLIB_ETH_TransmitIsBusy
                0x00000000       0x20 /opt/microchip/harmony/v1_03/bin/framework/peripheral/PIC32MZ1024ECG064_peripherals.a(peripheral.o)
 .text.PLIB_ETH_ReceiveIsBusy
                0x00000000       0x20 /opt/microchip/harmony/v1_03/bin/framework/peripheral/PIC32MZ1024ECG064_peripherals.a(peripheral.o)
 .text.PLIB_ETH_ExistsEthernetControllerStatus
                0x00000000        0x8 /opt/microchip/harmony/v1_03/bin/framework/peripheral/PIC32MZ1024ECG064_peripherals.a(peripheral.o)
 .text.PLIB_ETH_RxOverflowCountClear
                0x00000000       0x14 /opt/microchip/harmony/v1_03/bin/framework/peripheral/PIC32MZ1024ECG064_peripherals.a(peripheral.o)
 .text.PLIB_ETH_RxOverflowCountGet
                0x00000000       0x20 /opt/microchip/harmony/v1_03/bin/framework/peripheral/PIC32MZ1024ECG064_peripherals.a(peripheral.o)
 .text.PLIB_ETH_ExistsReceiveOverflowCount
                0x00000000        0x8 /opt/microchip/harmony/v1_03/bin/framework/peripheral/PIC32MZ1024ECG064_peripherals.a(peripheral.o)
 .text.PLIB_ETH_FramesTxdOkCountClear
                0x00000000       0x14 /opt/microchip/harmony/v1_03/bin/framework/peripheral/PIC32MZ1024ECG064_peripherals.a(peripheral.o)
 .text.PLIB_ETH_FramesTxdOkCountGet
                0x00000000       0x20 /opt/microchip/harmony/v1_03/bin/framework/peripheral/PIC32MZ1024ECG064_peripherals.a(peripheral.o)
 .text.PLIB_ETH_ExistsFramesTransmittedOK
                0x00000000        0x8 /opt/microchip/harmony/v1_03/bin/framework/peripheral/PIC32MZ1024ECG064_peripherals.a(peripheral.o)
 .text.PLIB_ETH_SingleCollisionCountClear
                0x00000000       0x14 /opt/microchip/harmony/v1_03/bin/framework/peripheral/PIC32MZ1024ECG064_peripherals.a(peripheral.o)
 .text.PLIB_ETH_SingleCollisionCountGet
                0x00000000       0x20 /opt/microchip/harmony/v1_03/bin/framework/peripheral/PIC32MZ1024ECG064_peripherals.a(peripheral.o)
 .text.PLIB_ETH_MultipleCollisionCountClear
                0x00000000       0x14 /opt/microchip/harmony/v1_03/bin/framework/peripheral/PIC32MZ1024ECG064_peripherals.a(peripheral.o)
 .text.PLIB_ETH_MultipleCollisionCountGet
                0x00000000       0x20 /opt/microchip/harmony/v1_03/bin/framework/peripheral/PIC32MZ1024ECG064_peripherals.a(peripheral.o)
 .text.PLIB_ETH_ExistsCollisionCounts
                0x00000000        0x8 /opt/microchip/harmony/v1_03/bin/framework/peripheral/PIC32MZ1024ECG064_peripherals.a(peripheral.o)
 .text.PLIB_ETH_FramesRxdOkCountClear
                0x00000000       0x14 /opt/microchip/harmony/v1_03/bin/framework/peripheral/PIC32MZ1024ECG064_peripherals.a(peripheral.o)
 .text.PLIB_ETH_FramesRxdOkCountGet
                0x00000000       0x20 /opt/microchip/harmony/v1_03/bin/framework/peripheral/PIC32MZ1024ECG064_peripherals.a(peripheral.o)
 .text.PLIB_ETH_ExistsFramexReceivedOK
                0x00000000        0x8 /opt/microchip/harmony/v1_03/bin/framework/peripheral/PIC32MZ1024ECG064_peripherals.a(peripheral.o)
 .text.PLIB_ETH_FCSErrorCountClear
                0x00000000       0x14 /opt/microchip/harmony/v1_03/bin/framework/peripheral/PIC32MZ1024ECG064_peripherals.a(peripheral.o)
 .text.PLIB_ETH_FCSErrorCountGet
                0x00000000       0x20 /opt/microchip/harmony/v1_03/bin/framework/peripheral/PIC32MZ1024ECG064_peripherals.a(peripheral.o)
 .text.PLIB_ETH_ExistsFCSErrorCount
                0x00000000        0x8 /opt/microchip/harmony/v1_03/bin/framework/peripheral/PIC32MZ1024ECG064_peripherals.a(peripheral.o)
 .text.PLIB_ETH_AlignErrorCountClear
                0x00000000       0x14 /opt/microchip/harmony/v1_03/bin/framework/peripheral/PIC32MZ1024ECG064_peripherals.a(peripheral.o)
 .text.PLIB_ETH_AlignErrorCountGet
                0x00000000       0x20 /opt/microchip/harmony/v1_03/bin/framework/peripheral/PIC32MZ1024ECG064_peripherals.a(peripheral.o)
 .text.PLIB_ETH_ExistsAlignmentErrorCount
                0x00000000        0x8 /opt/microchip/harmony/v1_03/bin/framework/peripheral/PIC32MZ1024ECG064_peripherals.a(peripheral.o)
 .text.PLIB_ETH_MIIResetEnable
                0x00000000       0x18 /opt/microchip/harmony/v1_03/bin/framework/peripheral/PIC32MZ1024ECG064_peripherals.a(peripheral.o)
 .text.PLIB_ETH_MIIResetDisable
                0x00000000       0x18 /opt/microchip/harmony/v1_03/bin/framework/peripheral/PIC32MZ1024ECG064_peripherals.a(peripheral.o)
 .text.PLIB_ETH_MIIResetIsEnabled
                0x00000000       0x20 /opt/microchip/harmony/v1_03/bin/framework/peripheral/PIC32MZ1024ECG064_peripherals.a(peripheral.o)
 .text.PLIB_ETH_SimResetEnable
                0x00000000       0x18 /opt/microchip/harmony/v1_03/bin/framework/peripheral/PIC32MZ1024ECG064_peripherals.a(peripheral.o)
 .text.PLIB_ETH_SimResetDisable
                0x00000000       0x18 /opt/microchip/harmony/v1_03/bin/framework/peripheral/PIC32MZ1024ECG064_peripherals.a(peripheral.o)
 .text.PLIB_ETH_SimResetIsEnabled
                0x00000000       0x20 /opt/microchip/harmony/v1_03/bin/framework/peripheral/PIC32MZ1024ECG064_peripherals.a(peripheral.o)
 .text.PLIB_ETH_MCSRxResetEnable
                0x00000000       0x18 /opt/microchip/harmony/v1_03/bin/framework/peripheral/PIC32MZ1024ECG064_peripherals.a(peripheral.o)
 .text.PLIB_ETH_MCSRxResetDisable
                0x00000000       0x18 /opt/microchip/harmony/v1_03/bin/framework/peripheral/PIC32MZ1024ECG064_peripherals.a(peripheral.o)
 .text.PLIB_ETH_MCSRxResetIsEnabled
                0x00000000       0x20 /opt/microchip/harmony/v1_03/bin/framework/peripheral/PIC32MZ1024ECG064_peripherals.a(peripheral.o)
 .text.PLIB_ETH_RxFuncResetEnable
                0x00000000       0x18 /opt/microchip/harmony/v1_03/bin/framework/peripheral/PIC32MZ1024ECG064_peripherals.a(peripheral.o)
 .text.PLIB_ETH_RxFuncResetDisable
                0x00000000       0x18 /opt/microchip/harmony/v1_03/bin/framework/peripheral/PIC32MZ1024ECG064_peripherals.a(peripheral.o)
 .text.PLIB_ETH_RxFuncResetIsEnabled
                0x00000000       0x20 /opt/microchip/harmony/v1_03/bin/framework/peripheral/PIC32MZ1024ECG064_peripherals.a(peripheral.o)
 .text.PLIB_ETH_MCSTxResetEnable
                0x00000000       0x18 /opt/microchip/harmony/v1_03/bin/framework/peripheral/PIC32MZ1024ECG064_peripherals.a(peripheral.o)
 .text.PLIB_ETH_MCSTxResetDisable
                0x00000000       0x18 /opt/microchip/harmony/v1_03/bin/framework/peripheral/PIC32MZ1024ECG064_peripherals.a(peripheral.o)
 .text.PLIB_ETH_MCSTxResetIsEnabled
                0x00000000       0x20 /opt/microchip/harmony/v1_03/bin/framework/peripheral/PIC32MZ1024ECG064_peripherals.a(peripheral.o)
 .text.PLIB_ETH_TxFuncResetEnable
                0x00000000       0x18 /opt/microchip/harmony/v1_03/bin/framework/peripheral/PIC32MZ1024ECG064_peripherals.a(peripheral.o)
 .text.PLIB_ETH_TxFuncResetDisable
                0x00000000       0x18 /opt/microchip/harmony/v1_03/bin/framework/peripheral/PIC32MZ1024ECG064_peripherals.a(peripheral.o)
 .text.PLIB_ETH_TxFuncResetIsEnabled
                0x00000000       0x20 /opt/microchip/harmony/v1_03/bin/framework/peripheral/PIC32MZ1024ECG064_peripherals.a(peripheral.o)
 .text.PLIB_ETH_ExistsMAC_Resets
                0x00000000        0x8 /opt/microchip/harmony/v1_03/bin/framework/peripheral/PIC32MZ1024ECG064_peripherals.a(peripheral.o)
 .text.PLIB_ETH_LoopbackEnable
                0x00000000       0x18 /opt/microchip/harmony/v1_03/bin/framework/peripheral/PIC32MZ1024ECG064_peripherals.a(peripheral.o)
 .text.PLIB_ETH_LoopbackDisable
                0x00000000       0x18 /opt/microchip/harmony/v1_03/bin/framework/peripheral/PIC32MZ1024ECG064_peripherals.a(peripheral.o)
 .text.PLIB_ETH_LoopbackIsEnabled
                0x00000000       0x20 /opt/microchip/harmony/v1_03/bin/framework/peripheral/PIC32MZ1024ECG064_peripherals.a(peripheral.o)
 .text.PLIB_ETH_TxPauseEnable
                0x00000000       0x18 /opt/microchip/harmony/v1_03/bin/framework/peripheral/PIC32MZ1024ECG064_peripherals.a(peripheral.o)
 .text.PLIB_ETH_TxPauseDisable
                0x00000000       0x18 /opt/microchip/harmony/v1_03/bin/framework/peripheral/PIC32MZ1024ECG064_peripherals.a(peripheral.o)
 .text.PLIB_ETH_TxPauseIsEnabled
                0x00000000       0x20 /opt/microchip/harmony/v1_03/bin/framework/peripheral/PIC32MZ1024ECG064_peripherals.a(peripheral.o)
 .text.PLIB_ETH_RxPauseEnable
                0x00000000       0x18 /opt/microchip/harmony/v1_03/bin/framework/peripheral/PIC32MZ1024ECG064_peripherals.a(peripheral.o)
 .text.PLIB_ETH_RxPauseDisable
                0x00000000       0x18 /opt/microchip/harmony/v1_03/bin/framework/peripheral/PIC32MZ1024ECG064_peripherals.a(peripheral.o)
 .text.PLIB_ETH_RxPauseIsEnabled
                0x00000000       0x20 /opt/microchip/harmony/v1_03/bin/framework/peripheral/PIC32MZ1024ECG064_peripherals.a(peripheral.o)
 .text.PLIB_ETH_PassAllEnable
                0x00000000       0x18 /opt/microchip/harmony/v1_03/bin/framework/peripheral/PIC32MZ1024ECG064_peripherals.a(peripheral.o)
 .text.PLIB_ETH_PassAllDisable
                0x00000000       0x18 /opt/microchip/harmony/v1_03/bin/framework/peripheral/PIC32MZ1024ECG064_peripherals.a(peripheral.o)
 .text.PLIB_ETH_PassAllIsEnabled
                0x00000000       0x20 /opt/microchip/harmony/v1_03/bin/framework/peripheral/PIC32MZ1024ECG064_peripherals.a(peripheral.o)
 .text.PLIB_ETH_ReceiveEnable
                0x00000000       0x18 /opt/microchip/harmony/v1_03/bin/framework/peripheral/PIC32MZ1024ECG064_peripherals.a(peripheral.o)
 .text.PLIB_ETH_ReceiveDisable
                0x00000000       0x18 /opt/microchip/harmony/v1_03/bin/framework/peripheral/PIC32MZ1024ECG064_peripherals.a(peripheral.o)
 .text.PLIB_ETH_ReceiveIsEnabled
                0x00000000       0x20 /opt/microchip/harmony/v1_03/bin/framework/peripheral/PIC32MZ1024ECG064_peripherals.a(peripheral.o)
 .text.PLIB_ETH_ExcessDeferEnable
                0x00000000       0x18 /opt/microchip/harmony/v1_03/bin/framework/peripheral/PIC32MZ1024ECG064_peripherals.a(peripheral.o)
 .text.PLIB_ETH_ExcessDeferDisable
                0x00000000       0x18 /opt/microchip/harmony/v1_03/bin/framework/peripheral/PIC32MZ1024ECG064_peripherals.a(peripheral.o)
 .text.PLIB_ETH_ExcessDeferIsEnabled
                0x00000000       0x20 /opt/microchip/harmony/v1_03/bin/framework/peripheral/PIC32MZ1024ECG064_peripherals.a(peripheral.o)
 .text.PLIB_ETH_BackPresNoBackoffEnable
                0x00000000       0x18 /opt/microchip/harmony/v1_03/bin/framework/peripheral/PIC32MZ1024ECG064_peripherals.a(peripheral.o)
 .text.PLIB_ETH_BackPresNoBackoffDisable
                0x00000000       0x18 /opt/microchip/harmony/v1_03/bin/framework/peripheral/PIC32MZ1024ECG064_peripherals.a(peripheral.o)
 .text.PLIB_ETH_BackPresNoBackoffIsEnabled
                0x00000000       0x20 /opt/microchip/harmony/v1_03/bin/framework/peripheral/PIC32MZ1024ECG064_peripherals.a(peripheral.o)
 .text.PLIB_ETH_NoBackoffEnable
                0x00000000       0x18 /opt/microchip/harmony/v1_03/bin/framework/peripheral/PIC32MZ1024ECG064_peripherals.a(peripheral.o)
 .text.PLIB_ETH_NoBackoffDisable
                0x00000000       0x18 /opt/microchip/harmony/v1_03/bin/framework/peripheral/PIC32MZ1024ECG064_peripherals.a(peripheral.o)
 .text.PLIB_ETH_NoBackoffIsEnabled
                0x00000000       0x20 /opt/microchip/harmony/v1_03/bin/framework/peripheral/PIC32MZ1024ECG064_peripherals.a(peripheral.o)
 .text.PLIB_ETH_LongPreambleEnable
                0x00000000       0x18 /opt/microchip/harmony/v1_03/bin/framework/peripheral/PIC32MZ1024ECG064_peripherals.a(peripheral.o)
 .text.PLIB_ETH_LongPreambleDisable
                0x00000000       0x18 /opt/microchip/harmony/v1_03/bin/framework/peripheral/PIC32MZ1024ECG064_peripherals.a(peripheral.o)
 .text.PLIB_ETH_LongPreambleIsEnabled
                0x00000000       0x20 /opt/microchip/harmony/v1_03/bin/framework/peripheral/PIC32MZ1024ECG064_peripherals.a(peripheral.o)
 .text.PLIB_ETH_PurePreambleEnable
                0x00000000       0x18 /opt/microchip/harmony/v1_03/bin/framework/peripheral/PIC32MZ1024ECG064_peripherals.a(peripheral.o)
 .text.PLIB_ETH_PurePreambleDisable
                0x00000000       0x18 /opt/microchip/harmony/v1_03/bin/framework/peripheral/PIC32MZ1024ECG064_peripherals.a(peripheral.o)
 .text.PLIB_ETH_PurePreambleIsEnabled
                0x00000000       0x20 /opt/microchip/harmony/v1_03/bin/framework/peripheral/PIC32MZ1024ECG064_peripherals.a(peripheral.o)
 .text.PLIB_ETH_AutoDetectPadGet
                0x00000000       0x20 /opt/microchip/harmony/v1_03/bin/framework/peripheral/PIC32MZ1024ECG064_peripherals.a(peripheral.o)
 .text.PLIB_ETH_AutoDetectPadSet
                0x00000000       0x1c /opt/microchip/harmony/v1_03/bin/framework/peripheral/PIC32MZ1024ECG064_peripherals.a(peripheral.o)
 .text.PLIB_ETH_AutoDetectPadClear
                0x00000000       0x1c /opt/microchip/harmony/v1_03/bin/framework/peripheral/PIC32MZ1024ECG064_peripherals.a(peripheral.o)
 .text.PLIB_ETH_CRCEnable
                0x00000000       0x18 /opt/microchip/harmony/v1_03/bin/framework/peripheral/PIC32MZ1024ECG064_peripherals.a(peripheral.o)
 .text.PLIB_ETH_CRCDisable
                0x00000000       0x18 /opt/microchip/harmony/v1_03/bin/framework/peripheral/PIC32MZ1024ECG064_peripherals.a(peripheral.o)
 .text.PLIB_ETH_CRCIsEnabled
                0x00000000       0x20 /opt/microchip/harmony/v1_03/bin/framework/peripheral/PIC32MZ1024ECG064_peripherals.a(peripheral.o)
 .text.PLIB_ETH_DelayedCRCEnable
                0x00000000       0x18 /opt/microchip/harmony/v1_03/bin/framework/peripheral/PIC32MZ1024ECG064_peripherals.a(peripheral.o)
 .text.PLIB_ETH_DelayedCRCDisable
                0x00000000       0x18 /opt/microchip/harmony/v1_03/bin/framework/peripheral/PIC32MZ1024ECG064_peripherals.a(peripheral.o)
 .text.PLIB_ETH_DelayedCRCIsEnabled
                0x00000000       0x20 /opt/microchip/harmony/v1_03/bin/framework/peripheral/PIC32MZ1024ECG064_peripherals.a(peripheral.o)
 .text.PLIB_ETH_HugeFrameEnable
                0x00000000       0x18 /opt/microchip/harmony/v1_03/bin/framework/peripheral/PIC32MZ1024ECG064_peripherals.a(peripheral.o)
 .text.PLIB_ETH_HugeFrameDisable
                0x00000000       0x18 /opt/microchip/harmony/v1_03/bin/framework/peripheral/PIC32MZ1024ECG064_peripherals.a(peripheral.o)
 .text.PLIB_ETH_HugeFrameIsEnabled
                0x00000000       0x20 /opt/microchip/harmony/v1_03/bin/framework/peripheral/PIC32MZ1024ECG064_peripherals.a(peripheral.o)
 .text.PLIB_ETH_FrameLengthCheckEnable
                0x00000000       0x18 /opt/microchip/harmony/v1_03/bin/framework/peripheral/PIC32MZ1024ECG064_peripherals.a(peripheral.o)
 .text.PLIB_ETH_FrameLengthCheckDisable
                0x00000000       0x18 /opt/microchip/harmony/v1_03/bin/framework/peripheral/PIC32MZ1024ECG064_peripherals.a(peripheral.o)
 .text.PLIB_ETH_FrameLengthCheckIsEnabled
                0x00000000       0x20 /opt/microchip/harmony/v1_03/bin/framework/peripheral/PIC32MZ1024ECG064_peripherals.a(peripheral.o)
 .text.PLIB_ETH_FullDuplexEnable
                0x00000000       0x18 /opt/microchip/harmony/v1_03/bin/framework/peripheral/PIC32MZ1024ECG064_peripherals.a(peripheral.o)
 .text.PLIB_ETH_FullDuplexDisable
                0x00000000       0x18 /opt/microchip/harmony/v1_03/bin/framework/peripheral/PIC32MZ1024ECG064_peripherals.a(peripheral.o)
 .text.PLIB_ETH_FullDuplexIsEnabled
                0x00000000       0x20 /opt/microchip/harmony/v1_03/bin/framework/peripheral/PIC32MZ1024ECG064_peripherals.a(peripheral.o)
 .text.PLIB_ETH_ExistsMAC_Configuration
                0x00000000        0x8 /opt/microchip/harmony/v1_03/bin/framework/peripheral/PIC32MZ1024ECG064_peripherals.a(peripheral.o)
 .text.PLIB_ETH_BackToBackIPGGet
                0x00000000       0x20 /opt/microchip/harmony/v1_03/bin/framework/peripheral/PIC32MZ1024ECG064_peripherals.a(peripheral.o)
 .text.PLIB_ETH_BackToBackIPGSet
                0x00000000       0x2c /opt/microchip/harmony/v1_03/bin/framework/peripheral/PIC32MZ1024ECG064_peripherals.a(peripheral.o)
 .text.PLIB_ETH_NonBackToBackIPG1Get
                0x00000000       0x20 /opt/microchip/harmony/v1_03/bin/framework/peripheral/PIC32MZ1024ECG064_peripherals.a(peripheral.o)
 .text.PLIB_ETH_NonBackToBackIPG1Set
                0x00000000       0x30 /opt/microchip/harmony/v1_03/bin/framework/peripheral/PIC32MZ1024ECG064_peripherals.a(peripheral.o)
 .text.PLIB_ETH_NonBackToBackIPG2Get
                0x00000000       0x20 /opt/microchip/harmony/v1_03/bin/framework/peripheral/PIC32MZ1024ECG064_peripherals.a(peripheral.o)
 .text.PLIB_ETH_NonBackToBackIPG2Set
                0x00000000       0x2c /opt/microchip/harmony/v1_03/bin/framework/peripheral/PIC32MZ1024ECG064_peripherals.a(peripheral.o)
 .text.PLIB_ETH_ExistsInterPacketGaps
                0x00000000        0x8 /opt/microchip/harmony/v1_03/bin/framework/peripheral/PIC32MZ1024ECG064_peripherals.a(peripheral.o)
 .text.PLIB_ETH_CollisionWindowGet
                0x00000000       0x20 /opt/microchip/harmony/v1_03/bin/framework/peripheral/PIC32MZ1024ECG064_peripherals.a(peripheral.o)
 .text.PLIB_ETH_CollisionWindowSet
                0x00000000       0x30 /opt/microchip/harmony/v1_03/bin/framework/peripheral/PIC32MZ1024ECG064_peripherals.a(peripheral.o)
 .text.PLIB_ETH_ExistsCollisionWindow
                0x00000000        0x8 /opt/microchip/harmony/v1_03/bin/framework/peripheral/PIC32MZ1024ECG064_peripherals.a(peripheral.o)
 .text.PLIB_ETH_ReTxMaxGet
                0x00000000       0x20 /opt/microchip/harmony/v1_03/bin/framework/peripheral/PIC32MZ1024ECG064_peripherals.a(peripheral.o)
 .text.PLIB_ETH_ReTxMaxSet
                0x00000000       0x2c /opt/microchip/harmony/v1_03/bin/framework/peripheral/PIC32MZ1024ECG064_peripherals.a(peripheral.o)
 .text.PLIB_ETH_ExistsRetransmissionMaximum
                0x00000000        0x8 /opt/microchip/harmony/v1_03/bin/framework/peripheral/PIC32MZ1024ECG064_peripherals.a(peripheral.o)
 .text.PLIB_ETH_MaxFrameLengthGet
                0x00000000       0x20 /opt/microchip/harmony/v1_03/bin/framework/peripheral/PIC32MZ1024ECG064_peripherals.a(peripheral.o)
 .text.PLIB_ETH_MaxFrameLengthSet
                0x00000000       0x28 /opt/microchip/harmony/v1_03/bin/framework/peripheral/PIC32MZ1024ECG064_peripherals.a(peripheral.o)
 .text.PLIB_ETH_ExistsMaxFrameLength
                0x00000000        0x8 /opt/microchip/harmony/v1_03/bin/framework/peripheral/PIC32MZ1024ECG064_peripherals.a(peripheral.o)
 .text.PLIB_ETH_RMIIResetEnable
                0x00000000       0x18 /opt/microchip/harmony/v1_03/bin/framework/peripheral/PIC32MZ1024ECG064_peripherals.a(peripheral.o)
 .text.PLIB_ETH_RMIIResetDisable
                0x00000000       0x18 /opt/microchip/harmony/v1_03/bin/framework/peripheral/PIC32MZ1024ECG064_peripherals.a(peripheral.o)
 .text.PLIB_ETH_RMIIResetIsEnabled
                0x00000000       0x20 /opt/microchip/harmony/v1_03/bin/framework/peripheral/PIC32MZ1024ECG064_peripherals.a(peripheral.o)
 .text.PLIB_ETH_RMIISpeedGet
                0x00000000       0x20 /opt/microchip/harmony/v1_03/bin/framework/peripheral/PIC32MZ1024ECG064_peripherals.a(peripheral.o)
 .text.PLIB_ETH_RMIISpeedSet
                0x00000000       0x2c /opt/microchip/harmony/v1_03/bin/framework/peripheral/PIC32MZ1024ECG064_peripherals.a(peripheral.o)
 .text.PLIB_ETH_ExistsRMII_Support
                0x00000000        0x8 /opt/microchip/harmony/v1_03/bin/framework/peripheral/PIC32MZ1024ECG064_peripherals.a(peripheral.o)
 .text.PLIB_ETH_TestBackPressEnable
                0x00000000       0x18 /opt/microchip/harmony/v1_03/bin/framework/peripheral/PIC32MZ1024ECG064_peripherals.a(peripheral.o)
 .text.PLIB_ETH_TestBackPressDisable
                0x00000000       0x18 /opt/microchip/harmony/v1_03/bin/framework/peripheral/PIC32MZ1024ECG064_peripherals.a(peripheral.o)
 .text.PLIB_ETH_TestBackPressIsEnabled
                0x00000000       0x20 /opt/microchip/harmony/v1_03/bin/framework/peripheral/PIC32MZ1024ECG064_peripherals.a(peripheral.o)
 .text.PLIB_ETH_TestPauseEnable
                0x00000000       0x18 /opt/microchip/harmony/v1_03/bin/framework/peripheral/PIC32MZ1024ECG064_peripherals.a(peripheral.o)
 .text.PLIB_ETH_TestPauseDisable
                0x00000000       0x18 /opt/microchip/harmony/v1_03/bin/framework/peripheral/PIC32MZ1024ECG064_peripherals.a(peripheral.o)
 .text.PLIB_ETH_TestPauseIsEnabled
                0x00000000       0x20 /opt/microchip/harmony/v1_03/bin/framework/peripheral/PIC32MZ1024ECG064_peripherals.a(peripheral.o)
 .text.PLIB_ETH_ShortcutQuantaEnable
                0x00000000       0x18 /opt/microchip/harmony/v1_03/bin/framework/peripheral/PIC32MZ1024ECG064_peripherals.a(peripheral.o)
 .text.PLIB_ETH_ShortcutQuantaDisable
                0x00000000       0x18 /opt/microchip/harmony/v1_03/bin/framework/peripheral/PIC32MZ1024ECG064_peripherals.a(peripheral.o)
 .text.PLIB_ETH_ShortcutQuantaIsEnabled
                0x00000000       0x20 /opt/microchip/harmony/v1_03/bin/framework/peripheral/PIC32MZ1024ECG064_peripherals.a(peripheral.o)
 .text.PLIB_ETH_ExistsMAC_Testing
                0x00000000        0x8 /opt/microchip/harmony/v1_03/bin/framework/peripheral/PIC32MZ1024ECG064_peripherals.a(peripheral.o)
 .text.PLIB_ETH_MIIMResetEnable
                0x00000000       0x18 /opt/microchip/harmony/v1_03/bin/framework/peripheral/PIC32MZ1024ECG064_peripherals.a(peripheral.o)
 .text.PLIB_ETH_MIIMResetDisable
                0x00000000       0x18 /opt/microchip/harmony/v1_03/bin/framework/peripheral/PIC32MZ1024ECG064_peripherals.a(peripheral.o)
 .text.PLIB_ETH_MIIMResetIsEnabled
                0x00000000       0x20 /opt/microchip/harmony/v1_03/bin/framework/peripheral/PIC32MZ1024ECG064_peripherals.a(peripheral.o)
 .text.PLIB_ETH_MIIMClockGet
                0x00000000       0x20 /opt/microchip/harmony/v1_03/bin/framework/peripheral/PIC32MZ1024ECG064_peripherals.a(peripheral.o)
 .text.PLIB_ETH_MIIMClockSet
                0x00000000       0x2c /opt/microchip/harmony/v1_03/bin/framework/peripheral/PIC32MZ1024ECG064_peripherals.a(peripheral.o)
 .text.PLIB_ETH_MIIMNoPreEnable
                0x00000000       0x18 /opt/microchip/harmony/v1_03/bin/framework/peripheral/PIC32MZ1024ECG064_peripherals.a(peripheral.o)
 .text.PLIB_ETH_MIIMNoPreDisable
                0x00000000       0x18 /opt/microchip/harmony/v1_03/bin/framework/peripheral/PIC32MZ1024ECG064_peripherals.a(peripheral.o)
 .text.PLIB_ETH_MIIMNoPreIsEnabled
                0x00000000       0x20 /opt/microchip/harmony/v1_03/bin/framework/peripheral/PIC32MZ1024ECG064_peripherals.a(peripheral.o)
 .text.PLIB_ETH_MIIMScanIncrEnable
                0x00000000       0x18 /opt/microchip/harmony/v1_03/bin/framework/peripheral/PIC32MZ1024ECG064_peripherals.a(peripheral.o)
 .text.PLIB_ETH_MIIMScanIncrDisable
                0x00000000       0x18 /opt/microchip/harmony/v1_03/bin/framework/peripheral/PIC32MZ1024ECG064_peripherals.a(peripheral.o)
 .text.PLIB_ETH_MIIMScanIncrIsEnabled
                0x00000000       0x20 /opt/microchip/harmony/v1_03/bin/framework/peripheral/PIC32MZ1024ECG064_peripherals.a(peripheral.o)
 .text.PLIB_ETH_ExistsMIIM_Config
                0x00000000        0x8 /opt/microchip/harmony/v1_03/bin/framework/peripheral/PIC32MZ1024ECG064_peripherals.a(peripheral.o)
 .text.PLIB_ETH_MIIMScanModeEnable
                0x00000000       0x18 /opt/microchip/harmony/v1_03/bin/framework/peripheral/PIC32MZ1024ECG064_peripherals.a(peripheral.o)
 .text.PLIB_ETH_MIIMScanModeDisable
                0x00000000       0x18 /opt/microchip/harmony/v1_03/bin/framework/peripheral/PIC32MZ1024ECG064_peripherals.a(peripheral.o)
 .text.PLIB_ETH_MIIMScanModeIsEnabled
                0x00000000       0x20 /opt/microchip/harmony/v1_03/bin/framework/peripheral/PIC32MZ1024ECG064_peripherals.a(peripheral.o)
 .text.PLIB_ETH_ExistsMIIMScanMode
                0x00000000        0x8 /opt/microchip/harmony/v1_03/bin/framework/peripheral/PIC32MZ1024ECG064_peripherals.a(peripheral.o)
 .text.PLIB_ETH_MIIMReadStart
                0x00000000       0x58 /opt/microchip/harmony/v1_03/bin/framework/peripheral/PIC32MZ1024ECG064_peripherals.a(peripheral.o)
 .text.PLIB_ETH_MIIMWriteStart
                0x00000000       0x18 /opt/microchip/harmony/v1_03/bin/framework/peripheral/PIC32MZ1024ECG064_peripherals.a(peripheral.o)
 .text.PLIB_ETH_ExistsMIIMReadWrite
                0x00000000        0x8 /opt/microchip/harmony/v1_03/bin/framework/peripheral/PIC32MZ1024ECG064_peripherals.a(peripheral.o)
 .text.PLIB_ETH_PHYAddressGet
                0x00000000       0x20 /opt/microchip/harmony/v1_03/bin/framework/peripheral/PIC32MZ1024ECG064_peripherals.a(peripheral.o)
 .text.PLIB_ETH_PHYAddressSet
                0x00000000       0x30 /opt/microchip/harmony/v1_03/bin/framework/peripheral/PIC32MZ1024ECG064_peripherals.a(peripheral.o)
 .text.PLIB_ETH_RegisterAddressGet
                0x00000000       0x24 /opt/microchip/harmony/v1_03/bin/framework/peripheral/PIC32MZ1024ECG064_peripherals.a(peripheral.o)
 .text.PLIB_ETH_RegisterAddressSet
                0x00000000       0x2c /opt/microchip/harmony/v1_03/bin/framework/peripheral/PIC32MZ1024ECG064_peripherals.a(peripheral.o)
 .text.PLIB_ETH_ExistsMIIMAddresses
                0x00000000        0x8 /opt/microchip/harmony/v1_03/bin/framework/peripheral/PIC32MZ1024ECG064_peripherals.a(peripheral.o)
 .text.PLIB_ETH_MIIMWriteDataSet
                0x00000000       0x68 /opt/microchip/harmony/v1_03/bin/framework/peripheral/PIC32MZ1024ECG064_peripherals.a(peripheral.o)
 .text.PLIB_ETH_MIIMReadDataGet
                0x00000000       0x20 /opt/microchip/harmony/v1_03/bin/framework/peripheral/PIC32MZ1024ECG064_peripherals.a(peripheral.o)
 .text.PLIB_ETH_ExistsMIIWriteReadData
                0x00000000        0x8 /opt/microchip/harmony/v1_03/bin/framework/peripheral/PIC32MZ1024ECG064_peripherals.a(peripheral.o)
 .text.PLIB_ETH_LinkHasFailed
                0x00000000       0x20 /opt/microchip/harmony/v1_03/bin/framework/peripheral/PIC32MZ1024ECG064_peripherals.a(peripheral.o)
 .text.PLIB_ETH_DataNotValid
                0x00000000       0x20 /opt/microchip/harmony/v1_03/bin/framework/peripheral/PIC32MZ1024ECG064_peripherals.a(peripheral.o)
 .text.PLIB_ETH_MIIMIsScanning
                0x00000000       0x20 /opt/microchip/harmony/v1_03/bin/framework/peripheral/PIC32MZ1024ECG064_peripherals.a(peripheral.o)
 .text.PLIB_ETH_MIIMIsBusy
                0x00000000       0x20 /opt/microchip/harmony/v1_03/bin/framework/peripheral/PIC32MZ1024ECG064_peripherals.a(peripheral.o)
 .text.PLIB_ETH_ExistsMIIM_Indicators
                0x00000000        0x8 /opt/microchip/harmony/v1_03/bin/framework/peripheral/PIC32MZ1024ECG064_peripherals.a(peripheral.o)
 .text.PLIB_ETH_StationAddressGet
                0x00000000      0x178 /opt/microchip/harmony/v1_03/bin/framework/peripheral/PIC32MZ1024ECG064_peripherals.a(peripheral.o)
 .text.PLIB_ETH_StationAddressSet
                0x00000000      0x2c8 /opt/microchip/harmony/v1_03/bin/framework/peripheral/PIC32MZ1024ECG064_peripherals.a(peripheral.o)
 .text.PLIB_ETH_ExistsStationAddress
                0x00000000        0x8 /opt/microchip/harmony/v1_03/bin/framework/peripheral/PIC32MZ1024ECG064_peripherals.a(peripheral.o)
 .text.PLIB_I2C_SlaveClockStretchingEnable
                0x00000000       0x70 /opt/microchip/harmony/v1_03/bin/framework/peripheral/PIC32MZ1024ECG064_peripherals.a(peripheral.o)
 .text.PLIB_I2C_SlaveClockStretchingDisable
                0x00000000       0x70 /opt/microchip/harmony/v1_03/bin/framework/peripheral/PIC32MZ1024ECG064_peripherals.a(peripheral.o)
 .text.PLIB_I2C_ExistsClockStretching
                0x00000000        0x8 /opt/microchip/harmony/v1_03/bin/framework/peripheral/PIC32MZ1024ECG064_peripherals.a(peripheral.o)
 .text.PLIB_I2C_GeneralCallEnable
                0x00000000       0x70 /opt/microchip/harmony/v1_03/bin/framework/peripheral/PIC32MZ1024ECG064_peripherals.a(peripheral.o)
 .text.PLIB_I2C_GeneralCallDisable
                0x00000000       0x70 /opt/microchip/harmony/v1_03/bin/framework/peripheral/PIC32MZ1024ECG064_peripherals.a(peripheral.o)
 .text.PLIB_I2C_ExistsGeneralCall
                0x00000000        0x8 /opt/microchip/harmony/v1_03/bin/framework/peripheral/PIC32MZ1024ECG064_peripherals.a(peripheral.o)
 .text.PLIB_I2C_SMBEnable
                0x00000000       0x70 /opt/microchip/harmony/v1_03/bin/framework/peripheral/PIC32MZ1024ECG064_peripherals.a(peripheral.o)
 .text.PLIB_I2C_SMBDisable
                0x00000000       0x70 /opt/microchip/harmony/v1_03/bin/framework/peripheral/PIC32MZ1024ECG064_peripherals.a(peripheral.o)
 .text.PLIB_I2C_ExistsSMBus
                0x00000000        0x8 /opt/microchip/harmony/v1_03/bin/framework/peripheral/PIC32MZ1024ECG064_peripherals.a(peripheral.o)
 .text.PLIB_I2C_HighFrequencyEnable
                0x00000000       0x70 /opt/microchip/harmony/v1_03/bin/framework/peripheral/PIC32MZ1024ECG064_peripherals.a(peripheral.o)
 .text.PLIB_I2C_ExistsHighFrequency
                0x00000000        0x8 /opt/microchip/harmony/v1_03/bin/framework/peripheral/PIC32MZ1024ECG064_peripherals.a(peripheral.o)
 .text.PLIB_I2C_ReservedAddressProtectEnable
                0x00000000       0x70 /opt/microchip/harmony/v1_03/bin/framework/peripheral/PIC32MZ1024ECG064_peripherals.a(peripheral.o)
 .text.PLIB_I2C_ReservedAddressProtectDisable
                0x00000000       0x70 /opt/microchip/harmony/v1_03/bin/framework/peripheral/PIC32MZ1024ECG064_peripherals.a(peripheral.o)
 .text.PLIB_I2C_ExistsReservedAddressProtect
                0x00000000        0x8 /opt/microchip/harmony/v1_03/bin/framework/peripheral/PIC32MZ1024ECG064_peripherals.a(peripheral.o)
 .text.PLIB_I2C_StopInIdleEnable
                0x00000000       0x70 /opt/microchip/harmony/v1_03/bin/framework/peripheral/PIC32MZ1024ECG064_peripherals.a(peripheral.o)
 .text.PLIB_I2C_ExistsStopInIdle
                0x00000000        0x8 /opt/microchip/harmony/v1_03/bin/framework/peripheral/PIC32MZ1024ECG064_peripherals.a(peripheral.o)
 .text.PLIB_I2C_IPMIEnable
                0x00000000        0x8 /opt/microchip/harmony/v1_03/bin/framework/peripheral/PIC32MZ1024ECG064_peripherals.a(peripheral.o)
 .text.PLIB_I2C_IPMIDisable
                0x00000000        0x8 /opt/microchip/harmony/v1_03/bin/framework/peripheral/PIC32MZ1024ECG064_peripherals.a(peripheral.o)
 .text.PLIB_I2C_ExistsIPMI
                0x00000000        0x8 /opt/microchip/harmony/v1_03/bin/framework/peripheral/PIC32MZ1024ECG064_peripherals.a(peripheral.o)
 .text.PLIB_I2C_ExistsModuleEnable
                0x00000000        0x8 /opt/microchip/harmony/v1_03/bin/framework/peripheral/PIC32MZ1024ECG064_peripherals.a(peripheral.o)
 .text.PLIB_I2C_StartClear
                0x00000000       0x70 /opt/microchip/harmony/v1_03/bin/framework/peripheral/PIC32MZ1024ECG064_peripherals.a(peripheral.o)
 .text.PLIB_I2C_ExistsStartDetect
                0x00000000        0x8 /opt/microchip/harmony/v1_03/bin/framework/peripheral/PIC32MZ1024ECG064_peripherals.a(peripheral.o)
 .text.PLIB_I2C_StopClear
                0x00000000       0x70 /opt/microchip/harmony/v1_03/bin/framework/peripheral/PIC32MZ1024ECG064_peripherals.a(peripheral.o)
 .text.PLIB_I2C_ExistsStopDetect
                0x00000000        0x8 /opt/microchip/harmony/v1_03/bin/framework/peripheral/PIC32MZ1024ECG064_peripherals.a(peripheral.o)
 .text.PLIB_I2C_ArbitrationLossClear
                0x00000000       0x70 /opt/microchip/harmony/v1_03/bin/framework/peripheral/PIC32MZ1024ECG064_peripherals.a(peripheral.o)
 .text.PLIB_I2C_ExistsArbitrationLoss
                0x00000000        0x8 /opt/microchip/harmony/v1_03/bin/framework/peripheral/PIC32MZ1024ECG064_peripherals.a(peripheral.o)
 .text.PLIB_I2C_ExistsBusIsIdle
                0x00000000        0x8 /opt/microchip/harmony/v1_03/bin/framework/peripheral/PIC32MZ1024ECG064_peripherals.a(peripheral.o)
 .text.PLIB_I2C_BaudRateGet
                0x00000000      0x218 /opt/microchip/harmony/v1_03/bin/framework/peripheral/PIC32MZ1024ECG064_peripherals.a(peripheral.o)
 .text.PLIB_I2C_ExistsBaudRate
                0x00000000        0x8 /opt/microchip/harmony/v1_03/bin/framework/peripheral/PIC32MZ1024ECG064_peripherals.a(peripheral.o)
 .text.PLIB_I2C_SlaveAddress7BitSet
                0x00000000       0x98 /opt/microchip/harmony/v1_03/bin/framework/peripheral/PIC32MZ1024ECG064_peripherals.a(peripheral.o)
 .text.PLIB_I2C_SlaveAddress7BitGet
                0x00000000       0x6c /opt/microchip/harmony/v1_03/bin/framework/peripheral/PIC32MZ1024ECG064_peripherals.a(peripheral.o)
 .text.PLIB_I2C_ExistsSlaveAddress7Bit
                0x00000000        0x8 /opt/microchip/harmony/v1_03/bin/framework/peripheral/PIC32MZ1024ECG064_peripherals.a(peripheral.o)
 .text.PLIB_I2C_SlaveAddress10BitSet
                0x00000000       0x98 /opt/microchip/harmony/v1_03/bin/framework/peripheral/PIC32MZ1024ECG064_peripherals.a(peripheral.o)
 .text.PLIB_I2C_SlaveAddress10BitGet
                0x00000000       0x6c /opt/microchip/harmony/v1_03/bin/framework/peripheral/PIC32MZ1024ECG064_peripherals.a(peripheral.o)
 .text.PLIB_I2C_SlaveAddressModeIs10Bits
                0x00000000       0x6c /opt/microchip/harmony/v1_03/bin/framework/peripheral/PIC32MZ1024ECG064_peripherals.a(peripheral.o)
 .text.PLIB_I2C_ExistsSlaveAddress10Bit
                0x00000000        0x8 /opt/microchip/harmony/v1_03/bin/framework/peripheral/PIC32MZ1024ECG064_peripherals.a(peripheral.o)
 .text.PLIB_I2C_SlaveAddress10BitWasDetected
                0x00000000       0x6c /opt/microchip/harmony/v1_03/bin/framework/peripheral/PIC32MZ1024ECG064_peripherals.a(peripheral.o)
 .text.PLIB_I2C_ExistsSlaveAddressDetect
                0x00000000        0x8 /opt/microchip/harmony/v1_03/bin/framework/peripheral/PIC32MZ1024ECG064_peripherals.a(peripheral.o)
 .text.PLIB_I2C_SlaveAddressIsGeneralCall
                0x00000000       0x6c /opt/microchip/harmony/v1_03/bin/framework/peripheral/PIC32MZ1024ECG064_peripherals.a(peripheral.o)
 .text.PLIB_I2C_ExistsGeneralCallAddressDetect
                0x00000000        0x8 /opt/microchip/harmony/v1_03/bin/framework/peripheral/PIC32MZ1024ECG064_peripherals.a(peripheral.o)
 .text.PLIB_I2C_SlaveMask7BitSet
                0x00000000       0x68 /opt/microchip/harmony/v1_03/bin/framework/peripheral/PIC32MZ1024ECG064_peripherals.a(peripheral.o)
 .text.PLIB_I2C_SlaveMask7BitGet
                0x00000000       0x6c /opt/microchip/harmony/v1_03/bin/framework/peripheral/PIC32MZ1024ECG064_peripherals.a(peripheral.o)
 .text.PLIB_I2C_SlaveMask10BitSet
                0x00000000       0x68 /opt/microchip/harmony/v1_03/bin/framework/peripheral/PIC32MZ1024ECG064_peripherals.a(peripheral.o)
 .text.PLIB_I2C_SlaveMask10BitGet
                0x00000000       0x6c /opt/microchip/harmony/v1_03/bin/framework/peripheral/PIC32MZ1024ECG064_peripherals.a(peripheral.o)
 .text.PLIB_I2C_ExistsSlaveMask
                0x00000000        0x8 /opt/microchip/harmony/v1_03/bin/framework/peripheral/PIC32MZ1024ECG064_peripherals.a(peripheral.o)
 .text.PLIB_I2C_SlaveReadIsRequested
                0x00000000       0x6c /opt/microchip/harmony/v1_03/bin/framework/peripheral/PIC32MZ1024ECG064_peripherals.a(peripheral.o)
 .text.PLIB_I2C_ExistsSlaveReadRequest
                0x00000000        0x8 /opt/microchip/harmony/v1_03/bin/framework/peripheral/PIC32MZ1024ECG064_peripherals.a(peripheral.o)
 .text.PLIB_I2C_SlaveDataIsDetected
                0x00000000       0x6c /opt/microchip/harmony/v1_03/bin/framework/peripheral/PIC32MZ1024ECG064_peripherals.a(peripheral.o)
 .text.PLIB_I2C_SlaveAddressIsDetected
                0x00000000       0x7c /opt/microchip/harmony/v1_03/bin/framework/peripheral/PIC32MZ1024ECG064_peripherals.a(peripheral.o)
 .text.PLIB_I2C_ExistsSlaveDataDetect
                0x00000000        0x8 /opt/microchip/harmony/v1_03/bin/framework/peripheral/PIC32MZ1024ECG064_peripherals.a(peripheral.o)
 .text.PLIB_I2C_SlaveClockHold
                0x00000000       0x70 /opt/microchip/harmony/v1_03/bin/framework/peripheral/PIC32MZ1024ECG064_peripherals.a(peripheral.o)
 .text.PLIB_I2C_SlaveClockRelease
                0x00000000       0x70 /opt/microchip/harmony/v1_03/bin/framework/peripheral/PIC32MZ1024ECG064_peripherals.a(peripheral.o)
 .text.PLIB_I2C_ExistsSlaveClockHold
                0x00000000        0x8 /opt/microchip/harmony/v1_03/bin/framework/peripheral/PIC32MZ1024ECG064_peripherals.a(peripheral.o)
 .text.PLIB_I2C_ExistsMasterStart
                0x00000000        0x8 /opt/microchip/harmony/v1_03/bin/framework/peripheral/PIC32MZ1024ECG064_peripherals.a(peripheral.o)
 .text.PLIB_I2C_ExistsMasterStartRepeat
                0x00000000        0x8 /opt/microchip/harmony/v1_03/bin/framework/peripheral/PIC32MZ1024ECG064_peripherals.a(peripheral.o)
 .text.PLIB_I2C_ExistsMasterReceiverClock1Byte
                0x00000000        0x8 /opt/microchip/harmony/v1_03/bin/framework/peripheral/PIC32MZ1024ECG064_peripherals.a(peripheral.o)
 .text.PLIB_I2C_ExistsMasterStop
                0x00000000        0x8 /opt/microchip/harmony/v1_03/bin/framework/peripheral/PIC32MZ1024ECG064_peripherals.a(peripheral.o)
 .text.PLIB_I2C_TransmitterIsReady
                0x00000000       0x7c /opt/microchip/harmony/v1_03/bin/framework/peripheral/PIC32MZ1024ECG064_peripherals.a(peripheral.o)
 .text.PLIB_I2C_ExistsTransmitterIsBusy
                0x00000000        0x8 /opt/microchip/harmony/v1_03/bin/framework/peripheral/PIC32MZ1024ECG064_peripherals.a(peripheral.o)
 .text.PLIB_I2C_ExistsTransmitterByteSend
                0x00000000        0x8 /opt/microchip/harmony/v1_03/bin/framework/peripheral/PIC32MZ1024ECG064_peripherals.a(peripheral.o)
 .text.PLIB_I2C_ExistsTransmitterByteComplete
                0x00000000        0x8 /opt/microchip/harmony/v1_03/bin/framework/peripheral/PIC32MZ1024ECG064_peripherals.a(peripheral.o)
 .text.PLIB_I2C_ExistsTransmitterByteAcknowledge
                0x00000000        0x8 /opt/microchip/harmony/v1_03/bin/framework/peripheral/PIC32MZ1024ECG064_peripherals.a(peripheral.o)
 .text.PLIB_I2C_ExistsTransmitterOverflow
                0x00000000        0x8 /opt/microchip/harmony/v1_03/bin/framework/peripheral/PIC32MZ1024ECG064_peripherals.a(peripheral.o)
 .text.PLIB_I2C_ReceivedByteIsAvailable
                0x00000000       0x6c /opt/microchip/harmony/v1_03/bin/framework/peripheral/PIC32MZ1024ECG064_peripherals.a(peripheral.o)
 .text.PLIB_I2C_ExistsReceivedByteAvailable
                0x00000000        0x8 /opt/microchip/harmony/v1_03/bin/framework/peripheral/PIC32MZ1024ECG064_peripherals.a(peripheral.o)
 .text.PLIB_I2C_ExistsReceivedByteGet
                0x00000000        0x8 /opt/microchip/harmony/v1_03/bin/framework/peripheral/PIC32MZ1024ECG064_peripherals.a(peripheral.o)
 .text.PLIB_I2C_ReceiverByteAcknowledgeHasCompleted
                0x00000000       0x6c /opt/microchip/harmony/v1_03/bin/framework/peripheral/PIC32MZ1024ECG064_peripherals.a(peripheral.o)
 .text.PLIB_I2C_ExistsReceivedByteAcknowledge
                0x00000000        0x8 /opt/microchip/harmony/v1_03/bin/framework/peripheral/PIC32MZ1024ECG064_peripherals.a(peripheral.o)
 .text.PLIB_I2C_ExistsReceiverOverflow
                0x00000000        0x8 /opt/microchip/harmony/v1_03/bin/framework/peripheral/PIC32MZ1024ECG064_peripherals.a(peripheral.o)
 .text.PLIB_I2C_SlaveInterruptOnStopEnable
                0x00000000       0x70 /opt/microchip/harmony/v1_03/bin/framework/peripheral/PIC32MZ1024ECG064_peripherals.a(peripheral.o)
 .text.PLIB_I2C_SlaveInterruptOnStopDisable
                0x00000000       0x70 /opt/microchip/harmony/v1_03/bin/framework/peripheral/PIC32MZ1024ECG064_peripherals.a(peripheral.o)
 .text.PLIB_I2C_ExistsSlaveInterruptOnStop
                0x00000000        0x8 /opt/microchip/harmony/v1_03/bin/framework/peripheral/PIC32MZ1024ECG064_peripherals.a(peripheral.o)
 .text.PLIB_I2C_SlaveInterruptOnStartEnable
                0x00000000       0x70 /opt/microchip/harmony/v1_03/bin/framework/peripheral/PIC32MZ1024ECG064_peripherals.a(peripheral.o)
 .text.PLIB_I2C_SlaveInterruptOnStartDisable
                0x00000000       0x70 /opt/microchip/harmony/v1_03/bin/framework/peripheral/PIC32MZ1024ECG064_peripherals.a(peripheral.o)
 .text.PLIB_I2C_ExistsSlaveInterruptOnStart
                0x00000000        0x8 /opt/microchip/harmony/v1_03/bin/framework/peripheral/PIC32MZ1024ECG064_peripherals.a(peripheral.o)
 .text.PLIB_I2C_SlaveBufferOverwriteEnable
                0x00000000       0x70 /opt/microchip/harmony/v1_03/bin/framework/peripheral/PIC32MZ1024ECG064_peripherals.a(peripheral.o)
 .text.PLIB_I2C_SlaveBufferOverwriteDisable
                0x00000000       0x70 /opt/microchip/harmony/v1_03/bin/framework/peripheral/PIC32MZ1024ECG064_peripherals.a(peripheral.o)
 .text.PLIB_I2C_ExistsSlaveBufferOverwrite
                0x00000000        0x8 /opt/microchip/harmony/v1_03/bin/framework/peripheral/PIC32MZ1024ECG064_peripherals.a(peripheral.o)
 .text.PLIB_I2C_DataLineHoldTimeSet
                0x00000000       0x74 /opt/microchip/harmony/v1_03/bin/framework/peripheral/PIC32MZ1024ECG064_peripherals.a(peripheral.o)
 .text.PLIB_I2C_ExistsDataLineHoldTime
                0x00000000        0x8 /opt/microchip/harmony/v1_03/bin/framework/peripheral/PIC32MZ1024ECG064_peripherals.a(peripheral.o)
 .text.PLIB_I2C_SlaveBusCollisionDetectEnable
                0x00000000       0x70 /opt/microchip/harmony/v1_03/bin/framework/peripheral/PIC32MZ1024ECG064_peripherals.a(peripheral.o)
 .text.PLIB_I2C_SlaveBusCollisionDetectDisable
                0x00000000       0x70 /opt/microchip/harmony/v1_03/bin/framework/peripheral/PIC32MZ1024ECG064_peripherals.a(peripheral.o)
 .text.PLIB_I2C_ExistsSlaveBusCollisionDetect
                0x00000000        0x8 /opt/microchip/harmony/v1_03/bin/framework/peripheral/PIC32MZ1024ECG064_peripherals.a(peripheral.o)
 .text.PLIB_I2C_SlaveAddressHoldEnable
                0x00000000       0x70 /opt/microchip/harmony/v1_03/bin/framework/peripheral/PIC32MZ1024ECG064_peripherals.a(peripheral.o)
 .text.PLIB_I2C_SlaveAddressHoldDisable
                0x00000000       0x70 /opt/microchip/harmony/v1_03/bin/framework/peripheral/PIC32MZ1024ECG064_peripherals.a(peripheral.o)
 .text.PLIB_I2C_ExistsSlaveAddressHoldEnable
                0x00000000        0x8 /opt/microchip/harmony/v1_03/bin/framework/peripheral/PIC32MZ1024ECG064_peripherals.a(peripheral.o)
 .text.PLIB_I2C_SlaveDataHoldEnable
                0x00000000       0x70 /opt/microchip/harmony/v1_03/bin/framework/peripheral/PIC32MZ1024ECG064_peripherals.a(peripheral.o)
 .text.PLIB_I2C_SlaveDataHoldDisable
                0x00000000       0x70 /opt/microchip/harmony/v1_03/bin/framework/peripheral/PIC32MZ1024ECG064_peripherals.a(peripheral.o)
 .text.PLIB_I2C_ExistsSlaveDataHoldEnable
                0x00000000        0x8 /opt/microchip/harmony/v1_03/bin/framework/peripheral/PIC32MZ1024ECG064_peripherals.a(peripheral.o)
 .text.PLIB_I2C_AcksequenceIsInProgress
                0x00000000       0x6c /opt/microchip/harmony/v1_03/bin/framework/peripheral/PIC32MZ1024ECG064_peripherals.a(peripheral.o)
 .text.PLIB_I2C_ExistsAcksequenceProgress
                0x00000000        0x8 /opt/microchip/harmony/v1_03/bin/framework/peripheral/PIC32MZ1024ECG064_peripherals.a(peripheral.o)
 .text.PLIB_IC_Enable
                0x00000000       0xe0 /opt/microchip/harmony/v1_03/bin/framework/peripheral/PIC32MZ1024ECG064_peripherals.a(peripheral.o)
 .text.PLIB_IC_Disable
                0x00000000       0xe0 /opt/microchip/harmony/v1_03/bin/framework/peripheral/PIC32MZ1024ECG064_peripherals.a(peripheral.o)
 .text.PLIB_IC_ExistsEnable
                0x00000000        0x8 /opt/microchip/harmony/v1_03/bin/framework/peripheral/PIC32MZ1024ECG064_peripherals.a(peripheral.o)
 .text.PLIB_IC_StopInIdleEnable
                0x00000000       0xe0 /opt/microchip/harmony/v1_03/bin/framework/peripheral/PIC32MZ1024ECG064_peripherals.a(peripheral.o)
 .text.PLIB_IC_StopInIdleDisable
                0x00000000       0xe0 /opt/microchip/harmony/v1_03/bin/framework/peripheral/PIC32MZ1024ECG064_peripherals.a(peripheral.o)
 .text.PLIB_IC_ExistsStopInIdle
                0x00000000        0x8 /opt/microchip/harmony/v1_03/bin/framework/peripheral/PIC32MZ1024ECG064_peripherals.a(peripheral.o)
 .text.PLIB_IC_FirstCaptureEdgeSelect
                0x00000000       0xe0 /opt/microchip/harmony/v1_03/bin/framework/peripheral/PIC32MZ1024ECG064_peripherals.a(peripheral.o)
 .text.PLIB_IC_ExistsEdgeCapture
                0x00000000        0x8 /opt/microchip/harmony/v1_03/bin/framework/peripheral/PIC32MZ1024ECG064_peripherals.a(peripheral.o)
 .text.PLIB_IC_EventsPerInterruptSelect
                0x00000000       0xe0 /opt/microchip/harmony/v1_03/bin/framework/peripheral/PIC32MZ1024ECG064_peripherals.a(peripheral.o)
 .text.PLIB_IC_ExistsEventsPerInterruptSelect
                0x00000000        0x8 /opt/microchip/harmony/v1_03/bin/framework/peripheral/PIC32MZ1024ECG064_peripherals.a(peripheral.o)
 .text.PLIB_IC_Buffer32BitGet
                0x00000000      0x110 /opt/microchip/harmony/v1_03/bin/framework/peripheral/PIC32MZ1024ECG064_peripherals.a(peripheral.o)
 .text.PLIB_IC_Buffer16BitGet
                0x00000000      0x110 /opt/microchip/harmony/v1_03/bin/framework/peripheral/PIC32MZ1024ECG064_peripherals.a(peripheral.o)
 .text.PLIB_IC_ExistsBufferValue
                0x00000000        0x8 /opt/microchip/harmony/v1_03/bin/framework/peripheral/PIC32MZ1024ECG064_peripherals.a(peripheral.o)
 .text.PLIB_IC_BufferIsEmpty
                0x00000000       0xec /opt/microchip/harmony/v1_03/bin/framework/peripheral/PIC32MZ1024ECG064_peripherals.a(peripheral.o)
 .text.PLIB_IC_ExistsBufferIsEmptyStatus
                0x00000000        0x8 /opt/microchip/harmony/v1_03/bin/framework/peripheral/PIC32MZ1024ECG064_peripherals.a(peripheral.o)
 .text.PLIB_IC_BufferOverflowHasOccurred
                0x00000000       0xec /opt/microchip/harmony/v1_03/bin/framework/peripheral/PIC32MZ1024ECG064_peripherals.a(peripheral.o)
 .text.PLIB_IC_ExistsBufferOverflowStatus
                0x00000000        0x8 /opt/microchip/harmony/v1_03/bin/framework/peripheral/PIC32MZ1024ECG064_peripherals.a(peripheral.o)
 .text.PLIB_IC_ModeSelect
                0x00000000       0xe0 /opt/microchip/harmony/v1_03/bin/framework/peripheral/PIC32MZ1024ECG064_peripherals.a(peripheral.o)
 .text.PLIB_IC_ExistsCaptureMode
                0x00000000        0x8 /opt/microchip/harmony/v1_03/bin/framework/peripheral/PIC32MZ1024ECG064_peripherals.a(peripheral.o)
 .text.PLIB_IC_BufferSizeSelect
                0x00000000       0xe0 /opt/microchip/harmony/v1_03/bin/framework/peripheral/PIC32MZ1024ECG064_peripherals.a(peripheral.o)
 .text.PLIB_IC_ExistsBufferSize
                0x00000000        0x8 /opt/microchip/harmony/v1_03/bin/framework/peripheral/PIC32MZ1024ECG064_peripherals.a(peripheral.o)
 .text.PLIB_IC_TimerSelect
                0x00000000       0xe0 /opt/microchip/harmony/v1_03/bin/framework/peripheral/PIC32MZ1024ECG064_peripherals.a(peripheral.o)
 .text.PLIB_IC_ExistsTimerSelect
                0x00000000        0x8 /opt/microchip/harmony/v1_03/bin/framework/peripheral/PIC32MZ1024ECG064_peripherals.a(peripheral.o)
 .text.PLIB_IC_AlternateClockEnable
                0x00000000      0x140 /opt/microchip/harmony/v1_03/bin/framework/peripheral/PIC32MZ1024ECG064_peripherals.a(peripheral.o)
 .text.PLIB_IC_AlternateClockDisable
                0x00000000      0x11c /opt/microchip/harmony/v1_03/bin/framework/peripheral/PIC32MZ1024ECG064_peripherals.a(peripheral.o)
 .text.PLIB_IC_ExistsAlternateClock
                0x00000000        0x8 /opt/microchip/harmony/v1_03/bin/framework/peripheral/PIC32MZ1024ECG064_peripherals.a(peripheral.o)
 .text.PLIB_IC_AlternateTimerSelect
                0x00000000       0xec /opt/microchip/harmony/v1_03/bin/framework/peripheral/PIC32MZ1024ECG064_peripherals.a(peripheral.o)
 .text.PLIB_IC_ExistsAlternateTimerSelect
                0x00000000        0x8 /opt/microchip/harmony/v1_03/bin/framework/peripheral/PIC32MZ1024ECG064_peripherals.a(peripheral.o)
 .text.PLIB_IC_ClockSourceSelect
                0x00000000        0x8 /opt/microchip/harmony/v1_03/bin/framework/peripheral/PIC32MZ1024ECG064_peripherals.a(peripheral.o)
 .text.PLIB_IC_ExistsClockSource
                0x00000000        0x8 /opt/microchip/harmony/v1_03/bin/framework/peripheral/PIC32MZ1024ECG064_peripherals.a(peripheral.o)
 .text.PLIB_IC_SyncModeSelect
                0x00000000        0x8 /opt/microchip/harmony/v1_03/bin/framework/peripheral/PIC32MZ1024ECG064_peripherals.a(peripheral.o)
 .text.PLIB_IC_ExistsSyncMode
                0x00000000        0x8 /opt/microchip/harmony/v1_03/bin/framework/peripheral/PIC32MZ1024ECG064_peripherals.a(peripheral.o)
 .text.PLIB_IC_SyncModeInputSelect
                0x00000000        0x8 /opt/microchip/harmony/v1_03/bin/framework/peripheral/PIC32MZ1024ECG064_peripherals.a(peripheral.o)
 .text.PLIB_IC_ExistsSyncModeInput
                0x00000000        0x8 /opt/microchip/harmony/v1_03/bin/framework/peripheral/PIC32MZ1024ECG064_peripherals.a(peripheral.o)
 .text.PLIB_IC_TimerIsTriggered
                0x00000000        0x8 /opt/microchip/harmony/v1_03/bin/framework/peripheral/PIC32MZ1024ECG064_peripherals.a(peripheral.o)
 .text.PLIB_IC_ExistsTimerTriggered
                0x00000000        0x8 /opt/microchip/harmony/v1_03/bin/framework/peripheral/PIC32MZ1024ECG064_peripherals.a(peripheral.o)
 .text.PLIB_INT_ExistsSingleVectorShadowSet
                0x00000000        0x8 /opt/microchip/harmony/v1_03/bin/framework/peripheral/PIC32MZ1024ECG064_peripherals.a(peripheral.o)
 .text.PLIB_INT_SingleVectorShadowSetDisable
                0x00000000       0x18 /opt/microchip/harmony/v1_03/bin/framework/peripheral/PIC32MZ1024ECG064_peripherals.a(peripheral.o)
 .text.PLIB_INT_SingleVectorShadowSetEnable
                0x00000000       0x18 /opt/microchip/harmony/v1_03/bin/framework/peripheral/PIC32MZ1024ECG064_peripherals.a(peripheral.o)
 .text.PLIB_INT_ExistsVectorSelect
                0x00000000        0x8 /opt/microchip/harmony/v1_03/bin/framework/peripheral/PIC32MZ1024ECG064_peripherals.a(peripheral.o)
 .text.PLIB_INT_SingleVectorSelect
                0x00000000       0x18 /opt/microchip/harmony/v1_03/bin/framework/peripheral/PIC32MZ1024ECG064_peripherals.a(peripheral.o)
 .text.PLIB_INT_ExistsProximityTimerEnable
                0x00000000        0x8 /opt/microchip/harmony/v1_03/bin/framework/peripheral/PIC32MZ1024ECG064_peripherals.a(peripheral.o)
 .text.PLIB_INT_ProximityTimerEnable
                0x00000000       0x2c /opt/microchip/harmony/v1_03/bin/framework/peripheral/PIC32MZ1024ECG064_peripherals.a(peripheral.o)
 .text.PLIB_INT_ProximityTimerDisable
                0x00000000       0x18 /opt/microchip/harmony/v1_03/bin/framework/peripheral/PIC32MZ1024ECG064_peripherals.a(peripheral.o)
 .text.PLIB_INT_ExistsProximityTimerControl
                0x00000000        0x8 /opt/microchip/harmony/v1_03/bin/framework/peripheral/PIC32MZ1024ECG064_peripherals.a(peripheral.o)
 .text.PLIB_INT_ProximityTimerSet
                0x00000000       0x14 /opt/microchip/harmony/v1_03/bin/framework/peripheral/PIC32MZ1024ECG064_peripherals.a(peripheral.o)
 .text.PLIB_INT_ProximityTimerGet
                0x00000000       0x18 /opt/microchip/harmony/v1_03/bin/framework/peripheral/PIC32MZ1024ECG064_peripherals.a(peripheral.o)
 .text.PLIB_INT_ExistsExternalINTEdgeSelect
                0x00000000        0x8 /opt/microchip/harmony/v1_03/bin/framework/peripheral/PIC32MZ1024ECG064_peripherals.a(peripheral.o)
 .text.PLIB_INT_ExistsINTCPUPriority
                0x00000000        0x8 /opt/microchip/harmony/v1_03/bin/framework/peripheral/PIC32MZ1024ECG064_peripherals.a(peripheral.o)
 .text.PLIB_INT_PriorityGet
                0x00000000       0x20 /opt/microchip/harmony/v1_03/bin/framework/peripheral/PIC32MZ1024ECG064_peripherals.a(peripheral.o)
 .text.PLIB_INT_ExistsINTCPUVector
                0x00000000        0x8 /opt/microchip/harmony/v1_03/bin/framework/peripheral/PIC32MZ1024ECG064_peripherals.a(peripheral.o)
 .text.PLIB_INT_VectorGet
                0x00000000       0x20 /opt/microchip/harmony/v1_03/bin/framework/peripheral/PIC32MZ1024ECG064_peripherals.a(peripheral.o)
 .text.PLIB_INT_ExistsSourceFlag
                0x00000000        0x8 /opt/microchip/harmony/v1_03/bin/framework/peripheral/PIC32MZ1024ECG064_peripherals.a(peripheral.o)
 .text.PLIB_INT_SourceFlagGet
                0x00000000       0x38 /opt/microchip/harmony/v1_03/bin/framework/peripheral/PIC32MZ1024ECG064_peripherals.a(peripheral.o)
 .text.PLIB_INT_SourceFlagSet
                0x00000000       0x30 /opt/microchip/harmony/v1_03/bin/framework/peripheral/PIC32MZ1024ECG064_peripherals.a(peripheral.o)
 .text.PLIB_INT_ExistsSourceControl
                0x00000000        0x8 /opt/microchip/harmony/v1_03/bin/framework/peripheral/PIC32MZ1024ECG064_peripherals.a(peripheral.o)
 .text.PLIB_INT_ExistsVectorPriority
                0x00000000        0x8 /opt/microchip/harmony/v1_03/bin/framework/peripheral/PIC32MZ1024ECG064_peripherals.a(peripheral.o)
 .text.PLIB_INT_VectorPriorityGet
                0x00000000       0x30 /opt/microchip/harmony/v1_03/bin/framework/peripheral/PIC32MZ1024ECG064_peripherals.a(peripheral.o)
 .text.PLIB_INT_VectorSubPriorityGet
                0x00000000       0x30 /opt/microchip/harmony/v1_03/bin/framework/peripheral/PIC32MZ1024ECG064_peripherals.a(peripheral.o)
 .text.PLIB_INT_ExistsCPUCurrentPriorityLevel
                0x00000000        0x8 /opt/microchip/harmony/v1_03/bin/framework/peripheral/PIC32MZ1024ECG064_peripherals.a(peripheral.o)
 .text.PLIB_INT_CPUCurrentPriorityLevelGet
                0x00000000       0x1c /opt/microchip/harmony/v1_03/bin/framework/peripheral/PIC32MZ1024ECG064_peripherals.a(peripheral.o)
 .text.PLIB_INT_ExistsEnableControl
                0x00000000        0x8 /opt/microchip/harmony/v1_03/bin/framework/peripheral/PIC32MZ1024ECG064_peripherals.a(peripheral.o)
 .text.PLIB_INT_SetState
                0x00000000       0x18 /opt/microchip/harmony/v1_03/bin/framework/peripheral/PIC32MZ1024ECG064_peripherals.a(peripheral.o)
 .text.PLIB_INT_GetStateAndDisable
                0x00000000       0x18 /opt/microchip/harmony/v1_03/bin/framework/peripheral/PIC32MZ1024ECG064_peripherals.a(peripheral.o)
 .text.PLIB_INT_ExistsINTNesting
                0x00000000        0x8 /opt/microchip/harmony/v1_03/bin/framework/peripheral/PIC32MZ1024ECG064_peripherals.a(peripheral.o)
 .text.PLIB_INT_NestingEnable
                0x00000000        0x8 /opt/microchip/harmony/v1_03/bin/framework/peripheral/PIC32MZ1024ECG064_peripherals.a(peripheral.o)
 .text.PLIB_INT_NestingDisable
                0x00000000        0x8 /opt/microchip/harmony/v1_03/bin/framework/peripheral/PIC32MZ1024ECG064_peripherals.a(peripheral.o)
 .text.PLIB_INT_ExistsTrapSource
                0x00000000        0x8 /opt/microchip/harmony/v1_03/bin/framework/peripheral/PIC32MZ1024ECG064_peripherals.a(peripheral.o)
 .text.PLIB_INT_TrapSourceFlagGet
                0x00000000        0x8 /opt/microchip/harmony/v1_03/bin/framework/peripheral/PIC32MZ1024ECG064_peripherals.a(peripheral.o)
 .text.PLIB_INT_TrapSourceFlagClear
                0x00000000        0x8 /opt/microchip/harmony/v1_03/bin/framework/peripheral/PIC32MZ1024ECG064_peripherals.a(peripheral.o)
 .text.PLIB_INT_ExistsAlternateVectorTable
                0x00000000        0x8 /opt/microchip/harmony/v1_03/bin/framework/peripheral/PIC32MZ1024ECG064_peripherals.a(peripheral.o)
 .text.PLIB_INT_AlternateVectorTableSelect
                0x00000000        0x8 /opt/microchip/harmony/v1_03/bin/framework/peripheral/PIC32MZ1024ECG064_peripherals.a(peripheral.o)
 .text.PLIB_INT_StandardVectorTableSelect
                0x00000000        0x8 /opt/microchip/harmony/v1_03/bin/framework/peripheral/PIC32MZ1024ECG064_peripherals.a(peripheral.o)
 .text.PLIB_INT_ExistsPeripheralControl
                0x00000000        0x8 /opt/microchip/harmony/v1_03/bin/framework/peripheral/PIC32MZ1024ECG064_peripherals.a(peripheral.o)
 .text.PLIB_INT_PeripheralsEnable
                0x00000000        0x8 /opt/microchip/harmony/v1_03/bin/framework/peripheral/PIC32MZ1024ECG064_peripherals.a(peripheral.o)
 .text.PLIB_INT_PeripheralsDisable
                0x00000000        0x8 /opt/microchip/harmony/v1_03/bin/framework/peripheral/PIC32MZ1024ECG064_peripherals.a(peripheral.o)
 .text.PLIB_INT_ExistsHighPriority
                0x00000000        0x8 /opt/microchip/harmony/v1_03/bin/framework/peripheral/PIC32MZ1024ECG064_peripherals.a(peripheral.o)
 .text.PLIB_INT_PriorityHighEnable
                0x00000000        0x8 /opt/microchip/harmony/v1_03/bin/framework/peripheral/PIC32MZ1024ECG064_peripherals.a(peripheral.o)
 .text.PLIB_INT_PriorityHighDisable
                0x00000000        0x8 /opt/microchip/harmony/v1_03/bin/framework/peripheral/PIC32MZ1024ECG064_peripherals.a(peripheral.o)
 .text.PLIB_INT_ExistsLowPriority
                0x00000000        0x8 /opt/microchip/harmony/v1_03/bin/framework/peripheral/PIC32MZ1024ECG064_peripherals.a(peripheral.o)
 .text.PLIB_INT_PriorityLowEnable
                0x00000000        0x8 /opt/microchip/harmony/v1_03/bin/framework/peripheral/PIC32MZ1024ECG064_peripherals.a(peripheral.o)
 .text.PLIB_INT_PriorityLowDisable
                0x00000000        0x8 /opt/microchip/harmony/v1_03/bin/framework/peripheral/PIC32MZ1024ECG064_peripherals.a(peripheral.o)
 .text.PLIB_INT_ExistsPriority
                0x00000000        0x8 /opt/microchip/harmony/v1_03/bin/framework/peripheral/PIC32MZ1024ECG064_peripherals.a(peripheral.o)
 .text.PLIB_INT_PriorityEnable
                0x00000000        0x8 /opt/microchip/harmony/v1_03/bin/framework/peripheral/PIC32MZ1024ECG064_peripherals.a(peripheral.o)
 .text.PLIB_INT_PriorityDisable
                0x00000000        0x8 /opt/microchip/harmony/v1_03/bin/framework/peripheral/PIC32MZ1024ECG064_peripherals.a(peripheral.o)
 .text.PLIB_INT_ExistsShadowRegisterAssign
                0x00000000        0x8 /opt/microchip/harmony/v1_03/bin/framework/peripheral/PIC32MZ1024ECG064_peripherals.a(peripheral.o)
 .text.PLIB_INT_ShadowRegisterAssign
                0x00000000       0x1c /opt/microchip/harmony/v1_03/bin/framework/peripheral/PIC32MZ1024ECG064_peripherals.a(peripheral.o)
 .text.PLIB_INT_ShadowRegisterGet
                0x00000000       0x24 /opt/microchip/harmony/v1_03/bin/framework/peripheral/PIC32MZ1024ECG064_peripherals.a(peripheral.o)
 .text.PLIB_INT_ExistsVariableOffset
                0x00000000        0x8 /opt/microchip/harmony/v1_03/bin/framework/peripheral/PIC32MZ1024ECG064_peripherals.a(peripheral.o)
 .text.PLIB_INT_VariableVectorOffsetSet
                0x00000000       0x24 /opt/microchip/harmony/v1_03/bin/framework/peripheral/PIC32MZ1024ECG064_peripherals.a(peripheral.o)
 .text.PLIB_INT_VariableVectorOffsetGet
                0x00000000       0x20 /opt/microchip/harmony/v1_03/bin/framework/peripheral/PIC32MZ1024ECG064_peripherals.a(peripheral.o)
 .text.PLIB_NVM_ExistsAccessEnable
                0x00000000        0x8 /opt/microchip/harmony/v1_03/bin/framework/peripheral/PIC32MZ1024ECG064_peripherals.a(peripheral.o)
 .text.PLIB_NVM_FlashAccessEnable
                0x00000000        0x8 /opt/microchip/harmony/v1_03/bin/framework/peripheral/PIC32MZ1024ECG064_peripherals.a(peripheral.o)
 .text.PLIB_NVM_EEPROMAccessEnable
                0x00000000        0x8 /opt/microchip/harmony/v1_03/bin/framework/peripheral/PIC32MZ1024ECG064_peripherals.a(peripheral.o)
 .text.PLIB_NVM_ExistsProgramEraseOperation
                0x00000000        0x8 /opt/microchip/harmony/v1_03/bin/framework/peripheral/PIC32MZ1024ECG064_peripherals.a(peripheral.o)
 .text.PLIB_NVM_FlashEraseOperationSelect
                0x00000000        0x8 /opt/microchip/harmony/v1_03/bin/framework/peripheral/PIC32MZ1024ECG064_peripherals.a(peripheral.o)
 .text.PLIB_NVM_FlashWriteOperationSelect
                0x00000000        0x8 /opt/microchip/harmony/v1_03/bin/framework/peripheral/PIC32MZ1024ECG064_peripherals.a(peripheral.o)
 .text.PLIB_NVM_ExistsEEPROMReadInitiate
                0x00000000        0x8 /opt/microchip/harmony/v1_03/bin/framework/peripheral/PIC32MZ1024ECG064_peripherals.a(peripheral.o)
 .text.PLIB_NVM_EEPROMReadStart
                0x00000000        0x8 /opt/microchip/harmony/v1_03/bin/framework/peripheral/PIC32MZ1024ECG064_peripherals.a(peripheral.o)
 .text.PLIB_NVM_ExistsStopInIdle
                0x00000000        0x8 /opt/microchip/harmony/v1_03/bin/framework/peripheral/PIC32MZ1024ECG064_peripherals.a(peripheral.o)
 .text.PLIB_NVM_StopInIdleEnable
                0x00000000        0x8 /opt/microchip/harmony/v1_03/bin/framework/peripheral/PIC32MZ1024ECG064_peripherals.a(peripheral.o)
 .text.PLIB_NVM_StopInIdleDisable
                0x00000000        0x8 /opt/microchip/harmony/v1_03/bin/framework/peripheral/PIC32MZ1024ECG064_peripherals.a(peripheral.o)
 .text.PLIB_NVM_ExistsWriteErrorStatus
                0x00000000        0x8 /opt/microchip/harmony/v1_03/bin/framework/peripheral/PIC32MZ1024ECG064_peripherals.a(peripheral.o)
 .text.PLIB_NVM_WriteOperationHasTerminated
                0x00000000       0x20 /opt/microchip/harmony/v1_03/bin/framework/peripheral/PIC32MZ1024ECG064_peripherals.a(peripheral.o)
 .text.PLIB_NVM_ExistsMemoryModificationControl
                0x00000000        0x8 /opt/microchip/harmony/v1_03/bin/framework/peripheral/PIC32MZ1024ECG064_peripherals.a(peripheral.o)
 .text.PLIB_NVM_MemoryModifyEnable
                0x00000000       0x18 /opt/microchip/harmony/v1_03/bin/framework/peripheral/PIC32MZ1024ECG064_peripherals.a(peripheral.o)
 .text.PLIB_NVM_MemoryModifyInhibit
                0x00000000       0x18 /opt/microchip/harmony/v1_03/bin/framework/peripheral/PIC32MZ1024ECG064_peripherals.a(peripheral.o)
 .text.PLIB_NVM_ExistsOperationMode
                0x00000000        0x8 /opt/microchip/harmony/v1_03/bin/framework/peripheral/PIC32MZ1024ECG064_peripherals.a(peripheral.o)
 .text.PLIB_NVM_MemoryOperationSelect
                0x00000000       0x28 /opt/microchip/harmony/v1_03/bin/framework/peripheral/PIC32MZ1024ECG064_peripherals.a(peripheral.o)
 .text.PLIB_NVM_ExistsAddressModifyControl
                0x00000000        0x8 /opt/microchip/harmony/v1_03/bin/framework/peripheral/PIC32MZ1024ECG064_peripherals.a(peripheral.o)
 .text.PLIB_NVM_FlashAddressToModify
                0x00000000       0x14 /opt/microchip/harmony/v1_03/bin/framework/peripheral/PIC32MZ1024ECG064_peripherals.a(peripheral.o)
 .text.PLIB_NVM_EEPROMAddressToModify
                0x00000000        0x8 /opt/microchip/harmony/v1_03/bin/framework/peripheral/PIC32MZ1024ECG064_peripherals.a(peripheral.o)
 .text.PLIB_NVM_ExistsProvideData
                0x00000000        0x8 /opt/microchip/harmony/v1_03/bin/framework/peripheral/PIC32MZ1024ECG064_peripherals.a(peripheral.o)
 .text.PLIB_NVM_FlashProvideData
                0x00000000       0x14 /opt/microchip/harmony/v1_03/bin/framework/peripheral/PIC32MZ1024ECG064_peripherals.a(peripheral.o)
 .text.PLIB_NVM_EEPROMProvideData
                0x00000000        0x8 /opt/microchip/harmony/v1_03/bin/framework/peripheral/PIC32MZ1024ECG064_peripherals.a(peripheral.o)
 .text.PLIB_NVM_ExistsWriteOperation
                0x00000000        0x8 /opt/microchip/harmony/v1_03/bin/framework/peripheral/PIC32MZ1024ECG064_peripherals.a(peripheral.o)
 .text.PLIB_NVM_FlashRead
                0x00000000       0x14 /opt/microchip/harmony/v1_03/bin/framework/peripheral/PIC32MZ1024ECG064_peripherals.a(peripheral.o)
 .text.PLIB_NVM_EEPROMRead
                0x00000000        0xc /opt/microchip/harmony/v1_03/bin/framework/peripheral/PIC32MZ1024ECG064_peripherals.a(peripheral.o)
 .text.PLIB_NVM_FlashWriteStart
                0x00000000       0x18 /opt/microchip/harmony/v1_03/bin/framework/peripheral/PIC32MZ1024ECG064_peripherals.a(peripheral.o)
 .text.PLIB_NVM_FlashEraseStart
                0x00000000       0x18 /opt/microchip/harmony/v1_03/bin/framework/peripheral/PIC32MZ1024ECG064_peripherals.a(peripheral.o)
 .text.PLIB_NVM_EEPROMWriteStart
                0x00000000        0x8 /opt/microchip/harmony/v1_03/bin/framework/peripheral/PIC32MZ1024ECG064_peripherals.a(peripheral.o)
 .text.PLIB_NVM_EEPROMEraseStart
                0x00000000        0x8 /opt/microchip/harmony/v1_03/bin/framework/peripheral/PIC32MZ1024ECG064_peripherals.a(peripheral.o)
 .text.PLIB_NVM_FlashWriteCycleHasCompleted
                0x00000000       0x24 /opt/microchip/harmony/v1_03/bin/framework/peripheral/PIC32MZ1024ECG064_peripherals.a(peripheral.o)
 .text.PLIB_NVM_ExistsKeySequence
                0x00000000        0x8 /opt/microchip/harmony/v1_03/bin/framework/peripheral/PIC32MZ1024ECG064_peripherals.a(peripheral.o)
 .text.PLIB_NVM_FlashWriteKeySequence
                0x00000000       0x14 /opt/microchip/harmony/v1_03/bin/framework/peripheral/PIC32MZ1024ECG064_peripherals.a(peripheral.o)
 .text.PLIB_NVM_EEPROMWriteKeySequence
                0x00000000        0x8 /opt/microchip/harmony/v1_03/bin/framework/peripheral/PIC32MZ1024ECG064_peripherals.a(peripheral.o)
 .text.PLIB_NVM_ExistsSourceAddress
                0x00000000        0x8 /opt/microchip/harmony/v1_03/bin/framework/peripheral/PIC32MZ1024ECG064_peripherals.a(peripheral.o)
 .text.PLIB_NVM_DataBlockSourceAddress
                0x00000000       0x14 /opt/microchip/harmony/v1_03/bin/framework/peripheral/PIC32MZ1024ECG064_peripherals.a(peripheral.o)
 .text.PLIB_NVM_ExistsLowVoltageStatus
                0x00000000        0x8 /opt/microchip/harmony/v1_03/bin/framework/peripheral/PIC32MZ1024ECG064_peripherals.a(peripheral.o)
 .text.PLIB_NVM_LowVoltageEventIsActive
                0x00000000        0x8 /opt/microchip/harmony/v1_03/bin/framework/peripheral/PIC32MZ1024ECG064_peripherals.a(peripheral.o)
 .text.PLIB_NVM_ExistsLowVoltageError
                0x00000000        0x8 /opt/microchip/harmony/v1_03/bin/framework/peripheral/PIC32MZ1024ECG064_peripherals.a(peripheral.o)
 .text.PLIB_NVM_LowVoltageIsDetected
                0x00000000       0x20 /opt/microchip/harmony/v1_03/bin/framework/peripheral/PIC32MZ1024ECG064_peripherals.a(peripheral.o)
 .text.PLIB_NVM_ExistsFlashBankRegionSelect
                0x00000000        0x8 /opt/microchip/harmony/v1_03/bin/framework/peripheral/PIC32MZ1024ECG064_peripherals.a(peripheral.o)
 .text.PLIB_NVM_ProgramFlashBank1LowerRegion
                0x00000000       0x18 /opt/microchip/harmony/v1_03/bin/framework/peripheral/PIC32MZ1024ECG064_peripherals.a(peripheral.o)
 .text.PLIB_NVM_ProgramFlashBank2LowerRegion
                0x00000000       0x18 /opt/microchip/harmony/v1_03/bin/framework/peripheral/PIC32MZ1024ECG064_peripherals.a(peripheral.o)
 .text.PLIB_NVM_ProgramFlashBank2IsLowerRegion
                0x00000000       0x20 /opt/microchip/harmony/v1_03/bin/framework/peripheral/PIC32MZ1024ECG064_peripherals.a(peripheral.o)
 .text.PLIB_NVM_ExistsProvideQuadData
                0x00000000        0x8 /opt/microchip/harmony/v1_03/bin/framework/peripheral/PIC32MZ1024ECG064_peripherals.a(peripheral.o)
 .text.PLIB_NVM_FlashProvideQuadData
                0x00000000       0x3c /opt/microchip/harmony/v1_03/bin/framework/peripheral/PIC32MZ1024ECG064_peripherals.a(peripheral.o)
 .text.PLIB_NVM_ExistsLockPFMSelect
                0x00000000        0x8 /opt/microchip/harmony/v1_03/bin/framework/peripheral/PIC32MZ1024ECG064_peripherals.a(peripheral.o)
 .text.PLIB_NVM_LockProgramFlashMemory
                0x00000000       0x18 /opt/microchip/harmony/v1_03/bin/framework/peripheral/PIC32MZ1024ECG064_peripherals.a(peripheral.o)
 .text.PLIB_NVM_IsProgramFlashMemoryLocked
                0x00000000       0x28 /opt/microchip/harmony/v1_03/bin/framework/peripheral/PIC32MZ1024ECG064_peripherals.a(peripheral.o)
 .text.PLIB_NVM_ExistsFlashWPMemoryRangeProvide
                0x00000000        0x8 /opt/microchip/harmony/v1_03/bin/framework/peripheral/PIC32MZ1024ECG064_peripherals.a(peripheral.o)
 .text.PLIB_NVM_FlashWriteProtectMemoryAreaRange
                0x00000000       0x28 /opt/microchip/harmony/v1_03/bin/framework/peripheral/PIC32MZ1024ECG064_peripherals.a(peripheral.o)
 .text.PLIB_NVM_ExistsLockBootSelect
                0x00000000        0x8 /opt/microchip/harmony/v1_03/bin/framework/peripheral/PIC32MZ1024ECG064_peripherals.a(peripheral.o)
 .text.PLIB_NVM_LockBootMemory
                0x00000000       0x20 /opt/microchip/harmony/v1_03/bin/framework/peripheral/PIC32MZ1024ECG064_peripherals.a(peripheral.o)
 .text.PLIB_NVM_IsBootMemoryLocked
                0x00000000       0x30 /opt/microchip/harmony/v1_03/bin/framework/peripheral/PIC32MZ1024ECG064_peripherals.a(peripheral.o)
 .text.PLIB_NVM_ExistsBootPageWriteProtect
                0x00000000        0x8 /opt/microchip/harmony/v1_03/bin/framework/peripheral/PIC32MZ1024ECG064_peripherals.a(peripheral.o)
 .text.PLIB_NVM_BootPageWriteProtectionEnable
                0x00000000       0x1c /opt/microchip/harmony/v1_03/bin/framework/peripheral/PIC32MZ1024ECG064_peripherals.a(peripheral.o)
 .text.PLIB_NVM_BootPageWriteProtectionDisable
                0x00000000       0x1c /opt/microchip/harmony/v1_03/bin/framework/peripheral/PIC32MZ1024ECG064_peripherals.a(peripheral.o)
 .text.PLIB_NVM_IsBootPageWriteProtected
                0x00000000       0x2c /opt/microchip/harmony/v1_03/bin/framework/peripheral/PIC32MZ1024ECG064_peripherals.a(peripheral.o)
 .text.PLIB_OC_Enable
                0x00000000       0xe0 /opt/microchip/harmony/v1_03/bin/framework/peripheral/PIC32MZ1024ECG064_peripherals.a(peripheral.o)
 .text.PLIB_OC_Disable
                0x00000000       0xe0 /opt/microchip/harmony/v1_03/bin/framework/peripheral/PIC32MZ1024ECG064_peripherals.a(peripheral.o)
 .text.PLIB_OC_IsEnabled
                0x00000000       0xec /opt/microchip/harmony/v1_03/bin/framework/peripheral/PIC32MZ1024ECG064_peripherals.a(peripheral.o)
 .text.PLIB_OC_ExistsEnableControl
                0x00000000        0x8 /opt/microchip/harmony/v1_03/bin/framework/peripheral/PIC32MZ1024ECG064_peripherals.a(peripheral.o)
 .text.PLIB_OC_StopInIdleEnable
                0x00000000       0xe0 /opt/microchip/harmony/v1_03/bin/framework/peripheral/PIC32MZ1024ECG064_peripherals.a(peripheral.o)
 .text.PLIB_OC_StopInIdleDisable
                0x00000000       0xe0 /opt/microchip/harmony/v1_03/bin/framework/peripheral/PIC32MZ1024ECG064_peripherals.a(peripheral.o)
 .text.PLIB_OC_ExistsStopInIdle
                0x00000000        0x8 /opt/microchip/harmony/v1_03/bin/framework/peripheral/PIC32MZ1024ECG064_peripherals.a(peripheral.o)
 .text.PLIB_OC_FaultInputSelect
                0x00000000       0xe0 /opt/microchip/harmony/v1_03/bin/framework/peripheral/PIC32MZ1024ECG064_peripherals.a(peripheral.o)
 .text.PLIB_OC_ExistsFaultInput
                0x00000000        0x8 /opt/microchip/harmony/v1_03/bin/framework/peripheral/PIC32MZ1024ECG064_peripherals.a(peripheral.o)
 .text.PLIB_OC_FaultOutSelect
                0x00000000        0x8 /opt/microchip/harmony/v1_03/bin/framework/peripheral/PIC32MZ1024ECG064_peripherals.a(peripheral.o)
 .text.PLIB_OC_ExistsFaultOutSelect
                0x00000000        0x8 /opt/microchip/harmony/v1_03/bin/framework/peripheral/PIC32MZ1024ECG064_peripherals.a(peripheral.o)
 .text.PLIB_OC_FaultHasOccurred
                0x00000000       0xec /opt/microchip/harmony/v1_03/bin/framework/peripheral/PIC32MZ1024ECG064_peripherals.a(peripheral.o)
 .text.PLIB_OC_ExistsFaultStatus
                0x00000000        0x8 /opt/microchip/harmony/v1_03/bin/framework/peripheral/PIC32MZ1024ECG064_peripherals.a(peripheral.o)
 .text.PLIB_OC_TimerSelect
                0x00000000       0xe0 /opt/microchip/harmony/v1_03/bin/framework/peripheral/PIC32MZ1024ECG064_peripherals.a(peripheral.o)
 .text.PLIB_OC_ExistsTimerSelect
                0x00000000        0x8 /opt/microchip/harmony/v1_03/bin/framework/peripheral/PIC32MZ1024ECG064_peripherals.a(peripheral.o)
 .text.PLIB_OC_AlternateClockEnable
                0x00000000      0x140 /opt/microchip/harmony/v1_03/bin/framework/peripheral/PIC32MZ1024ECG064_peripherals.a(peripheral.o)
 .text.PLIB_OC_AlternateClockDisable
                0x00000000      0x11c /opt/microchip/harmony/v1_03/bin/framework/peripheral/PIC32MZ1024ECG064_peripherals.a(peripheral.o)
 .text.PLIB_OC_ExistsAlternateClock
                0x00000000        0x8 /opt/microchip/harmony/v1_03/bin/framework/peripheral/PIC32MZ1024ECG064_peripherals.a(peripheral.o)
 .text.PLIB_OC_AlternateTimerSelect
                0x00000000       0xec /opt/microchip/harmony/v1_03/bin/framework/peripheral/PIC32MZ1024ECG064_peripherals.a(peripheral.o)
 .text.PLIB_OC_ExistsAlternateTimerSelect
                0x00000000        0x8 /opt/microchip/harmony/v1_03/bin/framework/peripheral/PIC32MZ1024ECG064_peripherals.a(peripheral.o)
 .text.PLIB_OC_Buffer32BitSet
                0x00000000      0x110 /opt/microchip/harmony/v1_03/bin/framework/peripheral/PIC32MZ1024ECG064_peripherals.a(peripheral.o)
 .text.PLIB_OC_Buffer16BitSet
                0x00000000      0x110 /opt/microchip/harmony/v1_03/bin/framework/peripheral/PIC32MZ1024ECG064_peripherals.a(peripheral.o)
 .text.PLIB_OC_ExistsBufferValue
                0x00000000        0x8 /opt/microchip/harmony/v1_03/bin/framework/peripheral/PIC32MZ1024ECG064_peripherals.a(peripheral.o)
 .text.PLIB_OC_PulseWidth32BitSet
                0x00000000      0x110 /opt/microchip/harmony/v1_03/bin/framework/peripheral/PIC32MZ1024ECG064_peripherals.a(peripheral.o)
 .text.PLIB_OC_PulseWidth16BitSet
                0x00000000      0x110 /opt/microchip/harmony/v1_03/bin/framework/peripheral/PIC32MZ1024ECG064_peripherals.a(peripheral.o)
 .text.PLIB_OC_ExistsPulseWidth
                0x00000000        0x8 /opt/microchip/harmony/v1_03/bin/framework/peripheral/PIC32MZ1024ECG064_peripherals.a(peripheral.o)
 .text.PLIB_OC_BufferSizeSelect
                0x00000000       0xe0 /opt/microchip/harmony/v1_03/bin/framework/peripheral/PIC32MZ1024ECG064_peripherals.a(peripheral.o)
 .text.PLIB_OC_ExistsBufferSize
                0x00000000        0x8 /opt/microchip/harmony/v1_03/bin/framework/peripheral/PIC32MZ1024ECG064_peripherals.a(peripheral.o)
 .text.PLIB_OC_ModeSelect
                0x00000000       0xe0 /opt/microchip/harmony/v1_03/bin/framework/peripheral/PIC32MZ1024ECG064_peripherals.a(peripheral.o)
 .text.PLIB_OC_ExistsCompareModeSelect
                0x00000000        0x8 /opt/microchip/harmony/v1_03/bin/framework/peripheral/PIC32MZ1024ECG064_peripherals.a(peripheral.o)
 .text.PLIB_OC_TriggerSet
                0x00000000        0x8 /opt/microchip/harmony/v1_03/bin/framework/peripheral/PIC32MZ1024ECG064_peripherals.a(peripheral.o)
 .text.PLIB_OC_TriggerClear
                0x00000000        0x8 /opt/microchip/harmony/v1_03/bin/framework/peripheral/PIC32MZ1024ECG064_peripherals.a(peripheral.o)
 .text.PLIB_OC_ExistsTriggerControl
                0x00000000        0x8 /opt/microchip/harmony/v1_03/bin/framework/peripheral/PIC32MZ1024ECG064_peripherals.a(peripheral.o)
 .text.PLIB_OC_PWMDutyCycleResolutionSet
                0x00000000        0x8 /opt/microchip/harmony/v1_03/bin/framework/peripheral/PIC32MZ1024ECG064_peripherals.a(peripheral.o)
 .text.PLIB_OC_ExistsPWMDutyCycleResolutionControl
                0x00000000        0x8 /opt/microchip/harmony/v1_03/bin/framework/peripheral/PIC32MZ1024ECG064_peripherals.a(peripheral.o)
 .text.PLIB_OC_PolarityInvertedEnable
                0x00000000        0x8 /opt/microchip/harmony/v1_03/bin/framework/peripheral/PIC32MZ1024ECG064_peripherals.a(peripheral.o)
 .text.PLIB_OC_PolarityInvertedDisable
                0x00000000        0x8 /opt/microchip/harmony/v1_03/bin/framework/peripheral/PIC32MZ1024ECG064_peripherals.a(peripheral.o)
 .text.PLIB_OC_ExistsPolarityInvert
                0x00000000        0x8 /opt/microchip/harmony/v1_03/bin/framework/peripheral/PIC32MZ1024ECG064_peripherals.a(peripheral.o)
 .text.PLIB_OC_FaultModeSelect
                0x00000000        0x8 /opt/microchip/harmony/v1_03/bin/framework/peripheral/PIC32MZ1024ECG064_peripherals.a(peripheral.o)
 .text.PLIB_OC_ExistsFaultModeSelect
                0x00000000        0x8 /opt/microchip/harmony/v1_03/bin/framework/peripheral/PIC32MZ1024ECG064_peripherals.a(peripheral.o)
 .text.PLIB_OC_FaultTristateSelect
                0x00000000        0x8 /opt/microchip/harmony/v1_03/bin/framework/peripheral/PIC32MZ1024ECG064_peripherals.a(peripheral.o)
 .text.PLIB_OC_ExistsFaultTristateSelect
                0x00000000        0x8 /opt/microchip/harmony/v1_03/bin/framework/peripheral/PIC32MZ1024ECG064_peripherals.a(peripheral.o)
 .text.PLIB_OC_SyncModeSelect
                0x00000000        0x8 /opt/microchip/harmony/v1_03/bin/framework/peripheral/PIC32MZ1024ECG064_peripherals.a(peripheral.o)
 .text.PLIB_OC_ExistsSyncModeSelect
                0x00000000        0x8 /opt/microchip/harmony/v1_03/bin/framework/peripheral/PIC32MZ1024ECG064_peripherals.a(peripheral.o)
 .text.PLIB_OC_SyncSourceSelect
                0x00000000        0x8 /opt/microchip/harmony/v1_03/bin/framework/peripheral/PIC32MZ1024ECG064_peripherals.a(peripheral.o)
 .text.PLIB_OC_ExistsSyncSourceSelect
                0x00000000        0x8 /opt/microchip/harmony/v1_03/bin/framework/peripheral/PIC32MZ1024ECG064_peripherals.a(peripheral.o)
 .text.PLIB_OC_TriggerStatusModeSelect
                0x00000000        0x8 /opt/microchip/harmony/v1_03/bin/framework/peripheral/PIC32MZ1024ECG064_peripherals.a(peripheral.o)
 .text.PLIB_OC_ExistsTriggerStatusModeSelect
                0x00000000        0x8 /opt/microchip/harmony/v1_03/bin/framework/peripheral/PIC32MZ1024ECG064_peripherals.a(peripheral.o)
 .text.PLIB_OC_IsTriggered
                0x00000000        0x8 /opt/microchip/harmony/v1_03/bin/framework/peripheral/PIC32MZ1024ECG064_peripherals.a(peripheral.o)
 .text.PLIB_OC_ExistsTimerTriggered
                0x00000000        0x8 /opt/microchip/harmony/v1_03/bin/framework/peripheral/PIC32MZ1024ECG064_peripherals.a(peripheral.o)
 .text.PLIB_OSC_ExistsOnWaitAction
                0x00000000        0x8 /opt/microchip/harmony/v1_03/bin/framework/peripheral/PIC32MZ1024ECG064_peripherals.a(peripheral.o)
 .text.PLIB_OSC_OnWaitActionSet
                0x00000000       0x2c /opt/microchip/harmony/v1_03/bin/framework/peripheral/PIC32MZ1024ECG064_peripherals.a(peripheral.o)
 .text.PLIB_OSC_OnWaitActionGet
                0x00000000       0x20 /opt/microchip/harmony/v1_03/bin/framework/peripheral/PIC32MZ1024ECG064_peripherals.a(peripheral.o)
 .text.PLIB_OSC_ExistsSecondaryEnable
                0x00000000        0x8 /opt/microchip/harmony/v1_03/bin/framework/peripheral/PIC32MZ1024ECG064_peripherals.a(peripheral.o)
 .text.PLIB_OSC_SecondaryEnable
                0x00000000       0x18 /opt/microchip/harmony/v1_03/bin/framework/peripheral/PIC32MZ1024ECG064_peripherals.a(peripheral.o)
 .text.PLIB_OSC_SecondaryDisable
                0x00000000       0x18 /opt/microchip/harmony/v1_03/bin/framework/peripheral/PIC32MZ1024ECG064_peripherals.a(peripheral.o)
 .text.PLIB_OSC_SecondaryIsEnabled
                0x00000000       0x20 /opt/microchip/harmony/v1_03/bin/framework/peripheral/PIC32MZ1024ECG064_peripherals.a(peripheral.o)
 .text.PLIB_OSC_ExistsSecondaryReady
                0x00000000        0x8 /opt/microchip/harmony/v1_03/bin/framework/peripheral/PIC32MZ1024ECG064_peripherals.a(peripheral.o)
 .text.PLIB_OSC_SecondaryIsReady
                0x00000000       0x20 /opt/microchip/harmony/v1_03/bin/framework/peripheral/PIC32MZ1024ECG064_peripherals.a(peripheral.o)
 .text.PLIB_OSC_ExistsFRCDivisor
                0x00000000        0x8 /opt/microchip/harmony/v1_03/bin/framework/peripheral/PIC32MZ1024ECG064_peripherals.a(peripheral.o)
 .text.PLIB_OSC_FRCDivisorGet
                0x00000000       0x3c /opt/microchip/harmony/v1_03/bin/framework/peripheral/PIC32MZ1024ECG064_peripherals.a(peripheral.o)
 .text.PLIB_OSC_ExistsOscSelect
                0x00000000        0x8 /opt/microchip/harmony/v1_03/bin/framework/peripheral/PIC32MZ1024ECG064_peripherals.a(peripheral.o)
 .text.PLIB_OSC_SysClockSelect
                0x00000000       0xf4 /opt/microchip/harmony/v1_03/bin/framework/peripheral/PIC32MZ1024ECG064_peripherals.a(peripheral.o)
 .text.PLIB_OSC_ExistsOscSwitchInit
                0x00000000        0x8 /opt/microchip/harmony/v1_03/bin/framework/peripheral/PIC32MZ1024ECG064_peripherals.a(peripheral.o)
 .text.PLIB_OSC_ClockSwitchingAbort
                0x00000000       0x18 /opt/microchip/harmony/v1_03/bin/framework/peripheral/PIC32MZ1024ECG064_peripherals.a(peripheral.o)
 .text.PLIB_OSC_ClockSwitchingIsComplete
                0x00000000       0x24 /opt/microchip/harmony/v1_03/bin/framework/peripheral/PIC32MZ1024ECG064_peripherals.a(peripheral.o)
 .text.PLIB_OSC_ExistsOscCurrentGet
                0x00000000        0x8 /opt/microchip/harmony/v1_03/bin/framework/peripheral/PIC32MZ1024ECG064_peripherals.a(peripheral.o)
 .text.PLIB_OSC_CurrentSysClockGet
                0x00000000       0x3c /opt/microchip/harmony/v1_03/bin/framework/peripheral/PIC32MZ1024ECG064_peripherals.a(peripheral.o)
 .text.PLIB_OSC_ExistsPBClockDivisor
                0x00000000        0x8 /opt/microchip/harmony/v1_03/bin/framework/peripheral/PIC32MZ1024ECG064_peripherals.a(peripheral.o)
 .text.PLIB_OSC_PBClockDivisorGet
                0x00000000      0x1b0 /opt/microchip/harmony/v1_03/bin/framework/peripheral/PIC32MZ1024ECG064_peripherals.a(peripheral.o)
 .text.PLIB_OSC_ExistsPBClockReady
                0x00000000        0x8 /opt/microchip/harmony/v1_03/bin/framework/peripheral/PIC32MZ1024ECG064_peripherals.a(peripheral.o)
 .text.PLIB_OSC_PBClockDivisorIsReady
                0x00000000      0x1b0 /opt/microchip/harmony/v1_03/bin/framework/peripheral/PIC32MZ1024ECG064_peripherals.a(peripheral.o)
 .text.PLIB_OSC_ExistsUsbClockSource
                0x00000000        0x8 /opt/microchip/harmony/v1_03/bin/framework/peripheral/PIC32MZ1024ECG064_peripherals.a(peripheral.o)
 .text.PLIB_OSC_UsbClockSourceSelect
                0x00000000        0x8 /opt/microchip/harmony/v1_03/bin/framework/peripheral/PIC32MZ1024ECG064_peripherals.a(peripheral.o)
 .text.PLIB_OSC_UsbClockSourceGet
                0x00000000        0x8 /opt/microchip/harmony/v1_03/bin/framework/peripheral/PIC32MZ1024ECG064_peripherals.a(peripheral.o)
 .text.PLIB_OSC_ExistsPLLLockStatus
                0x00000000        0x8 /opt/microchip/harmony/v1_03/bin/framework/peripheral/PIC32MZ1024ECG064_peripherals.a(peripheral.o)
 .text.PLIB_OSC_PLLIsLocked
                0x00000000       0x50 /opt/microchip/harmony/v1_03/bin/framework/peripheral/PIC32MZ1024ECG064_peripherals.a(peripheral.o)
 .text.PLIB_OSC_ExistsPLLClockLock
                0x00000000        0x8 /opt/microchip/harmony/v1_03/bin/framework/peripheral/PIC32MZ1024ECG064_peripherals.a(peripheral.o)
 .text.PLIB_OSC_PLLClockLock
                0x00000000       0x18 /opt/microchip/harmony/v1_03/bin/framework/peripheral/PIC32MZ1024ECG064_peripherals.a(peripheral.o)
 .text.PLIB_OSC_PLLClockUnlock
                0x00000000       0x18 /opt/microchip/harmony/v1_03/bin/framework/peripheral/PIC32MZ1024ECG064_peripherals.a(peripheral.o)
 .text.PLIB_OSC_PLLClockIsLocked
                0x00000000       0x20 /opt/microchip/harmony/v1_03/bin/framework/peripheral/PIC32MZ1024ECG064_peripherals.a(peripheral.o)
 .text.PLIB_OSC_ExistsSysPLLMultiplier
                0x00000000        0x8 /opt/microchip/harmony/v1_03/bin/framework/peripheral/PIC32MZ1024ECG064_peripherals.a(peripheral.o)
 .text.PLIB_OSC_SysPLLMultiplierSelect
                0x00000000       0x4c /opt/microchip/harmony/v1_03/bin/framework/peripheral/PIC32MZ1024ECG064_peripherals.a(peripheral.o)
 .text.PLIB_OSC_SysPLLMultiplierGet
                0x00000000       0x24 /opt/microchip/harmony/v1_03/bin/framework/peripheral/PIC32MZ1024ECG064_peripherals.a(peripheral.o)
 .text.PLIB_OSC_ExistsSysPLLOutputDivisor
                0x00000000        0x8 /opt/microchip/harmony/v1_03/bin/framework/peripheral/PIC32MZ1024ECG064_peripherals.a(peripheral.o)
 .text.PLIB_OSC_SysPLLOutputDivisorSet
                0x00000000       0x34 /opt/microchip/harmony/v1_03/bin/framework/peripheral/PIC32MZ1024ECG064_peripherals.a(peripheral.o)
 .text.PLIB_OSC_SysPLLOutputDivisorGet
                0x00000000       0x40 /opt/microchip/harmony/v1_03/bin/framework/peripheral/PIC32MZ1024ECG064_peripherals.a(peripheral.o)
 .text.PLIB_OSC_ExistsClockFail
                0x00000000        0x8 /opt/microchip/harmony/v1_03/bin/framework/peripheral/PIC32MZ1024ECG064_peripherals.a(peripheral.o)
 .text.PLIB_OSC_ClockHasFailed
                0x00000000       0x20 /opt/microchip/harmony/v1_03/bin/framework/peripheral/PIC32MZ1024ECG064_peripherals.a(peripheral.o)
 .text.PLIB_OSC_ExistsFRCTuning
                0x00000000        0x8 /opt/microchip/harmony/v1_03/bin/framework/peripheral/PIC32MZ1024ECG064_peripherals.a(peripheral.o)
 .text.PLIB_OSC_FRCTuningSelect
                0x00000000       0x34 /opt/microchip/harmony/v1_03/bin/framework/peripheral/PIC32MZ1024ECG064_peripherals.a(peripheral.o)
 .text.PLIB_OSC_ExistsReferenceOscBaseClock
                0x00000000        0x8 /opt/microchip/harmony/v1_03/bin/framework/peripheral/PIC32MZ1024ECG064_peripherals.a(peripheral.o)
 .text.PLIB_OSC_ExistsReferenceOscChange
                0x00000000        0x8 /opt/microchip/harmony/v1_03/bin/framework/peripheral/PIC32MZ1024ECG064_peripherals.a(peripheral.o)
 .text.PLIB_OSC_ReferenceOscSwitchIsComplete
                0x00000000       0xe8 /opt/microchip/harmony/v1_03/bin/framework/peripheral/PIC32MZ1024ECG064_peripherals.a(peripheral.o)
 .text.PLIB_OSC_ExistsReferenceOscChangeActive
                0x00000000        0x8 /opt/microchip/harmony/v1_03/bin/framework/peripheral/PIC32MZ1024ECG064_peripherals.a(peripheral.o)
 .text.PLIB_OSC_ReferenceOscSourceChangeIsActive
                0x00000000       0xe4 /opt/microchip/harmony/v1_03/bin/framework/peripheral/PIC32MZ1024ECG064_peripherals.a(peripheral.o)
 .text.PLIB_OSC_ExistsReferenceOscStopInSleep
                0x00000000        0x8 /opt/microchip/harmony/v1_03/bin/framework/peripheral/PIC32MZ1024ECG064_peripherals.a(peripheral.o)
 .text.PLIB_OSC_ReferenceOscStopInSleepEnable
                0x00000000       0xe0 /opt/microchip/harmony/v1_03/bin/framework/peripheral/PIC32MZ1024ECG064_peripherals.a(peripheral.o)
 .text.PLIB_OSC_ReferenceOscStopInSleepDisable
                0x00000000       0xe0 /opt/microchip/harmony/v1_03/bin/framework/peripheral/PIC32MZ1024ECG064_peripherals.a(peripheral.o)
 .text.PLIB_OSC_ReferenceOscStopInSleepIsEnabled
                0x00000000       0xe8 /opt/microchip/harmony/v1_03/bin/framework/peripheral/PIC32MZ1024ECG064_peripherals.a(peripheral.o)
 .text.PLIB_OSC_ExistsReferenceOutputEnable
                0x00000000        0x8 /opt/microchip/harmony/v1_03/bin/framework/peripheral/PIC32MZ1024ECG064_peripherals.a(peripheral.o)
 .text.PLIB_OSC_ReferenceOutputIsEnabled
                0x00000000       0xe4 /opt/microchip/harmony/v1_03/bin/framework/peripheral/PIC32MZ1024ECG064_peripherals.a(peripheral.o)
 .text.PLIB_OSC_ExistsReferenceOscStopInIdleEnable
                0x00000000        0x8 /opt/microchip/harmony/v1_03/bin/framework/peripheral/PIC32MZ1024ECG064_peripherals.a(peripheral.o)
 .text.PLIB_OSC_ReferenceOscStopInIdleEnable
                0x00000000       0xe0 /opt/microchip/harmony/v1_03/bin/framework/peripheral/PIC32MZ1024ECG064_peripherals.a(peripheral.o)
 .text.PLIB_OSC_ReferenceOscStopInIdleDisable
                0x00000000       0xe0 /opt/microchip/harmony/v1_03/bin/framework/peripheral/PIC32MZ1024ECG064_peripherals.a(peripheral.o)
 .text.PLIB_OSC_ReferenceOscStopInIdleIsEnabled
                0x00000000       0xe4 /opt/microchip/harmony/v1_03/bin/framework/peripheral/PIC32MZ1024ECG064_peripherals.a(peripheral.o)
 .text.PLIB_OSC_ExistsReferenceOscEnable
                0x00000000        0x8 /opt/microchip/harmony/v1_03/bin/framework/peripheral/PIC32MZ1024ECG064_peripherals.a(peripheral.o)
 .text.PLIB_OSC_ReferenceOscIsEnabled
                0x00000000       0xe4 /opt/microchip/harmony/v1_03/bin/framework/peripheral/PIC32MZ1024ECG064_peripherals.a(peripheral.o)
 .text.PLIB_OSC_ExistsReferenceOscDivisor
                0x00000000        0x8 /opt/microchip/harmony/v1_03/bin/framework/peripheral/PIC32MZ1024ECG064_peripherals.a(peripheral.o)
 .text.PLIB_OSC_ExistsReferenceOscTrim
                0x00000000        0x8 /opt/microchip/harmony/v1_03/bin/framework/peripheral/PIC32MZ1024ECG064_peripherals.a(peripheral.o)
 .text.PLIB_OSC_ExistsPBClockOutputEnable
                0x00000000        0x8 /opt/microchip/harmony/v1_03/bin/framework/peripheral/PIC32MZ1024ECG064_peripherals.a(peripheral.o)
 .text.PLIB_OSC_PBOutputClockDisable
                0x00000000      0x168 /opt/microchip/harmony/v1_03/bin/framework/peripheral/PIC32MZ1024ECG064_peripherals.a(peripheral.o)
 .text.PLIB_OSC_PBOutputClockIsEnabled
                0x00000000      0x170 /opt/microchip/harmony/v1_03/bin/framework/peripheral/PIC32MZ1024ECG064_peripherals.a(peripheral.o)
 .text.PLIB_OSC_ExistsSysPLLInputDivisor
                0x00000000        0x8 /opt/microchip/harmony/v1_03/bin/framework/peripheral/PIC32MZ1024ECG064_peripherals.a(peripheral.o)
 .text.PLIB_OSC_SysPLLInputDivisorSet
                0x00000000       0x38 /opt/microchip/harmony/v1_03/bin/framework/peripheral/PIC32MZ1024ECG064_peripherals.a(peripheral.o)
 .text.PLIB_OSC_SysPLLInputDivisorGet
                0x00000000       0x20 /opt/microchip/harmony/v1_03/bin/framework/peripheral/PIC32MZ1024ECG064_peripherals.a(peripheral.o)
 .text.PLIB_OSC_ExistsSysPLLInputClockSource
                0x00000000        0x8 /opt/microchip/harmony/v1_03/bin/framework/peripheral/PIC32MZ1024ECG064_peripherals.a(peripheral.o)
 .text.PLIB_OSC_SysPLLInputClockSourceSet
                0x00000000       0x34 /opt/microchip/harmony/v1_03/bin/framework/peripheral/PIC32MZ1024ECG064_peripherals.a(peripheral.o)
 .text.PLIB_OSC_SysPLLInputClockSourceGet
                0x00000000       0x20 /opt/microchip/harmony/v1_03/bin/framework/peripheral/PIC32MZ1024ECG064_peripherals.a(peripheral.o)
 .text.PLIB_OSC_ExistsSysPLLFrequencyRange
                0x00000000        0x8 /opt/microchip/harmony/v1_03/bin/framework/peripheral/PIC32MZ1024ECG064_peripherals.a(peripheral.o)
 .text.PLIB_OSC_SysPLLFrequencyRangeSet
                0x00000000       0x30 /opt/microchip/harmony/v1_03/bin/framework/peripheral/PIC32MZ1024ECG064_peripherals.a(peripheral.o)
 .text.PLIB_OSC_SysPLLFrequencyRangeGet
                0x00000000       0x20 /opt/microchip/harmony/v1_03/bin/framework/peripheral/PIC32MZ1024ECG064_peripherals.a(peripheral.o)
 .text.PLIB_PCACHE_WaitStateGet
                0x00000000       0x20 /opt/microchip/harmony/v1_03/bin/framework/peripheral/PIC32MZ1024ECG064_peripherals.a(peripheral.o)
 .text.PLIB_PCACHE_PrefetchEnableGet
                0x00000000       0x20 /opt/microchip/harmony/v1_03/bin/framework/peripheral/PIC32MZ1024ECG064_peripherals.a(peripheral.o)
 .text.PLIB_PCACHE_ExistsDataCacheEnable
                0x00000000        0x8 /opt/microchip/harmony/v1_03/bin/framework/peripheral/PIC32MZ1024ECG064_peripherals.a(peripheral.o)
 .text.PLIB_PCACHE_DataCacheEnableSet
                0x00000000        0x8 /opt/microchip/harmony/v1_03/bin/framework/peripheral/PIC32MZ1024ECG064_peripherals.a(peripheral.o)
 .text.PLIB_PCACHE_DataCacheEnableGet
                0x00000000        0x8 /opt/microchip/harmony/v1_03/bin/framework/peripheral/PIC32MZ1024ECG064_peripherals.a(peripheral.o)
 .text.PLIB_PCACHE_ExistsFlashSECInt
                0x00000000        0x8 /opt/microchip/harmony/v1_03/bin/framework/peripheral/PIC32MZ1024ECG064_peripherals.a(peripheral.o)
 .text.PLIB_PCACHE_FlashSECIntEnable
                0x00000000       0x18 /opt/microchip/harmony/v1_03/bin/framework/peripheral/PIC32MZ1024ECG064_peripherals.a(peripheral.o)
 .text.PLIB_PCACHE_FlashSECIntDisable
                0x00000000       0x18 /opt/microchip/harmony/v1_03/bin/framework/peripheral/PIC32MZ1024ECG064_peripherals.a(peripheral.o)
 .text.PLIB_PCACHE_ExistsFlashDEDStatus
                0x00000000        0x8 /opt/microchip/harmony/v1_03/bin/framework/peripheral/PIC32MZ1024ECG064_peripherals.a(peripheral.o)
 .text.PLIB_PCACHE_FlashDEDStatusGet
                0x00000000       0x20 /opt/microchip/harmony/v1_03/bin/framework/peripheral/PIC32MZ1024ECG064_peripherals.a(peripheral.o)
 .text.PLIB_PCACHE_FlashDEDStatusClear
                0x00000000       0x18 /opt/microchip/harmony/v1_03/bin/framework/peripheral/PIC32MZ1024ECG064_peripherals.a(peripheral.o)
 .text.PLIB_PCACHE_ExistsFlashSECStatus
                0x00000000        0x8 /opt/microchip/harmony/v1_03/bin/framework/peripheral/PIC32MZ1024ECG064_peripherals.a(peripheral.o)
 .text.PLIB_PCACHE_FlashSECStatusGet
                0x00000000       0x20 /opt/microchip/harmony/v1_03/bin/framework/peripheral/PIC32MZ1024ECG064_peripherals.a(peripheral.o)
 .text.PLIB_PCACHE_FlashSECStatusSet
                0x00000000       0x18 /opt/microchip/harmony/v1_03/bin/framework/peripheral/PIC32MZ1024ECG064_peripherals.a(peripheral.o)
 .text.PLIB_PCACHE_FlashSECStatusClear
                0x00000000       0x18 /opt/microchip/harmony/v1_03/bin/framework/peripheral/PIC32MZ1024ECG064_peripherals.a(peripheral.o)
 .text.PLIB_PCACHE_ExistsFlashSECCount
                0x00000000        0x8 /opt/microchip/harmony/v1_03/bin/framework/peripheral/PIC32MZ1024ECG064_peripherals.a(peripheral.o)
 .text.PLIB_PCACHE_FlashSECCountSet
                0x00000000       0x28 /opt/microchip/harmony/v1_03/bin/framework/peripheral/PIC32MZ1024ECG064_peripherals.a(peripheral.o)
 .text.PLIB_PCACHE_FlashSECCountGet
                0x00000000       0x20 /opt/microchip/harmony/v1_03/bin/framework/peripheral/PIC32MZ1024ECG064_peripherals.a(peripheral.o)
 .text.PLIB_PCACHE_ExistsInvalidateOnPFMProgram
                0x00000000        0x8 /opt/microchip/harmony/v1_03/bin/framework/peripheral/PIC32MZ1024ECG064_peripherals.a(peripheral.o)
 .text.PLIB_PCACHE_InvalidateOnPFMProgramAll
                0x00000000        0x8 /opt/microchip/harmony/v1_03/bin/framework/peripheral/PIC32MZ1024ECG064_peripherals.a(peripheral.o)
 .text.PLIB_PCACHE_InvalidateOnPFMProgramUnlocked
                0x00000000        0x8 /opt/microchip/harmony/v1_03/bin/framework/peripheral/PIC32MZ1024ECG064_peripherals.a(peripheral.o)
 .text.PLIB_PCACHE_ExistsCacheLine
                0x00000000        0x8 /opt/microchip/harmony/v1_03/bin/framework/peripheral/PIC32MZ1024ECG064_peripherals.a(peripheral.o)
 .text.PLIB_PCACHE_CacheLineSelect
                0x00000000        0x8 /opt/microchip/harmony/v1_03/bin/framework/peripheral/PIC32MZ1024ECG064_peripherals.a(peripheral.o)
 .text.PLIB_PCACHE_CacheLineDeselect
                0x00000000        0x8 /opt/microchip/harmony/v1_03/bin/framework/peripheral/PIC32MZ1024ECG064_peripherals.a(peripheral.o)
 .text.PLIB_PCACHE_CacheLineData
                0x00000000        0x8 /opt/microchip/harmony/v1_03/bin/framework/peripheral/PIC32MZ1024ECG064_peripherals.a(peripheral.o)
 .text.PLIB_PCACHE_CacheLineInst
                0x00000000        0x8 /opt/microchip/harmony/v1_03/bin/framework/peripheral/PIC32MZ1024ECG064_peripherals.a(peripheral.o)
 .text.PLIB_PCACHE_CacheLineIsInst
                0x00000000        0x8 /opt/microchip/harmony/v1_03/bin/framework/peripheral/PIC32MZ1024ECG064_peripherals.a(peripheral.o)
 .text.PLIB_PCACHE_ExistsCacheLineType
                0x00000000        0x8 /opt/microchip/harmony/v1_03/bin/framework/peripheral/PIC32MZ1024ECG064_peripherals.a(peripheral.o)
 .text.PLIB_PCACHE_CacheLineLock
                0x00000000        0x8 /opt/microchip/harmony/v1_03/bin/framework/peripheral/PIC32MZ1024ECG064_peripherals.a(peripheral.o)
 .text.PLIB_PCACHE_CacheLineUnlock
                0x00000000        0x8 /opt/microchip/harmony/v1_03/bin/framework/peripheral/PIC32MZ1024ECG064_peripherals.a(peripheral.o)
 .text.PLIB_PCACHE_CacheLineIsLocked
                0x00000000        0x8 /opt/microchip/harmony/v1_03/bin/framework/peripheral/PIC32MZ1024ECG064_peripherals.a(peripheral.o)
 .text.PLIB_PCACHE_ExistsCacheLineLock
                0x00000000        0x8 /opt/microchip/harmony/v1_03/bin/framework/peripheral/PIC32MZ1024ECG064_peripherals.a(peripheral.o)
 .text.PLIB_PCACHE_CacheLineValid
                0x00000000        0x8 /opt/microchip/harmony/v1_03/bin/framework/peripheral/PIC32MZ1024ECG064_peripherals.a(peripheral.o)
 .text.PLIB_PCACHE_CacheLineInvalid
                0x00000000        0x8 /opt/microchip/harmony/v1_03/bin/framework/peripheral/PIC32MZ1024ECG064_peripherals.a(peripheral.o)
 .text.PLIB_PCACHE_CacheLineIsValid
                0x00000000        0x8 /opt/microchip/harmony/v1_03/bin/framework/peripheral/PIC32MZ1024ECG064_peripherals.a(peripheral.o)
 .text.PLIB_PCACHE_ExistsCacheLineValid
                0x00000000        0x8 /opt/microchip/harmony/v1_03/bin/framework/peripheral/PIC32MZ1024ECG064_peripherals.a(peripheral.o)
 .text.PLIB_PCACHE_CacheLineAddrSet
                0x00000000        0x8 /opt/microchip/harmony/v1_03/bin/framework/peripheral/PIC32MZ1024ECG064_peripherals.a(peripheral.o)
 .text.PLIB_PCACHE_CacheLineAddrGet
                0x00000000        0x8 /opt/microchip/harmony/v1_03/bin/framework/peripheral/PIC32MZ1024ECG064_peripherals.a(peripheral.o)
 .text.PLIB_PCACHE_ExistsCacheLineAddr
                0x00000000        0x8 /opt/microchip/harmony/v1_03/bin/framework/peripheral/PIC32MZ1024ECG064_peripherals.a(peripheral.o)
 .text.PLIB_PCACHE_CacheLineFlashTypeBoot
                0x00000000        0x8 /opt/microchip/harmony/v1_03/bin/framework/peripheral/PIC32MZ1024ECG064_peripherals.a(peripheral.o)
 .text.PLIB_PCACHE_CacheLineFlashTypeInst
                0x00000000        0x8 /opt/microchip/harmony/v1_03/bin/framework/peripheral/PIC32MZ1024ECG064_peripherals.a(peripheral.o)
 .text.PLIB_PCACHE_CacheLineFlashTypeIsInst
                0x00000000        0x8 /opt/microchip/harmony/v1_03/bin/framework/peripheral/PIC32MZ1024ECG064_peripherals.a(peripheral.o)
 .text.PLIB_PCACHE_ExistsCacheLineFlashType
                0x00000000        0x8 /opt/microchip/harmony/v1_03/bin/framework/peripheral/PIC32MZ1024ECG064_peripherals.a(peripheral.o)
 .text.PLIB_PCACHE_CacheLineMaskSet
                0x00000000        0x8 /opt/microchip/harmony/v1_03/bin/framework/peripheral/PIC32MZ1024ECG064_peripherals.a(peripheral.o)
 .text.PLIB_PCACHE_CacheLineMaskGet
                0x00000000        0x8 /opt/microchip/harmony/v1_03/bin/framework/peripheral/PIC32MZ1024ECG064_peripherals.a(peripheral.o)
 .text.PLIB_PCACHE_ExistsCacheLineMask
                0x00000000        0x8 /opt/microchip/harmony/v1_03/bin/framework/peripheral/PIC32MZ1024ECG064_peripherals.a(peripheral.o)
 .text.PLIB_PCACHE_WordRead
                0x00000000        0x8 /opt/microchip/harmony/v1_03/bin/framework/peripheral/PIC32MZ1024ECG064_peripherals.a(peripheral.o)
 .text.PLIB_PCACHE_WordWrite
                0x00000000        0x8 /opt/microchip/harmony/v1_03/bin/framework/peripheral/PIC32MZ1024ECG064_peripherals.a(peripheral.o)
 .text.PLIB_PCACHE_ExistsWord
                0x00000000        0x8 /opt/microchip/harmony/v1_03/bin/framework/peripheral/PIC32MZ1024ECG064_peripherals.a(peripheral.o)
 .text.PLIB_PCACHE_LeastRecentlyUsedStateRead
                0x00000000        0x8 /opt/microchip/harmony/v1_03/bin/framework/peripheral/PIC32MZ1024ECG064_peripherals.a(peripheral.o)
 .text.PLIB_PCACHE_ExistsLeastRecentlyUsedState
                0x00000000        0x8 /opt/microchip/harmony/v1_03/bin/framework/peripheral/PIC32MZ1024ECG064_peripherals.a(peripheral.o)
 .text.PLIB_PCACHE_CacheHitRead
                0x00000000        0x8 /opt/microchip/harmony/v1_03/bin/framework/peripheral/PIC32MZ1024ECG064_peripherals.a(peripheral.o)
 .text.PLIB_PCACHE_CacheHitWrite
                0x00000000        0x8 /opt/microchip/harmony/v1_03/bin/framework/peripheral/PIC32MZ1024ECG064_peripherals.a(peripheral.o)
 .text.PLIB_PCACHE_ExistsCacheHit
                0x00000000        0x8 /opt/microchip/harmony/v1_03/bin/framework/peripheral/PIC32MZ1024ECG064_peripherals.a(peripheral.o)
 .text.PLIB_PCACHE_CacheMissRead
                0x00000000        0x8 /opt/microchip/harmony/v1_03/bin/framework/peripheral/PIC32MZ1024ECG064_peripherals.a(peripheral.o)
 .text.PLIB_PCACHE_CacheMissWrite
                0x00000000        0x8 /opt/microchip/harmony/v1_03/bin/framework/peripheral/PIC32MZ1024ECG064_peripherals.a(peripheral.o)
 .text.PLIB_PCACHE_ExistsCacheMiss
                0x00000000        0x8 /opt/microchip/harmony/v1_03/bin/framework/peripheral/PIC32MZ1024ECG064_peripherals.a(peripheral.o)
 .text.PLIB_PCACHE_PrefetchAbortRead
                0x00000000        0x8 /opt/microchip/harmony/v1_03/bin/framework/peripheral/PIC32MZ1024ECG064_peripherals.a(peripheral.o)
 .text.PLIB_PCACHE_PrefetchAbortWrite
                0x00000000        0x8 /opt/microchip/harmony/v1_03/bin/framework/peripheral/PIC32MZ1024ECG064_peripherals.a(peripheral.o)
 .text.PLIB_PCACHE_ExistsPrefetchAbort
                0x00000000        0x8 /opt/microchip/harmony/v1_03/bin/framework/peripheral/PIC32MZ1024ECG064_peripherals.a(peripheral.o)
 .text.PLIB_PMP_ExistsDualBufferControl
                0x00000000        0x8 /opt/microchip/harmony/v1_03/bin/framework/peripheral/PIC32MZ1024ECG064_peripherals.a(peripheral.o)
 .text.PLIB_PMP_DualBufferDisable
                0x00000000        0x8 /opt/microchip/harmony/v1_03/bin/framework/peripheral/PIC32MZ1024ECG064_peripherals.a(peripheral.o)
 .text.PLIB_PMP_DualBufferEnable
                0x00000000        0x8 /opt/microchip/harmony/v1_03/bin/framework/peripheral/PIC32MZ1024ECG064_peripherals.a(peripheral.o)
 .text.PLIB_PMP_DualBufferIsEnabled
                0x00000000        0x8 /opt/microchip/harmony/v1_03/bin/framework/peripheral/PIC32MZ1024ECG064_peripherals.a(peripheral.o)
 .text.PLIB_PMP_ExistsEnableControl
                0x00000000        0x8 /opt/microchip/harmony/v1_03/bin/framework/peripheral/PIC32MZ1024ECG064_peripherals.a(peripheral.o)
 .text.PLIB_PMP_Disable
                0x00000000       0x18 /opt/microchip/harmony/v1_03/bin/framework/peripheral/PIC32MZ1024ECG064_peripherals.a(peripheral.o)
 .text.PLIB_PMP_Enable
                0x00000000       0x18 /opt/microchip/harmony/v1_03/bin/framework/peripheral/PIC32MZ1024ECG064_peripherals.a(peripheral.o)
 .text.PLIB_PMP_IsEnabled
                0x00000000       0x20 /opt/microchip/harmony/v1_03/bin/framework/peripheral/PIC32MZ1024ECG064_peripherals.a(peripheral.o)
 .text.PLIB_PMP_ExistsStopInIdleControl
                0x00000000        0x8 /opt/microchip/harmony/v1_03/bin/framework/peripheral/PIC32MZ1024ECG064_peripherals.a(peripheral.o)
 .text.PLIB_PMP_StopInIdleEnable
                0x00000000       0x18 /opt/microchip/harmony/v1_03/bin/framework/peripheral/PIC32MZ1024ECG064_peripherals.a(peripheral.o)
 .text.PLIB_PMP_StopInIdleDisable
                0x00000000       0x18 /opt/microchip/harmony/v1_03/bin/framework/peripheral/PIC32MZ1024ECG064_peripherals.a(peripheral.o)
 .text.PLIB_PMP_ExistsMUXModeSelect
                0x00000000        0x8 /opt/microchip/harmony/v1_03/bin/framework/peripheral/PIC32MZ1024ECG064_peripherals.a(peripheral.o)
 .text.PLIB_PMP_MultiplexModeSelect
                0x00000000       0x2c /opt/microchip/harmony/v1_03/bin/framework/peripheral/PIC32MZ1024ECG064_peripherals.a(peripheral.o)
 .text.PLIB_PMP_MultiplexModeGet
                0x00000000       0x20 /opt/microchip/harmony/v1_03/bin/framework/peripheral/PIC32MZ1024ECG064_peripherals.a(peripheral.o)
 .text.PLIB_PMP_ExistsBufferType
                0x00000000        0x8 /opt/microchip/harmony/v1_03/bin/framework/peripheral/PIC32MZ1024ECG064_peripherals.a(peripheral.o)
 .text.PLIB_PMP_InputBufferTypeSelect
                0x00000000       0x54 /opt/microchip/harmony/v1_03/bin/framework/peripheral/PIC32MZ1024ECG064_peripherals.a(peripheral.o)
 .text.PLIB_PMP_ExistsWriteEnablePortControl
                0x00000000        0x8 /opt/microchip/harmony/v1_03/bin/framework/peripheral/PIC32MZ1024ECG064_peripherals.a(peripheral.o)
 .text.PLIB_PMP_WriteEnableStrobePortEnable
                0x00000000       0x18 /opt/microchip/harmony/v1_03/bin/framework/peripheral/PIC32MZ1024ECG064_peripherals.a(peripheral.o)
 .text.PLIB_PMP_WriteEnableStrobePortDisable
                0x00000000       0x18 /opt/microchip/harmony/v1_03/bin/framework/peripheral/PIC32MZ1024ECG064_peripherals.a(peripheral.o)
 .text.PLIB_PMP_ExistsReadWriteStrobePortControl
                0x00000000        0x8 /opt/microchip/harmony/v1_03/bin/framework/peripheral/PIC32MZ1024ECG064_peripherals.a(peripheral.o)
 .text.PLIB_PMP_ReadWriteStrobePortEnable
                0x00000000       0x18 /opt/microchip/harmony/v1_03/bin/framework/peripheral/PIC32MZ1024ECG064_peripherals.a(peripheral.o)
 .text.PLIB_PMP_ReadWriteStrobePortDisable
                0x00000000       0x18 /opt/microchip/harmony/v1_03/bin/framework/peripheral/PIC32MZ1024ECG064_peripherals.a(peripheral.o)
 .text.PLIB_PMP_ExistsChipSelectoperation
                0x00000000        0x8 /opt/microchip/harmony/v1_03/bin/framework/peripheral/PIC32MZ1024ECG064_peripherals.a(peripheral.o)
 .text.PLIB_PMP_ChipSelectFunctionSelect
                0x00000000       0x2c /opt/microchip/harmony/v1_03/bin/framework/peripheral/PIC32MZ1024ECG064_peripherals.a(peripheral.o)
 .text.PLIB_PMP_ExistsAddressLatchPolarity
                0x00000000        0x8 /opt/microchip/harmony/v1_03/bin/framework/peripheral/PIC32MZ1024ECG064_peripherals.a(peripheral.o)
 .text.PLIB_PMP_AddressLatchPolaritySelect
                0x00000000       0x2c /opt/microchip/harmony/v1_03/bin/framework/peripheral/PIC32MZ1024ECG064_peripherals.a(peripheral.o)
 .text.PLIB_PMP_ExistsChipXPolarity
                0x00000000        0x8 /opt/microchip/harmony/v1_03/bin/framework/peripheral/PIC32MZ1024ECG064_peripherals.a(peripheral.o)
 .text.PLIB_PMP_ChipSelectXPolaritySelect
                0x00000000       0x38 /opt/microchip/harmony/v1_03/bin/framework/peripheral/PIC32MZ1024ECG064_peripherals.a(peripheral.o)
 .text.PLIB_PMP_ExistsWriteEnablePolarity
                0x00000000        0x8 /opt/microchip/harmony/v1_03/bin/framework/peripheral/PIC32MZ1024ECG064_peripherals.a(peripheral.o)
 .text.PLIB_PMP_WriteEnableStrobePolaritySelect
                0x00000000       0x2c /opt/microchip/harmony/v1_03/bin/framework/peripheral/PIC32MZ1024ECG064_peripherals.a(peripheral.o)
 .text.PLIB_PMP_ExistsReadWritePolarity
                0x00000000        0x8 /opt/microchip/harmony/v1_03/bin/framework/peripheral/PIC32MZ1024ECG064_peripherals.a(peripheral.o)
 .text.PLIB_PMP_ReadWriteStrobePolaritySelect
                0x00000000       0x28 /opt/microchip/harmony/v1_03/bin/framework/peripheral/PIC32MZ1024ECG064_peripherals.a(peripheral.o)
 .text.PLIB_PMP_ExistsBusyStatus
                0x00000000        0x8 /opt/microchip/harmony/v1_03/bin/framework/peripheral/PIC32MZ1024ECG064_peripherals.a(peripheral.o)
 .text.PLIB_PMP_PortIsBusy
                0x00000000       0x20 /opt/microchip/harmony/v1_03/bin/framework/peripheral/PIC32MZ1024ECG064_peripherals.a(peripheral.o)
 .text.PLIB_PMP_ExistsInterruptMode
                0x00000000        0x8 /opt/microchip/harmony/v1_03/bin/framework/peripheral/PIC32MZ1024ECG064_peripherals.a(peripheral.o)
 .text.PLIB_PMP_InterruptModeSelect
                0x00000000       0x2c /opt/microchip/harmony/v1_03/bin/framework/peripheral/PIC32MZ1024ECG064_peripherals.a(peripheral.o)
 .text.PLIB_PMP_InterruptModeGet
                0x00000000       0x20 /opt/microchip/harmony/v1_03/bin/framework/peripheral/PIC32MZ1024ECG064_peripherals.a(peripheral.o)
 .text.PLIB_PMP_ExistsIncrementMode
                0x00000000        0x8 /opt/microchip/harmony/v1_03/bin/framework/peripheral/PIC32MZ1024ECG064_peripherals.a(peripheral.o)
 .text.PLIB_PMP_AddressIncrementModeSelect
                0x00000000       0x2c /opt/microchip/harmony/v1_03/bin/framework/peripheral/PIC32MZ1024ECG064_peripherals.a(peripheral.o)
 .text.PLIB_PMP_AddressIncrementModeGet
                0x00000000       0x20 /opt/microchip/harmony/v1_03/bin/framework/peripheral/PIC32MZ1024ECG064_peripherals.a(peripheral.o)
 .text.PLIB_PMP_ExistsDataTransferSize
                0x00000000        0x8 /opt/microchip/harmony/v1_03/bin/framework/peripheral/PIC32MZ1024ECG064_peripherals.a(peripheral.o)
 .text.PLIB_PMP_DataSizeSelect
                0x00000000       0x2c /opt/microchip/harmony/v1_03/bin/framework/peripheral/PIC32MZ1024ECG064_peripherals.a(peripheral.o)
 .text.PLIB_PMP_ExistsOperationMode
                0x00000000        0x8 /opt/microchip/harmony/v1_03/bin/framework/peripheral/PIC32MZ1024ECG064_peripherals.a(peripheral.o)
 .text.PLIB_PMP_OperationModeSelect
                0x00000000       0x2c /opt/microchip/harmony/v1_03/bin/framework/peripheral/PIC32MZ1024ECG064_peripherals.a(peripheral.o)
 .text.PLIB_PMP_OperationModeGet
                0x00000000       0x20 /opt/microchip/harmony/v1_03/bin/framework/peripheral/PIC32MZ1024ECG064_peripherals.a(peripheral.o)
 .text.PLIB_PMP_ExistsDataSetUpWaitStates
                0x00000000        0x8 /opt/microchip/harmony/v1_03/bin/framework/peripheral/PIC32MZ1024ECG064_peripherals.a(peripheral.o)
 .text.PLIB_PMP_WaitStatesDataSetUpSelect
                0x00000000       0x2c /opt/microchip/harmony/v1_03/bin/framework/peripheral/PIC32MZ1024ECG064_peripherals.a(peripheral.o)
 .text.PLIB_PMP_ExistsDataStrobeWaitStates
                0x00000000        0x8 /opt/microchip/harmony/v1_03/bin/framework/peripheral/PIC32MZ1024ECG064_peripherals.a(peripheral.o)
 .text.PLIB_PMP_WaitStatesStrobeSelect
                0x00000000       0x2c /opt/microchip/harmony/v1_03/bin/framework/peripheral/PIC32MZ1024ECG064_peripherals.a(peripheral.o)
 .text.PLIB_PMP_ExistsDataHoldWaitStates
                0x00000000        0x8 /opt/microchip/harmony/v1_03/bin/framework/peripheral/PIC32MZ1024ECG064_peripherals.a(peripheral.o)
 .text.PLIB_PMP_WaitStatesDataHoldSelect
                0x00000000       0x28 /opt/microchip/harmony/v1_03/bin/framework/peripheral/PIC32MZ1024ECG064_peripherals.a(peripheral.o)
 .text.PLIB_PMP_ExistsChipSelectEnable
                0x00000000        0x8 /opt/microchip/harmony/v1_03/bin/framework/peripheral/PIC32MZ1024ECG064_peripherals.a(peripheral.o)
 .text.PLIB_PMP_ChipSelectXEnable
                0x00000000       0x38 /opt/microchip/harmony/v1_03/bin/framework/peripheral/PIC32MZ1024ECG064_peripherals.a(peripheral.o)
 .text.PLIB_PMP_ChipSelectXDisable
                0x00000000       0x24 /opt/microchip/harmony/v1_03/bin/framework/peripheral/PIC32MZ1024ECG064_peripherals.a(peripheral.o)
 .text.PLIB_PMP_ExistsWriteChipSelectEnable
                0x00000000        0x8 /opt/microchip/harmony/v1_03/bin/framework/peripheral/PIC32MZ1024ECG064_peripherals.a(peripheral.o)
 .text.PLIB_PMP_WriteChipSelectXEnable
                0x00000000        0x8 /opt/microchip/harmony/v1_03/bin/framework/peripheral/PIC32MZ1024ECG064_peripherals.a(peripheral.o)
 .text.PLIB_PMP_WriteChipSelectXDisable
                0x00000000        0x8 /opt/microchip/harmony/v1_03/bin/framework/peripheral/PIC32MZ1024ECG064_peripherals.a(peripheral.o)
 .text.PLIB_PMP_ExistsReadChipSelectEnable
                0x00000000        0x8 /opt/microchip/harmony/v1_03/bin/framework/peripheral/PIC32MZ1024ECG064_peripherals.a(peripheral.o)
 .text.PLIB_PMP_ReadChipSelectXEnable
                0x00000000        0x8 /opt/microchip/harmony/v1_03/bin/framework/peripheral/PIC32MZ1024ECG064_peripherals.a(peripheral.o)
 .text.PLIB_PMP_ReadChipSelectXDisable
                0x00000000        0x8 /opt/microchip/harmony/v1_03/bin/framework/peripheral/PIC32MZ1024ECG064_peripherals.a(peripheral.o)
 .text.PLIB_PMP_ExistsAddressControl
                0x00000000        0x8 /opt/microchip/harmony/v1_03/bin/framework/peripheral/PIC32MZ1024ECG064_peripherals.a(peripheral.o)
 .text.PLIB_PMP_AddressSet
                0x00000000       0x14 /opt/microchip/harmony/v1_03/bin/framework/peripheral/PIC32MZ1024ECG064_peripherals.a(peripheral.o)
 .text.PLIB_PMP_AddressGet
                0x00000000       0x18 /opt/microchip/harmony/v1_03/bin/framework/peripheral/PIC32MZ1024ECG064_peripherals.a(peripheral.o)
 .text.PLIB_PMP_AddressLinesA0A1Set
                0x00000000       0x2c /opt/microchip/harmony/v1_03/bin/framework/peripheral/PIC32MZ1024ECG064_peripherals.a(peripheral.o)
 .text.PLIB_PMP_AddressLinesA0A1Get
                0x00000000       0x20 /opt/microchip/harmony/v1_03/bin/framework/peripheral/PIC32MZ1024ECG064_peripherals.a(peripheral.o)
 .text.PLIB_PMP_ExistsDualModeWriteAddressControl
                0x00000000        0x8 /opt/microchip/harmony/v1_03/bin/framework/peripheral/PIC32MZ1024ECG064_peripherals.a(peripheral.o)
 .text.PLIB_PMP_DualModeWriteAddressSet
                0x00000000        0x8 /opt/microchip/harmony/v1_03/bin/framework/peripheral/PIC32MZ1024ECG064_peripherals.a(peripheral.o)
 .text.PLIB_PMP_DualModeWriteAddressGet
                0x00000000        0x8 /opt/microchip/harmony/v1_03/bin/framework/peripheral/PIC32MZ1024ECG064_peripherals.a(peripheral.o)
 .text.PLIB_PMP_ExistsDualModeReadAddressControl
                0x00000000        0x8 /opt/microchip/harmony/v1_03/bin/framework/peripheral/PIC32MZ1024ECG064_peripherals.a(peripheral.o)
 .text.PLIB_PMP_DualModeReadAddressSet
                0x00000000        0x8 /opt/microchip/harmony/v1_03/bin/framework/peripheral/PIC32MZ1024ECG064_peripherals.a(peripheral.o)
 .text.PLIB_PMP_DualModeReadAddressGet
                0x00000000        0x8 /opt/microchip/harmony/v1_03/bin/framework/peripheral/PIC32MZ1024ECG064_peripherals.a(peripheral.o)
 .text.PLIB_PMP_ExistsAddressPortPinControl
                0x00000000        0x8 /opt/microchip/harmony/v1_03/bin/framework/peripheral/PIC32MZ1024ECG064_peripherals.a(peripheral.o)
 .text.PLIB_PMP_AddressPortEnable
                0x00000000       0x28 /opt/microchip/harmony/v1_03/bin/framework/peripheral/PIC32MZ1024ECG064_peripherals.a(peripheral.o)
 .text.PLIB_PMP_AddressPortDisable
                0x00000000       0x18 /opt/microchip/harmony/v1_03/bin/framework/peripheral/PIC32MZ1024ECG064_peripherals.a(peripheral.o)
 .text.PLIB_PMP_ExistsAddressLatchStrobePortControl
                0x00000000        0x8 /opt/microchip/harmony/v1_03/bin/framework/peripheral/PIC32MZ1024ECG064_peripherals.a(peripheral.o)
 .text.PLIB_PMP_AddressLatchStrobeEnable
                0x00000000       0x28 /opt/microchip/harmony/v1_03/bin/framework/peripheral/PIC32MZ1024ECG064_peripherals.a(peripheral.o)
 .text.PLIB_PMP_AddressLatchStrobeDisable
                0x00000000       0x18 /opt/microchip/harmony/v1_03/bin/framework/peripheral/PIC32MZ1024ECG064_peripherals.a(peripheral.o)
 .text.PLIB_PMP_ExistsInputBufferFull
                0x00000000        0x8 /opt/microchip/harmony/v1_03/bin/framework/peripheral/PIC32MZ1024ECG064_peripherals.a(peripheral.o)
 .text.PLIB_PMP_InputBuffersAreFull
                0x00000000       0x20 /opt/microchip/harmony/v1_03/bin/framework/peripheral/PIC32MZ1024ECG064_peripherals.a(peripheral.o)
 .text.PLIB_PMP_ExistsBufferOverFlow
                0x00000000        0x8 /opt/microchip/harmony/v1_03/bin/framework/peripheral/PIC32MZ1024ECG064_peripherals.a(peripheral.o)
 .text.PLIB_PMP_InputOverflowHasOccurred
                0x00000000       0x20 /opt/microchip/harmony/v1_03/bin/framework/peripheral/PIC32MZ1024ECG064_peripherals.a(peripheral.o)
 .text.PLIB_PMP_InputOverflowClear
                0x00000000       0x18 /opt/microchip/harmony/v1_03/bin/framework/peripheral/PIC32MZ1024ECG064_peripherals.a(peripheral.o)
 .text.PLIB_PMP_ExistsInputBufferXStatus
                0x00000000        0x8 /opt/microchip/harmony/v1_03/bin/framework/peripheral/PIC32MZ1024ECG064_peripherals.a(peripheral.o)
 .text.PLIB_PMP_InputBufferXIsFull
                0x00000000       0x30 /opt/microchip/harmony/v1_03/bin/framework/peripheral/PIC32MZ1024ECG064_peripherals.a(peripheral.o)
 .text.PLIB_PMP_IsDataReceived
                0x00000000       0x30 /opt/microchip/harmony/v1_03/bin/framework/peripheral/PIC32MZ1024ECG064_peripherals.a(peripheral.o)
 .text.PLIB_PMP_ExistsOutPutBufferEmpty
                0x00000000        0x8 /opt/microchip/harmony/v1_03/bin/framework/peripheral/PIC32MZ1024ECG064_peripherals.a(peripheral.o)
 .text.PLIB_PMP_OutputBuffersAreEmpty
                0x00000000       0x20 /opt/microchip/harmony/v1_03/bin/framework/peripheral/PIC32MZ1024ECG064_peripherals.a(peripheral.o)
 .text.PLIB_PMP_ExistsBufferUnderFlow
                0x00000000        0x8 /opt/microchip/harmony/v1_03/bin/framework/peripheral/PIC32MZ1024ECG064_peripherals.a(peripheral.o)
 .text.PLIB_PMP_OutputUnderflowHasOccurred
                0x00000000       0x20 /opt/microchip/harmony/v1_03/bin/framework/peripheral/PIC32MZ1024ECG064_peripherals.a(peripheral.o)
 .text.PLIB_PMP_OutputUnderflowClear
                0x00000000       0x18 /opt/microchip/harmony/v1_03/bin/framework/peripheral/PIC32MZ1024ECG064_peripherals.a(peripheral.o)
 .text.PLIB_PMP_ExistsOutputBufferXStatus
                0x00000000        0x8 /opt/microchip/harmony/v1_03/bin/framework/peripheral/PIC32MZ1024ECG064_peripherals.a(peripheral.o)
 .text.PLIB_PMP_OutputBufferXIsEmpty
                0x00000000       0x2c /opt/microchip/harmony/v1_03/bin/framework/peripheral/PIC32MZ1024ECG064_peripherals.a(peripheral.o)
 .text.PLIB_PMP_IsDataTransmitted
                0x00000000       0x2c /opt/microchip/harmony/v1_03/bin/framework/peripheral/PIC32MZ1024ECG064_peripherals.a(peripheral.o)
 .text.PLIB_PMP_ExistsBufferRead
                0x00000000        0x8 /opt/microchip/harmony/v1_03/bin/framework/peripheral/PIC32MZ1024ECG064_peripherals.a(peripheral.o)
 .text.PLIB_PMP_InputBufferXByteReceive
                0x00000000       0x34 /opt/microchip/harmony/v1_03/bin/framework/peripheral/PIC32MZ1024ECG064_peripherals.a(peripheral.o)
 .text.PLIB_PMP_ExistsBufferWrite
                0x00000000        0x8 /opt/microchip/harmony/v1_03/bin/framework/peripheral/PIC32MZ1024ECG064_peripherals.a(peripheral.o)
 .text.PLIB_PMP_OutputBufferXByteSend
                0x00000000       0x40 /opt/microchip/harmony/v1_03/bin/framework/peripheral/PIC32MZ1024ECG064_peripherals.a(peripheral.o)
 .text.PLIB_PMP_ExistsMasterRXTX
                0x00000000        0x8 /opt/microchip/harmony/v1_03/bin/framework/peripheral/PIC32MZ1024ECG064_peripherals.a(peripheral.o)
 .text.PLIB_PMP_MasterSend
                0x00000000       0x18 /opt/microchip/harmony/v1_03/bin/framework/peripheral/PIC32MZ1024ECG064_peripherals.a(peripheral.o)
 .text.PLIB_PMP_MasterReceive
                0x00000000       0x20 /opt/microchip/harmony/v1_03/bin/framework/peripheral/PIC32MZ1024ECG064_peripherals.a(peripheral.o)
 .text.PLIB_PMP_ExistsDualModeMasterRXTX
                0x00000000        0x8 /opt/microchip/harmony/v1_03/bin/framework/peripheral/PIC32MZ1024ECG064_peripherals.a(peripheral.o)
 .text.PLIB_PMP_DualModeMasterSend
                0x00000000        0x8 /opt/microchip/harmony/v1_03/bin/framework/peripheral/PIC32MZ1024ECG064_peripherals.a(peripheral.o)
 .text.PLIB_PMP_DualModeMasterReceive
                0x00000000        0x8 /opt/microchip/harmony/v1_03/bin/framework/peripheral/PIC32MZ1024ECG064_peripherals.a(peripheral.o)
 .text.PLIB_PMP_ExistsSlaveTX
                0x00000000        0x8 /opt/microchip/harmony/v1_03/bin/framework/peripheral/PIC32MZ1024ECG064_peripherals.a(peripheral.o)
 .text.PLIB_PMP_SlaveSend
                0x00000000       0x18 /opt/microchip/harmony/v1_03/bin/framework/peripheral/PIC32MZ1024ECG064_peripherals.a(peripheral.o)
 .text.PLIB_PMP_ExistsSlaveRX
                0x00000000        0x8 /opt/microchip/harmony/v1_03/bin/framework/peripheral/PIC32MZ1024ECG064_peripherals.a(peripheral.o)
 .text.PLIB_PMP_SlaveReceive
                0x00000000       0x20 /opt/microchip/harmony/v1_03/bin/framework/peripheral/PIC32MZ1024ECG064_peripherals.a(peripheral.o)
 .text.PLIB_PMP_ExistsCSXActiveStatus
                0x00000000        0x8 /opt/microchip/harmony/v1_03/bin/framework/peripheral/PIC32MZ1024ECG064_peripherals.a(peripheral.o)
 .text.PLIB_PMP_ChipSelectXIsActive
                0x00000000       0x34 /opt/microchip/harmony/v1_03/bin/framework/peripheral/PIC32MZ1024ECG064_peripherals.a(peripheral.o)
 .text.PLIB_PMP_ExistsByteEnablePortControl
                0x00000000        0x8 /opt/microchip/harmony/v1_03/bin/framework/peripheral/PIC32MZ1024ECG064_peripherals.a(peripheral.o)
 .text.PLIB_PMP_ByteEnablePortEnable
                0x00000000        0x8 /opt/microchip/harmony/v1_03/bin/framework/peripheral/PIC32MZ1024ECG064_peripherals.a(peripheral.o)
 .text.PLIB_PMP_ByteEnablePortDisable
                0x00000000        0x8 /opt/microchip/harmony/v1_03/bin/framework/peripheral/PIC32MZ1024ECG064_peripherals.a(peripheral.o)
 .text.PLIB_PMP_ExistsByteEnablePolarity
                0x00000000        0x8 /opt/microchip/harmony/v1_03/bin/framework/peripheral/PIC32MZ1024ECG064_peripherals.a(peripheral.o)
 .text.PLIB_PMP_ByteEnablePolaritySelect
                0x00000000        0x8 /opt/microchip/harmony/v1_03/bin/framework/peripheral/PIC32MZ1024ECG064_peripherals.a(peripheral.o)
 .text.PLIB_PMP_ExistsChipXByteEnablePolarity
                0x00000000        0x8 /opt/microchip/harmony/v1_03/bin/framework/peripheral/PIC32MZ1024ECG064_peripherals.a(peripheral.o)
 .text.PLIB_PMP_ChipSelectXByteEnablePortPolaritySelect
                0x00000000        0x8 /opt/microchip/harmony/v1_03/bin/framework/peripheral/PIC32MZ1024ECG064_peripherals.a(peripheral.o)
 .text.PLIB_PMP_ExistsChipXWriteEnablePolarity
                0x00000000        0x8 /opt/microchip/harmony/v1_03/bin/framework/peripheral/PIC32MZ1024ECG064_peripherals.a(peripheral.o)
 .text.PLIB_PMP_ChipSelectXWriteEnableStrobePolaritySelect
                0x00000000        0x8 /opt/microchip/harmony/v1_03/bin/framework/peripheral/PIC32MZ1024ECG064_peripherals.a(peripheral.o)
 .text.PLIB_PMP_ExistsChipXReadWritePolarity
                0x00000000        0x8 /opt/microchip/harmony/v1_03/bin/framework/peripheral/PIC32MZ1024ECG064_peripherals.a(peripheral.o)
 .text.PLIB_PMP_ChipSelectXReadWriteStrobePolaritySelect
                0x00000000        0x8 /opt/microchip/harmony/v1_03/bin/framework/peripheral/PIC32MZ1024ECG064_peripherals.a(peripheral.o)
 .text.PLIB_PMP_ExistsSmartAddress
                0x00000000        0x8 /opt/microchip/harmony/v1_03/bin/framework/peripheral/PIC32MZ1024ECG064_peripherals.a(peripheral.o)
 .text.PLIB_PMP_SmartAddressStrobeEnable
                0x00000000        0x8 /opt/microchip/harmony/v1_03/bin/framework/peripheral/PIC32MZ1024ECG064_peripherals.a(peripheral.o)
 .text.PLIB_PMP_SmartAddressStrobeDisable
                0x00000000        0x8 /opt/microchip/harmony/v1_03/bin/framework/peripheral/PIC32MZ1024ECG064_peripherals.a(peripheral.o)
 .text.PLIB_PMP_ExistsBusKeeper
                0x00000000        0x8 /opt/microchip/harmony/v1_03/bin/framework/peripheral/PIC32MZ1024ECG064_peripherals.a(peripheral.o)
 .text.PLIB_PMP_BusKeeperEnable
                0x00000000        0x8 /opt/microchip/harmony/v1_03/bin/framework/peripheral/PIC32MZ1024ECG064_peripherals.a(peripheral.o)
 .text.PLIB_PMP_BusKeeperDisable
                0x00000000        0x8 /opt/microchip/harmony/v1_03/bin/framework/peripheral/PIC32MZ1024ECG064_peripherals.a(peripheral.o)
 .text.PLIB_PMP_ExistsTransactionError
                0x00000000        0x8 /opt/microchip/harmony/v1_03/bin/framework/peripheral/PIC32MZ1024ECG064_peripherals.a(peripheral.o)
 .text.PLIB_PMP_TransactionErrorHasOccurred
                0x00000000        0x8 /opt/microchip/harmony/v1_03/bin/framework/peripheral/PIC32MZ1024ECG064_peripherals.a(peripheral.o)
 .text.PLIB_PMP_TransactionErrorClear
                0x00000000        0x8 /opt/microchip/harmony/v1_03/bin/framework/peripheral/PIC32MZ1024ECG064_peripherals.a(peripheral.o)
 .text.PLIB_PMP_ExistsTransactionTimeOut
                0x00000000        0x8 /opt/microchip/harmony/v1_03/bin/framework/peripheral/PIC32MZ1024ECG064_peripherals.a(peripheral.o)
 .text.PLIB_PMP_TransactionHasTimedOut
                0x00000000        0x8 /opt/microchip/harmony/v1_03/bin/framework/peripheral/PIC32MZ1024ECG064_peripherals.a(peripheral.o)
 .text.PLIB_PMP_TransactionTimeoutClear
                0x00000000        0x8 /opt/microchip/harmony/v1_03/bin/framework/peripheral/PIC32MZ1024ECG064_peripherals.a(peripheral.o)
 .text.PLIB_PMP_ExistsAltMasterRequest
                0x00000000        0x8 /opt/microchip/harmony/v1_03/bin/framework/peripheral/PIC32MZ1024ECG064_peripherals.a(peripheral.o)
 .text.PLIB_PMP_AlternateMasterRequestStatus
                0x00000000        0x8 /opt/microchip/harmony/v1_03/bin/framework/peripheral/PIC32MZ1024ECG064_peripherals.a(peripheral.o)
 .text.PLIB_PMP_ExistsCurrentMaster
                0x00000000        0x8 /opt/microchip/harmony/v1_03/bin/framework/peripheral/PIC32MZ1024ECG064_peripherals.a(peripheral.o)
 .text.PLIB_PMP_AlternateMasterHasAccess
                0x00000000        0x8 /opt/microchip/harmony/v1_03/bin/framework/peripheral/PIC32MZ1024ECG064_peripherals.a(peripheral.o)
 .text.PLIB_PMP_ExistsEnhancedMasterMode
                0x00000000        0x8 /opt/microchip/harmony/v1_03/bin/framework/peripheral/PIC32MZ1024ECG064_peripherals.a(peripheral.o)
 .text.PLIB_PMP_EnhancedMasterModeSelect
                0x00000000        0x8 /opt/microchip/harmony/v1_03/bin/framework/peripheral/PIC32MZ1024ECG064_peripherals.a(peripheral.o)
 .text.PLIB_PMP_ExistsReservedAddrSpace
                0x00000000        0x8 /opt/microchip/harmony/v1_03/bin/framework/peripheral/PIC32MZ1024ECG064_peripherals.a(peripheral.o)
 .text.PLIB_PMP_ReservedAddressSpaceBitsSet
                0x00000000        0x8 /opt/microchip/harmony/v1_03/bin/framework/peripheral/PIC32MZ1024ECG064_peripherals.a(peripheral.o)
 .text.PLIB_PMP_ExistsWaitStatesAddrLatchStrobe
                0x00000000        0x8 /opt/microchip/harmony/v1_03/bin/framework/peripheral/PIC32MZ1024ECG064_peripherals.a(peripheral.o)
 .text.PLIB_PMP_WaitStatesAddressLatchStrobeSelect
                0x00000000        0x8 /opt/microchip/harmony/v1_03/bin/framework/peripheral/PIC32MZ1024ECG064_peripherals.a(peripheral.o)
 .text.PLIB_PMP_ExistsWaitStatesAddrHoldStrobe
                0x00000000        0x8 /opt/microchip/harmony/v1_03/bin/framework/peripheral/PIC32MZ1024ECG064_peripherals.a(peripheral.o)
 .text.PLIB_PMP_WaitStatesAddressHoldStrobeSelect
                0x00000000        0x8 /opt/microchip/harmony/v1_03/bin/framework/peripheral/PIC32MZ1024ECG064_peripherals.a(peripheral.o)
 .text.PLIB_PMP_ExistsCSXPortControl
                0x00000000        0x8 /opt/microchip/harmony/v1_03/bin/framework/peripheral/PIC32MZ1024ECG064_peripherals.a(peripheral.o)
 .text.PLIB_PMP_ChipSelectXPortEnable
                0x00000000        0x8 /opt/microchip/harmony/v1_03/bin/framework/peripheral/PIC32MZ1024ECG064_peripherals.a(peripheral.o)
 .text.PLIB_PMP_ChipSelectXPortDisable
                0x00000000        0x8 /opt/microchip/harmony/v1_03/bin/framework/peripheral/PIC32MZ1024ECG064_peripherals.a(peripheral.o)
 .text.PLIB_PMP_ExistsChipXEnableStorbeSelect
                0x00000000        0x8 /opt/microchip/harmony/v1_03/bin/framework/peripheral/PIC32MZ1024ECG064_peripherals.a(peripheral.o)
 .text.PLIB_PMP_ChipSelectXEnableStrobeSelect
                0x00000000        0x8 /opt/microchip/harmony/v1_03/bin/framework/peripheral/PIC32MZ1024ECG064_peripherals.a(peripheral.o)
 .text.PLIB_PMP_ChipSelectXEnableStrobeDeSelect
                0x00000000        0x8 /opt/microchip/harmony/v1_03/bin/framework/peripheral/PIC32MZ1024ECG064_peripherals.a(peripheral.o)
 .text.PLIB_PMP_ExistsChipXACKPolarity
                0x00000000        0x8 /opt/microchip/harmony/v1_03/bin/framework/peripheral/PIC32MZ1024ECG064_peripherals.a(peripheral.o)
 .text.PLIB_PMP_ChipSelectXAckPolaritySelect
                0x00000000        0x8 /opt/microchip/harmony/v1_03/bin/framework/peripheral/PIC32MZ1024ECG064_peripherals.a(peripheral.o)
 .text.PLIB_PMP_ExistsChipXDataSize
                0x00000000        0x8 /opt/microchip/harmony/v1_03/bin/framework/peripheral/PIC32MZ1024ECG064_peripherals.a(peripheral.o)
 .text.PLIB_PMP_ChipXDataSizeSelect
                0x00000000        0x8 /opt/microchip/harmony/v1_03/bin/framework/peripheral/PIC32MZ1024ECG064_peripherals.a(peripheral.o)
 .text.PLIB_PMP_ExistsChipXBaseAddress
                0x00000000        0x8 /opt/microchip/harmony/v1_03/bin/framework/peripheral/PIC32MZ1024ECG064_peripherals.a(peripheral.o)
 .text.PLIB_PMP_ChipXBaseAddressSet
                0x00000000        0x8 /opt/microchip/harmony/v1_03/bin/framework/peripheral/PIC32MZ1024ECG064_peripherals.a(peripheral.o)
 .text.PLIB_PMP_ExistsChipXACKMode
                0x00000000        0x8 /opt/microchip/harmony/v1_03/bin/framework/peripheral/PIC32MZ1024ECG064_peripherals.a(peripheral.o)
 .text.PLIB_PMP_ChipXAckModeSelect
                0x00000000        0x8 /opt/microchip/harmony/v1_03/bin/framework/peripheral/PIC32MZ1024ECG064_peripherals.a(peripheral.o)
 .text.PLIB_PMP_ExistsChipXAltMasterWaitStates
                0x00000000        0x8 /opt/microchip/harmony/v1_03/bin/framework/peripheral/PIC32MZ1024ECG064_peripherals.a(peripheral.o)
 .text.PLIB_PMP_ChipXWaitStatesAlternateMasterSelect
                0x00000000        0x8 /opt/microchip/harmony/v1_03/bin/framework/peripheral/PIC32MZ1024ECG064_peripherals.a(peripheral.o)
 .text.PLIB_PMP_ExistsChipXDataSetupWaitStates
                0x00000000        0x8 /opt/microchip/harmony/v1_03/bin/framework/peripheral/PIC32MZ1024ECG064_peripherals.a(peripheral.o)
 .text.PLIB_PMP_ChipXWaitStatesDataSetupSelect
                0x00000000        0x8 /opt/microchip/harmony/v1_03/bin/framework/peripheral/PIC32MZ1024ECG064_peripherals.a(peripheral.o)
 .text.PLIB_PMP_ExistsChipXStrobeWaitStates
                0x00000000        0x8 /opt/microchip/harmony/v1_03/bin/framework/peripheral/PIC32MZ1024ECG064_peripherals.a(peripheral.o)
 .text.PLIB_PMP_ChipXWaitStatesStrobeSelect
                0x00000000        0x8 /opt/microchip/harmony/v1_03/bin/framework/peripheral/PIC32MZ1024ECG064_peripherals.a(peripheral.o)
 .text.PLIB_PMP_ExistsChipXDataHoldWaitStates
                0x00000000        0x8 /opt/microchip/harmony/v1_03/bin/framework/peripheral/PIC32MZ1024ECG064_peripherals.a(peripheral.o)
 .text.PLIB_PMP_ChipXWaitStatesDataHoldSelect
                0x00000000        0x8 /opt/microchip/harmony/v1_03/bin/framework/peripheral/PIC32MZ1024ECG064_peripherals.a(peripheral.o)
 .text.PLIB_PORTS_ExistsRemapInput
                0x00000000        0x8 /opt/microchip/harmony/v1_03/bin/framework/peripheral/PIC32MZ1024ECG064_peripherals.a(peripheral.o)
 .text.PLIB_PORTS_ExistsRemapOutput
                0x00000000        0x8 /opt/microchip/harmony/v1_03/bin/framework/peripheral/PIC32MZ1024ECG064_peripherals.a(peripheral.o)
 .text.PLIB_PORTS_PinModeSelect
                0x00000000       0x60 /opt/microchip/harmony/v1_03/bin/framework/peripheral/PIC32MZ1024ECG064_peripherals.a(peripheral.o)
 .text.PLIB_PORTS_ExistsPinMode
                0x00000000        0x8 /opt/microchip/harmony/v1_03/bin/framework/peripheral/PIC32MZ1024ECG064_peripherals.a(peripheral.o)
 .text.PLIB_PORTS_AnPinsModeSelect
                0x00000000        0x8 /opt/microchip/harmony/v1_03/bin/framework/peripheral/PIC32MZ1024ECG064_peripherals.a(peripheral.o)
 .text.PLIB_PORTS_ExistsAnPinsMode
                0x00000000        0x8 /opt/microchip/harmony/v1_03/bin/framework/peripheral/PIC32MZ1024ECG064_peripherals.a(peripheral.o)
 .text.PLIB_PORTS_Read
                0x00000000       0x2c /opt/microchip/harmony/v1_03/bin/framework/peripheral/PIC32MZ1024ECG064_peripherals.a(peripheral.o)
 .text.PLIB_PORTS_ExistsPortsRead
                0x00000000        0x8 /opt/microchip/harmony/v1_03/bin/framework/peripheral/PIC32MZ1024ECG064_peripherals.a(peripheral.o)
 .text.PLIB_PORTS_PinGetLatched
                0x00000000       0x40 /opt/microchip/harmony/v1_03/bin/framework/peripheral/PIC32MZ1024ECG064_peripherals.a(peripheral.o)
 .text.PLIB_PORTS_ReadLatched
                0x00000000       0x2c /opt/microchip/harmony/v1_03/bin/framework/peripheral/PIC32MZ1024ECG064_peripherals.a(peripheral.o)
 .text.PLIB_PORTS_ExistsLatchRead
                0x00000000        0x8 /opt/microchip/harmony/v1_03/bin/framework/peripheral/PIC32MZ1024ECG064_peripherals.a(peripheral.o)
 .text.PLIB_PORTS_PinWrite
                0x00000000       0x50 /opt/microchip/harmony/v1_03/bin/framework/peripheral/PIC32MZ1024ECG064_peripherals.a(peripheral.o)
 .text.PLIB_PORTS_PinToggle
                0x00000000       0x38 /opt/microchip/harmony/v1_03/bin/framework/peripheral/PIC32MZ1024ECG064_peripherals.a(peripheral.o)
 .text.PLIB_PORTS_Write
                0x00000000       0x2c /opt/microchip/harmony/v1_03/bin/framework/peripheral/PIC32MZ1024ECG064_peripherals.a(peripheral.o)
 .text.PLIB_PORTS_Set
                0x00000000       0x38 /opt/microchip/harmony/v1_03/bin/framework/peripheral/PIC32MZ1024ECG064_peripherals.a(peripheral.o)
 .text.PLIB_PORTS_Clear
                0x00000000       0x34 /opt/microchip/harmony/v1_03/bin/framework/peripheral/PIC32MZ1024ECG064_peripherals.a(peripheral.o)
 .text.PLIB_PORTS_ExistsPortsWrite
                0x00000000        0x8 /opt/microchip/harmony/v1_03/bin/framework/peripheral/PIC32MZ1024ECG064_peripherals.a(peripheral.o)
 .text.PLIB_PORTS_PinDirectionInputSet
                0x00000000       0x38 /opt/microchip/harmony/v1_03/bin/framework/peripheral/PIC32MZ1024ECG064_peripherals.a(peripheral.o)
 .text.PLIB_PORTS_PinDirectionOutputSet
                0x00000000       0x38 /opt/microchip/harmony/v1_03/bin/framework/peripheral/PIC32MZ1024ECG064_peripherals.a(peripheral.o)
 .text.PLIB_PORTS_DirectionInputSet
                0x00000000       0x34 /opt/microchip/harmony/v1_03/bin/framework/peripheral/PIC32MZ1024ECG064_peripherals.a(peripheral.o)
 .text.PLIB_PORTS_DirectionGet
                0x00000000       0x34 /opt/microchip/harmony/v1_03/bin/framework/peripheral/PIC32MZ1024ECG064_peripherals.a(peripheral.o)
 .text.PLIB_PORTS_ExistsPortsDirection
                0x00000000        0x8 /opt/microchip/harmony/v1_03/bin/framework/peripheral/PIC32MZ1024ECG064_peripherals.a(peripheral.o)
 .text.PLIB_PORTS_PinOpenDrainEnable
                0x00000000       0x38 /opt/microchip/harmony/v1_03/bin/framework/peripheral/PIC32MZ1024ECG064_peripherals.a(peripheral.o)
 .text.PLIB_PORTS_PinOpenDrainDisable
                0x00000000       0x38 /opt/microchip/harmony/v1_03/bin/framework/peripheral/PIC32MZ1024ECG064_peripherals.a(peripheral.o)
 .text.PLIB_PORTS_OpenDrainDisable
                0x00000000       0x34 /opt/microchip/harmony/v1_03/bin/framework/peripheral/PIC32MZ1024ECG064_peripherals.a(peripheral.o)
 .text.PLIB_PORTS_ExistsPortsOpenDrain
                0x00000000        0x8 /opt/microchip/harmony/v1_03/bin/framework/peripheral/PIC32MZ1024ECG064_peripherals.a(peripheral.o)
 .text.PLIB_PORTS_ChangeNoticeEnable
                0x00000000        0x8 /opt/microchip/harmony/v1_03/bin/framework/peripheral/PIC32MZ1024ECG064_peripherals.a(peripheral.o)
 .text.PLIB_PORTS_ChangeNoticeDisable
                0x00000000        0x8 /opt/microchip/harmony/v1_03/bin/framework/peripheral/PIC32MZ1024ECG064_peripherals.a(peripheral.o)
 .text.PLIB_PORTS_ExistsChangeNotice
                0x00000000        0x8 /opt/microchip/harmony/v1_03/bin/framework/peripheral/PIC32MZ1024ECG064_peripherals.a(peripheral.o)
 .text.PLIB_PORTS_PinChangeNoticeEnable
                0x00000000        0x8 /opt/microchip/harmony/v1_03/bin/framework/peripheral/PIC32MZ1024ECG064_peripherals.a(peripheral.o)
 .text.PLIB_PORTS_PinChangeNoticeDisable
                0x00000000        0x8 /opt/microchip/harmony/v1_03/bin/framework/peripheral/PIC32MZ1024ECG064_peripherals.a(peripheral.o)
 .text.PLIB_PORTS_CnPinsEnable
                0x00000000        0x8 /opt/microchip/harmony/v1_03/bin/framework/peripheral/PIC32MZ1024ECG064_peripherals.a(peripheral.o)
 .text.PLIB_PORTS_CnPinsDisable
                0x00000000        0x8 /opt/microchip/harmony/v1_03/bin/framework/peripheral/PIC32MZ1024ECG064_peripherals.a(peripheral.o)
 .text.PLIB_PORTS_ExistsPinChangeNotice
                0x00000000        0x8 /opt/microchip/harmony/v1_03/bin/framework/peripheral/PIC32MZ1024ECG064_peripherals.a(peripheral.o)
 .text.PLIB_PORTS_ChangeNoticeInIdleEnable
                0x00000000        0x8 /opt/microchip/harmony/v1_03/bin/framework/peripheral/PIC32MZ1024ECG064_peripherals.a(peripheral.o)
 .text.PLIB_PORTS_ChangeNoticeInIdleDisable
                0x00000000        0x8 /opt/microchip/harmony/v1_03/bin/framework/peripheral/PIC32MZ1024ECG064_peripherals.a(peripheral.o)
 .text.PLIB_PORTS_ExistsChangeNoticeInIdle
                0x00000000        0x8 /opt/microchip/harmony/v1_03/bin/framework/peripheral/PIC32MZ1024ECG064_peripherals.a(peripheral.o)
 .text.PLIB_PORTS_ChangeNoticePullUpEnable
                0x00000000        0x8 /opt/microchip/harmony/v1_03/bin/framework/peripheral/PIC32MZ1024ECG064_peripherals.a(peripheral.o)
 .text.PLIB_PORTS_ChangeNoticePullUpDisable
                0x00000000        0x8 /opt/microchip/harmony/v1_03/bin/framework/peripheral/PIC32MZ1024ECG064_peripherals.a(peripheral.o)
 .text.PLIB_PORTS_CnPinsPullUpEnable
                0x00000000        0x8 /opt/microchip/harmony/v1_03/bin/framework/peripheral/PIC32MZ1024ECG064_peripherals.a(peripheral.o)
 .text.PLIB_PORTS_CnPinsPullUpDisable
                0x00000000        0x8 /opt/microchip/harmony/v1_03/bin/framework/peripheral/PIC32MZ1024ECG064_peripherals.a(peripheral.o)
 .text.PLIB_PORTS_ExistsChangeNoticePullUp
                0x00000000        0x8 /opt/microchip/harmony/v1_03/bin/framework/peripheral/PIC32MZ1024ECG064_peripherals.a(peripheral.o)
 .text.PLIB_PORTS_PinModePerPortSelect
                0x00000000       0x70 /opt/microchip/harmony/v1_03/bin/framework/peripheral/PIC32MZ1024ECG064_peripherals.a(peripheral.o)
 .text.PLIB_PORTS_ExistsPinModePerPort
                0x00000000        0x8 /opt/microchip/harmony/v1_03/bin/framework/peripheral/PIC32MZ1024ECG064_peripherals.a(peripheral.o)
 .text.PLIB_PORTS_ChangeNoticePullDownPerPortEnable
                0x00000000       0x38 /opt/microchip/harmony/v1_03/bin/framework/peripheral/PIC32MZ1024ECG064_peripherals.a(peripheral.o)
 .text.PLIB_PORTS_ChangeNoticePullDownPerPortDisable
                0x00000000       0x38 /opt/microchip/harmony/v1_03/bin/framework/peripheral/PIC32MZ1024ECG064_peripherals.a(peripheral.o)
 .text.PLIB_PORTS_ChannelChangeNoticePullDownDisable
                0x00000000       0x34 /opt/microchip/harmony/v1_03/bin/framework/peripheral/PIC32MZ1024ECG064_peripherals.a(peripheral.o)
 .text.PLIB_PORTS_ExistsChangeNoticePullDownPerPort
                0x00000000        0x8 /opt/microchip/harmony/v1_03/bin/framework/peripheral/PIC32MZ1024ECG064_peripherals.a(peripheral.o)
 .text.PLIB_PORTS_ChangeNoticePullUpPerPortEnable
                0x00000000       0x38 /opt/microchip/harmony/v1_03/bin/framework/peripheral/PIC32MZ1024ECG064_peripherals.a(peripheral.o)
 .text.PLIB_PORTS_ChangeNoticePullUpPerPortDisable
                0x00000000       0x38 /opt/microchip/harmony/v1_03/bin/framework/peripheral/PIC32MZ1024ECG064_peripherals.a(peripheral.o)
 .text.PLIB_PORTS_ChannelChangeNoticePullUpDisable
                0x00000000       0x34 /opt/microchip/harmony/v1_03/bin/framework/peripheral/PIC32MZ1024ECG064_peripherals.a(peripheral.o)
 .text.PLIB_PORTS_ExistsChangeNoticePullUpPerPort
                0x00000000        0x8 /opt/microchip/harmony/v1_03/bin/framework/peripheral/PIC32MZ1024ECG064_peripherals.a(peripheral.o)
 .text.PLIB_PORTS_PinChangeNoticePerPortEnable
                0x00000000       0x38 /opt/microchip/harmony/v1_03/bin/framework/peripheral/PIC32MZ1024ECG064_peripherals.a(peripheral.o)
 .text.PLIB_PORTS_PinChangeNoticePerPortDisable
                0x00000000       0x38 /opt/microchip/harmony/v1_03/bin/framework/peripheral/PIC32MZ1024ECG064_peripherals.a(peripheral.o)
 .text.PLIB_PORTS_ChannelChangeNoticeDisable
                0x00000000       0x34 /opt/microchip/harmony/v1_03/bin/framework/peripheral/PIC32MZ1024ECG064_peripherals.a(peripheral.o)
 .text.PLIB_PORTS_ExistsPinChangeNoticePerPort
                0x00000000        0x8 /opt/microchip/harmony/v1_03/bin/framework/peripheral/PIC32MZ1024ECG064_peripherals.a(peripheral.o)
 .text.PLIB_PORTS_ChangeNoticePerPortTurnOff
                0x00000000       0x34 /opt/microchip/harmony/v1_03/bin/framework/peripheral/PIC32MZ1024ECG064_peripherals.a(peripheral.o)
 .text.PLIB_PORTS_ExistsChangeNoticePerPortTurnOn
                0x00000000        0x8 /opt/microchip/harmony/v1_03/bin/framework/peripheral/PIC32MZ1024ECG064_peripherals.a(peripheral.o)
 .text.PLIB_PORTS_ChangeNoticeInIdlePerPortEnable
                0x00000000       0x34 /opt/microchip/harmony/v1_03/bin/framework/peripheral/PIC32MZ1024ECG064_peripherals.a(peripheral.o)
 .text.PLIB_PORTS_ChangeNoticeInIdlePerPortDisable
                0x00000000       0x34 /opt/microchip/harmony/v1_03/bin/framework/peripheral/PIC32MZ1024ECG064_peripherals.a(peripheral.o)
 .text.PLIB_PORTS_ExistsChangeNoticePerPortInIdle
                0x00000000        0x8 /opt/microchip/harmony/v1_03/bin/framework/peripheral/PIC32MZ1024ECG064_peripherals.a(peripheral.o)
 .text.PLIB_PORTS_ChangeNoticePerPortHasOccured
                0x00000000       0x40 /opt/microchip/harmony/v1_03/bin/framework/peripheral/PIC32MZ1024ECG064_peripherals.a(peripheral.o)
 .text.PLIB_PORTS_ChangeNoticePerPortHasOccurred
                0x00000000       0x40 /opt/microchip/harmony/v1_03/bin/framework/peripheral/PIC32MZ1024ECG064_peripherals.a(peripheral.o)
 .text.PLIB_PORTS_ExistsChangeNoticePerPortStatus
                0x00000000        0x8 /opt/microchip/harmony/v1_03/bin/framework/peripheral/PIC32MZ1024ECG064_peripherals.a(peripheral.o)
 .text.PLIB_POWER_ExistsPeripheralModuleControl
                0x00000000        0x8 /opt/microchip/harmony/v1_03/bin/framework/peripheral/PIC32MZ1024ECG064_peripherals.a(peripheral.o)
 .text.PLIB_POWER_PeripheralModuleDisable
                0x00000000      0x100 /opt/microchip/harmony/v1_03/bin/framework/peripheral/PIC32MZ1024ECG064_peripherals.a(peripheral.o)
 .text.PLIB_POWER_PeripheralModuleEnable
                0x00000000      0x100 /opt/microchip/harmony/v1_03/bin/framework/peripheral/PIC32MZ1024ECG064_peripherals.a(peripheral.o)
 .text.PLIB_POWER_PeripheralModuleIsEnabled
                0x00000000      0x128 /opt/microchip/harmony/v1_03/bin/framework/peripheral/PIC32MZ1024ECG064_peripherals.a(peripheral.o)
 .text.PLIB_POWER_ExistsVoltageRegulatorControl
                0x00000000        0x8 /opt/microchip/harmony/v1_03/bin/framework/peripheral/PIC32MZ1024ECG064_peripherals.a(peripheral.o)
 .text.PLIB_POWER_VoltageRegulatorEnable
                0x00000000       0x18 /opt/microchip/harmony/v1_03/bin/framework/peripheral/PIC32MZ1024ECG064_peripherals.a(peripheral.o)
 .text.PLIB_POWER_VoltageRegulatorDisable
                0x00000000       0x18 /opt/microchip/harmony/v1_03/bin/framework/peripheral/PIC32MZ1024ECG064_peripherals.a(peripheral.o)
 .text.PLIB_POWER_VoltageRegulatorIsEnabled
                0x00000000       0x20 /opt/microchip/harmony/v1_03/bin/framework/peripheral/PIC32MZ1024ECG064_peripherals.a(peripheral.o)
 .text.PLIB_POWER_ExistsSleepStatus
                0x00000000        0x8 /opt/microchip/harmony/v1_03/bin/framework/peripheral/PIC32MZ1024ECG064_peripherals.a(peripheral.o)
 .text.PLIB_POWER_DeviceWasInSleepMode
                0x00000000       0x20 /opt/microchip/harmony/v1_03/bin/framework/peripheral/PIC32MZ1024ECG064_peripherals.a(peripheral.o)
 .text.PLIB_POWER_ClearSleepStatus
                0x00000000       0x18 /opt/microchip/harmony/v1_03/bin/framework/peripheral/PIC32MZ1024ECG064_peripherals.a(peripheral.o)
 .text.PLIB_POWER_ExistsIdleStatus
                0x00000000        0x8 /opt/microchip/harmony/v1_03/bin/framework/peripheral/PIC32MZ1024ECG064_peripherals.a(peripheral.o)
 .text.PLIB_POWER_DeviceWasInIdleMode
                0x00000000       0x20 /opt/microchip/harmony/v1_03/bin/framework/peripheral/PIC32MZ1024ECG064_peripherals.a(peripheral.o)
 .text.PLIB_POWER_ClearIdleStatus
                0x00000000       0x18 /opt/microchip/harmony/v1_03/bin/framework/peripheral/PIC32MZ1024ECG064_peripherals.a(peripheral.o)
 .text.PLIB_POWER_ExistsDeepSleepMode
                0x00000000        0x8 /opt/microchip/harmony/v1_03/bin/framework/peripheral/PIC32MZ1024ECG064_peripherals.a(peripheral.o)
 .text.PLIB_POWER_DeepSleepModeEnable
                0x00000000        0x8 /opt/microchip/harmony/v1_03/bin/framework/peripheral/PIC32MZ1024ECG064_peripherals.a(peripheral.o)
 .text.PLIB_POWER_DeepSleepModeDisable
                0x00000000        0x8 /opt/microchip/harmony/v1_03/bin/framework/peripheral/PIC32MZ1024ECG064_peripherals.a(peripheral.o)
 .text.PLIB_POWER_ExistsDeepSleepBOR
                0x00000000        0x8 /opt/microchip/harmony/v1_03/bin/framework/peripheral/PIC32MZ1024ECG064_peripherals.a(peripheral.o)
 .text.PLIB_POWER_DeepSleepBOREnable
                0x00000000        0x8 /opt/microchip/harmony/v1_03/bin/framework/peripheral/PIC32MZ1024ECG064_peripherals.a(peripheral.o)
 .text.PLIB_POWER_DeepSleepBORDisable
                0x00000000        0x8 /opt/microchip/harmony/v1_03/bin/framework/peripheral/PIC32MZ1024ECG064_peripherals.a(peripheral.o)
 .text.PLIB_POWER_ExistsDeepSleepInterruptOnChange
                0x00000000        0x8 /opt/microchip/harmony/v1_03/bin/framework/peripheral/PIC32MZ1024ECG064_peripherals.a(peripheral.o)
 .text.PLIB_POWER_DeepSleepInterruptOnChangeStatus
                0x00000000        0x8 /opt/microchip/harmony/v1_03/bin/framework/peripheral/PIC32MZ1024ECG064_peripherals.a(peripheral.o)
 .text.PLIB_POWER_ExistsDeepSleepFaultDetect
                0x00000000        0x8 /opt/microchip/harmony/v1_03/bin/framework/peripheral/PIC32MZ1024ECG064_peripherals.a(peripheral.o)
 .text.PLIB_POWER_DeepSleepFaultDetectStatus
                0x00000000        0x8 /opt/microchip/harmony/v1_03/bin/framework/peripheral/PIC32MZ1024ECG064_peripherals.a(peripheral.o)
 .text.PLIB_POWER_ExistsDeepSleepMCLREvent
                0x00000000        0x8 /opt/microchip/harmony/v1_03/bin/framework/peripheral/PIC32MZ1024ECG064_peripherals.a(peripheral.o)
 .text.PLIB_POWER_DeepSleepMCLREventStatus
                0x00000000        0x8 /opt/microchip/harmony/v1_03/bin/framework/peripheral/PIC32MZ1024ECG064_peripherals.a(peripheral.o)
 .text.PLIB_POWER_ExistsDeepSleepPowerOnReset
                0x00000000        0x8 /opt/microchip/harmony/v1_03/bin/framework/peripheral/PIC32MZ1024ECG064_peripherals.a(peripheral.o)
 .text.PLIB_POWER_DeepSleepPowerOnResetStatus
                0x00000000        0x8 /opt/microchip/harmony/v1_03/bin/framework/peripheral/PIC32MZ1024ECG064_peripherals.a(peripheral.o)
 .text.PLIB_RESET_ExistsResetReasonStatus
                0x00000000        0x8 /opt/microchip/harmony/v1_03/bin/framework/peripheral/PIC32MZ1024ECG064_peripherals.a(peripheral.o)
 .text.PLIB_RESET_ReasonGet
                0x00000000       0x20 /opt/microchip/harmony/v1_03/bin/framework/peripheral/PIC32MZ1024ECG064_peripherals.a(peripheral.o)
 .text.PLIB_RESET_ReasonClear
                0x00000000       0x20 /opt/microchip/harmony/v1_03/bin/framework/peripheral/PIC32MZ1024ECG064_peripherals.a(peripheral.o)
 .text.PLIB_RESET_ExistsSoftwareResetTrigger
                0x00000000        0x8 /opt/microchip/harmony/v1_03/bin/framework/peripheral/PIC32MZ1024ECG064_peripherals.a(peripheral.o)
 .text.PLIB_RESET_SoftwareResetEnable
                0x00000000       0x2c /opt/microchip/harmony/v1_03/bin/framework/peripheral/PIC32MZ1024ECG064_peripherals.a(peripheral.o)
 .text.PLIB_RESET_ExistsConfigRegReadError
                0x00000000        0x8 /opt/microchip/harmony/v1_03/bin/framework/peripheral/PIC32MZ1024ECG064_peripherals.a(peripheral.o)
 .text.PLIB_RESET_ConfigRegReadErrorGet
                0x00000000       0x20 /opt/microchip/harmony/v1_03/bin/framework/peripheral/PIC32MZ1024ECG064_peripherals.a(peripheral.o)
 .text.PLIB_RESET_ExistsNmiControl
                0x00000000        0x8 /opt/microchip/harmony/v1_03/bin/framework/peripheral/PIC32MZ1024ECG064_peripherals.a(peripheral.o)
 .text.PLIB_RESET_NmiReasonGet
                0x00000000       0x24 /opt/microchip/harmony/v1_03/bin/framework/peripheral/PIC32MZ1024ECG064_peripherals.a(peripheral.o)
 .text.PLIB_RESET_NmiEventTrigger
                0x00000000       0x1c /opt/microchip/harmony/v1_03/bin/framework/peripheral/PIC32MZ1024ECG064_peripherals.a(peripheral.o)
 .text.PLIB_RESET_NmiEventClear
                0x00000000       0x20 /opt/microchip/harmony/v1_03/bin/framework/peripheral/PIC32MZ1024ECG064_peripherals.a(peripheral.o)
 .text.PLIB_RESET_ExistsWdtoInSleep
                0x00000000        0x8 /opt/microchip/harmony/v1_03/bin/framework/peripheral/PIC32MZ1024ECG064_peripherals.a(peripheral.o)
 .text.PLIB_RESET_WdtTimeOutHasOccurredInSleep
                0x00000000       0x20 /opt/microchip/harmony/v1_03/bin/framework/peripheral/PIC32MZ1024ECG064_peripherals.a(peripheral.o)
 .text.PLIB_RESET_ExistsNmiCounter
                0x00000000        0x8 /opt/microchip/harmony/v1_03/bin/framework/peripheral/PIC32MZ1024ECG064_peripherals.a(peripheral.o)
 .text.PLIB_RESET_NmiCounterValueSet
                0x00000000       0x28 /opt/microchip/harmony/v1_03/bin/framework/peripheral/PIC32MZ1024ECG064_peripherals.a(peripheral.o)
 .text.PLIB_RESET_NmiCounterValueGet
                0x00000000       0x20 /opt/microchip/harmony/v1_03/bin/framework/peripheral/PIC32MZ1024ECG064_peripherals.a(peripheral.o)
 .text.PLIB_RTCC_Enable
                0x00000000       0x18 /opt/microchip/harmony/v1_03/bin/framework/peripheral/PIC32MZ1024ECG064_peripherals.a(peripheral.o)
 .text.PLIB_RTCC_Disable
                0x00000000       0x18 /opt/microchip/harmony/v1_03/bin/framework/peripheral/PIC32MZ1024ECG064_peripherals.a(peripheral.o)
 .text.PLIB_RTCC_ExistsEnableControl
                0x00000000        0x8 /opt/microchip/harmony/v1_03/bin/framework/peripheral/PIC32MZ1024ECG064_peripherals.a(peripheral.o)
 .text.PLIB_RTCC_WriteEnable
                0x00000000       0x18 /opt/microchip/harmony/v1_03/bin/framework/peripheral/PIC32MZ1024ECG064_peripherals.a(peripheral.o)
 .text.PLIB_RTCC_WriteDisable
                0x00000000       0x18 /opt/microchip/harmony/v1_03/bin/framework/peripheral/PIC32MZ1024ECG064_peripherals.a(peripheral.o)
 .text.PLIB_RTCC_ExistsWriteEnable
                0x00000000        0x8 /opt/microchip/harmony/v1_03/bin/framework/peripheral/PIC32MZ1024ECG064_peripherals.a(peripheral.o)
 .text.PLIB_RTCC_StopInIdleEnable
                0x00000000       0x18 /opt/microchip/harmony/v1_03/bin/framework/peripheral/PIC32MZ1024ECG064_peripherals.a(peripheral.o)
 .text.PLIB_RTCC_StopInIdleDisable
                0x00000000       0x18 /opt/microchip/harmony/v1_03/bin/framework/peripheral/PIC32MZ1024ECG064_peripherals.a(peripheral.o)
 .text.PLIB_RTCC_ExistsStopInIdleControl
                0x00000000        0x8 /opt/microchip/harmony/v1_03/bin/framework/peripheral/PIC32MZ1024ECG064_peripherals.a(peripheral.o)
 .text.PLIB_RTCC_OutputSelect
                0x00000000       0x2c /opt/microchip/harmony/v1_03/bin/framework/peripheral/PIC32MZ1024ECG064_peripherals.a(peripheral.o)
 .text.PLIB_RTCC_ExistsOutputSelect
                0x00000000        0x8 /opt/microchip/harmony/v1_03/bin/framework/peripheral/PIC32MZ1024ECG064_peripherals.a(peripheral.o)
 .text.PLIB_RTCC_ClockSourceSelect
                0x00000000       0x2c /opt/microchip/harmony/v1_03/bin/framework/peripheral/PIC32MZ1024ECG064_peripherals.a(peripheral.o)
 .text.PLIB_RTCC_ExistsClockSelect
                0x00000000        0x8 /opt/microchip/harmony/v1_03/bin/framework/peripheral/PIC32MZ1024ECG064_peripherals.a(peripheral.o)
 .text.PLIB_RTCC_ClockRunningStatus
                0x00000000       0x20 /opt/microchip/harmony/v1_03/bin/framework/peripheral/PIC32MZ1024ECG064_peripherals.a(peripheral.o)
 .text.PLIB_RTCC_ExistsClockRunning
                0x00000000        0x8 /opt/microchip/harmony/v1_03/bin/framework/peripheral/PIC32MZ1024ECG064_peripherals.a(peripheral.o)
 .text.PLIB_RTCC_DriftCalibrateGet
                0x00000000       0x20 /opt/microchip/harmony/v1_03/bin/framework/peripheral/PIC32MZ1024ECG064_peripherals.a(peripheral.o)
 .text.PLIB_RTCC_DriftCalibrateSet
                0x00000000       0x38 /opt/microchip/harmony/v1_03/bin/framework/peripheral/PIC32MZ1024ECG064_peripherals.a(peripheral.o)
 .text.PLIB_RTCC_ExistsCalibration
                0x00000000        0x8 /opt/microchip/harmony/v1_03/bin/framework/peripheral/PIC32MZ1024ECG064_peripherals.a(peripheral.o)
 .text.PLIB_RTCC_RTCSyncStatusGet
                0x00000000       0x20 /opt/microchip/harmony/v1_03/bin/framework/peripheral/PIC32MZ1024ECG064_peripherals.a(peripheral.o)
 .text.PLIB_RTCC_ExistsSynchronization
                0x00000000        0x8 /opt/microchip/harmony/v1_03/bin/framework/peripheral/PIC32MZ1024ECG064_peripherals.a(peripheral.o)
 .text.PLIB_RTCC_HalfSecondStatusGet
                0x00000000       0x20 /opt/microchip/harmony/v1_03/bin/framework/peripheral/PIC32MZ1024ECG064_peripherals.a(peripheral.o)
 .text.PLIB_RTCC_ExistsHalfSecond
                0x00000000        0x8 /opt/microchip/harmony/v1_03/bin/framework/peripheral/PIC32MZ1024ECG064_peripherals.a(peripheral.o)
 .text.PLIB_RTCC_ClockOutputEnable
                0x00000000       0x18 /opt/microchip/harmony/v1_03/bin/framework/peripheral/PIC32MZ1024ECG064_peripherals.a(peripheral.o)
 .text.PLIB_RTCC_ClockOutputDisable
                0x00000000       0x18 /opt/microchip/harmony/v1_03/bin/framework/peripheral/PIC32MZ1024ECG064_peripherals.a(peripheral.o)
 .text.PLIB_RTCC_ExistsOutputControl
                0x00000000        0x8 /opt/microchip/harmony/v1_03/bin/framework/peripheral/PIC32MZ1024ECG064_peripherals.a(peripheral.o)
 .text.PLIB_RTCC_AlarmEnable
                0x00000000       0x18 /opt/microchip/harmony/v1_03/bin/framework/peripheral/PIC32MZ1024ECG064_peripherals.a(peripheral.o)
 .text.PLIB_RTCC_AlarmDisable
                0x00000000       0x18 /opt/microchip/harmony/v1_03/bin/framework/peripheral/PIC32MZ1024ECG064_peripherals.a(peripheral.o)
 .text.PLIB_RTCC_ExistsAlarmControl
                0x00000000        0x8 /opt/microchip/harmony/v1_03/bin/framework/peripheral/PIC32MZ1024ECG064_peripherals.a(peripheral.o)
 .text.PLIB_RTCC_AlarmChimeEnable
                0x00000000       0x18 /opt/microchip/harmony/v1_03/bin/framework/peripheral/PIC32MZ1024ECG064_peripherals.a(peripheral.o)
 .text.PLIB_RTCC_AlarmChimeDisable
                0x00000000       0x18 /opt/microchip/harmony/v1_03/bin/framework/peripheral/PIC32MZ1024ECG064_peripherals.a(peripheral.o)
 .text.PLIB_RTCC_ExistsAlarmChimeControl
                0x00000000        0x8 /opt/microchip/harmony/v1_03/bin/framework/peripheral/PIC32MZ1024ECG064_peripherals.a(peripheral.o)
 .text.PLIB_RTCC_AlarmPulseInitialSet
                0x00000000       0x30 /opt/microchip/harmony/v1_03/bin/framework/peripheral/PIC32MZ1024ECG064_peripherals.a(peripheral.o)
 .text.PLIB_RTCC_AlarmPulseInitialGet
                0x00000000       0x20 /opt/microchip/harmony/v1_03/bin/framework/peripheral/PIC32MZ1024ECG064_peripherals.a(peripheral.o)
 .text.PLIB_RTCC_ExistsAlarmPulseInitial
                0x00000000        0x8 /opt/microchip/harmony/v1_03/bin/framework/peripheral/PIC32MZ1024ECG064_peripherals.a(peripheral.o)
 .text.PLIB_RTCC_AlarmSyncStatusGet
                0x00000000       0x20 /opt/microchip/harmony/v1_03/bin/framework/peripheral/PIC32MZ1024ECG064_peripherals.a(peripheral.o)
 .text.PLIB_RTCC_ExistsAlarmSynchronization
                0x00000000        0x8 /opt/microchip/harmony/v1_03/bin/framework/peripheral/PIC32MZ1024ECG064_peripherals.a(peripheral.o)
 .text.PLIB_RTCC_AlarmMaskModeSelect
                0x00000000       0x2c /opt/microchip/harmony/v1_03/bin/framework/peripheral/PIC32MZ1024ECG064_peripherals.a(peripheral.o)
 .text.PLIB_RTCC_ExistsAlarmMaskControl
                0x00000000        0x8 /opt/microchip/harmony/v1_03/bin/framework/peripheral/PIC32MZ1024ECG064_peripherals.a(peripheral.o)
 .text.PLIB_RTCC_AlarmRepeatCountSet
                0x00000000       0x28 /opt/microchip/harmony/v1_03/bin/framework/peripheral/PIC32MZ1024ECG064_peripherals.a(peripheral.o)
 .text.PLIB_RTCC_AlarmRepeatCountGet
                0x00000000       0x20 /opt/microchip/harmony/v1_03/bin/framework/peripheral/PIC32MZ1024ECG064_peripherals.a(peripheral.o)
 .text.PLIB_RTCC_ExistsAlarmRepeatControl
                0x00000000        0x8 /opt/microchip/harmony/v1_03/bin/framework/peripheral/PIC32MZ1024ECG064_peripherals.a(peripheral.o)
 .text.PLIB_RTCC_RTCTimeGet
                0x00000000       0x18 /opt/microchip/harmony/v1_03/bin/framework/peripheral/PIC32MZ1024ECG064_peripherals.a(peripheral.o)
 .text.PLIB_RTCC_RTCTimeSet
                0x00000000       0x14 /opt/microchip/harmony/v1_03/bin/framework/peripheral/PIC32MZ1024ECG064_peripherals.a(peripheral.o)
 .text.PLIB_RTCC_RTCHourGet
                0x00000000       0x20 /opt/microchip/harmony/v1_03/bin/framework/peripheral/PIC32MZ1024ECG064_peripherals.a(peripheral.o)
 .text.PLIB_RTCC_RTCHourSet
                0x00000000       0x24 /opt/microchip/harmony/v1_03/bin/framework/peripheral/PIC32MZ1024ECG064_peripherals.a(peripheral.o)
 .text.PLIB_RTCC_RTCMinuteGet
                0x00000000       0x20 /opt/microchip/harmony/v1_03/bin/framework/peripheral/PIC32MZ1024ECG064_peripherals.a(peripheral.o)
 .text.PLIB_RTCC_RTCMinuteSet
                0x00000000       0x30 /opt/microchip/harmony/v1_03/bin/framework/peripheral/PIC32MZ1024ECG064_peripherals.a(peripheral.o)
 .text.PLIB_RTCC_RTCSecondGet
                0x00000000       0x20 /opt/microchip/harmony/v1_03/bin/framework/peripheral/PIC32MZ1024ECG064_peripherals.a(peripheral.o)
 .text.PLIB_RTCC_RTCSecondSet
                0x00000000       0x30 /opt/microchip/harmony/v1_03/bin/framework/peripheral/PIC32MZ1024ECG064_peripherals.a(peripheral.o)
 .text.PLIB_RTCC_ExistsRTCTime
                0x00000000        0x8 /opt/microchip/harmony/v1_03/bin/framework/peripheral/PIC32MZ1024ECG064_peripherals.a(peripheral.o)
 .text.PLIB_RTCC_RTCDateGet
                0x00000000       0x18 /opt/microchip/harmony/v1_03/bin/framework/peripheral/PIC32MZ1024ECG064_peripherals.a(peripheral.o)
 .text.PLIB_RTCC_RTCDateSet
                0x00000000       0x14 /opt/microchip/harmony/v1_03/bin/framework/peripheral/PIC32MZ1024ECG064_peripherals.a(peripheral.o)
 .text.PLIB_RTCC_RTCYearGet
                0x00000000       0x20 /opt/microchip/harmony/v1_03/bin/framework/peripheral/PIC32MZ1024ECG064_peripherals.a(peripheral.o)
 .text.PLIB_RTCC_RTCYearSet
                0x00000000       0x24 /opt/microchip/harmony/v1_03/bin/framework/peripheral/PIC32MZ1024ECG064_peripherals.a(peripheral.o)
 .text.PLIB_RTCC_RTCMonthGet
                0x00000000       0x20 /opt/microchip/harmony/v1_03/bin/framework/peripheral/PIC32MZ1024ECG064_peripherals.a(peripheral.o)
 .text.PLIB_RTCC_RTCMonthSet
                0x00000000       0x30 /opt/microchip/harmony/v1_03/bin/framework/peripheral/PIC32MZ1024ECG064_peripherals.a(peripheral.o)
 .text.PLIB_RTCC_RTCDayGet
                0x00000000       0x20 /opt/microchip/harmony/v1_03/bin/framework/peripheral/PIC32MZ1024ECG064_peripherals.a(peripheral.o)
 .text.PLIB_RTCC_RTCDaySet
                0x00000000       0x30 /opt/microchip/harmony/v1_03/bin/framework/peripheral/PIC32MZ1024ECG064_peripherals.a(peripheral.o)
 .text.PLIB_RTCC_RTCWeekDayGet
                0x00000000       0x20 /opt/microchip/harmony/v1_03/bin/framework/peripheral/PIC32MZ1024ECG064_peripherals.a(peripheral.o)
 .text.PLIB_RTCC_RTCWeekDaySet
                0x00000000       0x28 /opt/microchip/harmony/v1_03/bin/framework/peripheral/PIC32MZ1024ECG064_peripherals.a(peripheral.o)
 .text.PLIB_RTCC_ExistsRTCDate
                0x00000000        0x8 /opt/microchip/harmony/v1_03/bin/framework/peripheral/PIC32MZ1024ECG064_peripherals.a(peripheral.o)
 .text.PLIB_RTCC_AlarmTimeGet
                0x00000000       0x18 /opt/microchip/harmony/v1_03/bin/framework/peripheral/PIC32MZ1024ECG064_peripherals.a(peripheral.o)
 .text.PLIB_RTCC_AlarmTimeSet
                0x00000000       0x14 /opt/microchip/harmony/v1_03/bin/framework/peripheral/PIC32MZ1024ECG064_peripherals.a(peripheral.o)
 .text.PLIB_RTCC_AlarmHourGet
                0x00000000       0x20 /opt/microchip/harmony/v1_03/bin/framework/peripheral/PIC32MZ1024ECG064_peripherals.a(peripheral.o)
 .text.PLIB_RTCC_AlarmHourSet
                0x00000000       0x24 /opt/microchip/harmony/v1_03/bin/framework/peripheral/PIC32MZ1024ECG064_peripherals.a(peripheral.o)
 .text.PLIB_RTCC_AlarmMinuteGet
                0x00000000       0x20 /opt/microchip/harmony/v1_03/bin/framework/peripheral/PIC32MZ1024ECG064_peripherals.a(peripheral.o)
 .text.PLIB_RTCC_AlarmMinuteSet
                0x00000000       0x30 /opt/microchip/harmony/v1_03/bin/framework/peripheral/PIC32MZ1024ECG064_peripherals.a(peripheral.o)
 .text.PLIB_RTCC_AlarmSecondGet
                0x00000000       0x20 /opt/microchip/harmony/v1_03/bin/framework/peripheral/PIC32MZ1024ECG064_peripherals.a(peripheral.o)
 .text.PLIB_RTCC_AlarmSecondSet
                0x00000000       0x30 /opt/microchip/harmony/v1_03/bin/framework/peripheral/PIC32MZ1024ECG064_peripherals.a(peripheral.o)
 .text.PLIB_RTCC_ExistsAlarmTime
                0x00000000        0x8 /opt/microchip/harmony/v1_03/bin/framework/peripheral/PIC32MZ1024ECG064_peripherals.a(peripheral.o)
 .text.PLIB_RTCC_AlarmDateGet
                0x00000000       0x18 /opt/microchip/harmony/v1_03/bin/framework/peripheral/PIC32MZ1024ECG064_peripherals.a(peripheral.o)
 .text.PLIB_RTCC_AlarmDateSet
                0x00000000       0x14 /opt/microchip/harmony/v1_03/bin/framework/peripheral/PIC32MZ1024ECG064_peripherals.a(peripheral.o)
 .text.PLIB_RTCC_AlarmMonthGet
                0x00000000       0x20 /opt/microchip/harmony/v1_03/bin/framework/peripheral/PIC32MZ1024ECG064_peripherals.a(peripheral.o)
 .text.PLIB_RTCC_AlarmMonthSet
                0x00000000       0x30 /opt/microchip/harmony/v1_03/bin/framework/peripheral/PIC32MZ1024ECG064_peripherals.a(peripheral.o)
 .text.PLIB_RTCC_AlarmDayGet
                0x00000000       0x20 /opt/microchip/harmony/v1_03/bin/framework/peripheral/PIC32MZ1024ECG064_peripherals.a(peripheral.o)
 .text.PLIB_RTCC_AlarmDaySet
                0x00000000       0x30 /opt/microchip/harmony/v1_03/bin/framework/peripheral/PIC32MZ1024ECG064_peripherals.a(peripheral.o)
 .text.PLIB_RTCC_AlarmWeekDayGet
                0x00000000       0x20 /opt/microchip/harmony/v1_03/bin/framework/peripheral/PIC32MZ1024ECG064_peripherals.a(peripheral.o)
 .text.PLIB_RTCC_AlarmWeekDaySet
                0x00000000       0x28 /opt/microchip/harmony/v1_03/bin/framework/peripheral/PIC32MZ1024ECG064_peripherals.a(peripheral.o)
 .text.PLIB_RTCC_ExistsAlarmDate
                0x00000000        0x8 /opt/microchip/harmony/v1_03/bin/framework/peripheral/PIC32MZ1024ECG064_peripherals.a(peripheral.o)
 .text.PLIB_SB_ExistsPGVErrStatus
                0x00000000        0x8 /opt/microchip/harmony/v1_03/bin/framework/peripheral/PIC32MZ1024ECG064_peripherals.a(peripheral.o)
 .text.PLIB_SB_PGVErrorStatus
                0x00000000       0x2c /opt/microchip/harmony/v1_03/bin/framework/peripheral/PIC32MZ1024ECG064_peripherals.a(peripheral.o)
 .text.PLIB_SB_ExistsPGVErrClear
                0x00000000        0x8 /opt/microchip/harmony/v1_03/bin/framework/peripheral/PIC32MZ1024ECG064_peripherals.a(peripheral.o)
 .text.PLIB_SB_PGVErrorMulti
                0x00000000       0x28 /opt/microchip/harmony/v1_03/bin/framework/peripheral/PIC32MZ1024ECG064_peripherals.a(peripheral.o)
 .text.PLIB_SB_PGVErrorCode
                0x00000000       0x28 /opt/microchip/harmony/v1_03/bin/framework/peripheral/PIC32MZ1024ECG064_peripherals.a(peripheral.o)
 .text.PLIB_SB_PGVErrorLogClearSingle
                0x00000000       0x38 /opt/microchip/harmony/v1_03/bin/framework/peripheral/PIC32MZ1024ECG064_peripherals.a(peripheral.o)
 .text.PLIB_SB_PGVErrorLogClearMulti
                0x00000000       0x48 /opt/microchip/harmony/v1_03/bin/framework/peripheral/PIC32MZ1024ECG064_peripherals.a(peripheral.o)
 .text.PLIB_SB_ExistsPGVErrInitID
                0x00000000        0x8 /opt/microchip/harmony/v1_03/bin/framework/peripheral/PIC32MZ1024ECG064_peripherals.a(peripheral.o)
 .text.PLIB_SB_PGVErrorInitiatorID
                0x00000000       0x28 /opt/microchip/harmony/v1_03/bin/framework/peripheral/PIC32MZ1024ECG064_peripherals.a(peripheral.o)
 .text.PLIB_SB_ExistsPGVErrRegion
                0x00000000        0x8 /opt/microchip/harmony/v1_03/bin/framework/peripheral/PIC32MZ1024ECG064_peripherals.a(peripheral.o)
 .text.PLIB_SB_PGVErrorRegion
                0x00000000       0x28 /opt/microchip/harmony/v1_03/bin/framework/peripheral/PIC32MZ1024ECG064_peripherals.a(peripheral.o)
 .text.PLIB_SB_ExistsPGVErrCmdCode
                0x00000000        0x8 /opt/microchip/harmony/v1_03/bin/framework/peripheral/PIC32MZ1024ECG064_peripherals.a(peripheral.o)
 .text.PLIB_SB_PGVErrorCommandCode
                0x00000000       0x28 /opt/microchip/harmony/v1_03/bin/framework/peripheral/PIC32MZ1024ECG064_peripherals.a(peripheral.o)
 .text.PLIB_SB_ExistsPGVErrPG
                0x00000000        0x8 /opt/microchip/harmony/v1_03/bin/framework/peripheral/PIC32MZ1024ECG064_peripherals.a(peripheral.o)
 .text.PLIB_SB_PGVErrorPermissionGroup
                0x00000000       0x28 /opt/microchip/harmony/v1_03/bin/framework/peripheral/PIC32MZ1024ECG064_peripherals.a(peripheral.o)
 .text.PLIB_SB_ExistsPGVErrRptPri
                0x00000000        0x8 /opt/microchip/harmony/v1_03/bin/framework/peripheral/PIC32MZ1024ECG064_peripherals.a(peripheral.o)
 .text.PLIB_SB_PGVErrorReportPrimaryEnable
                0x00000000       0x34 /opt/microchip/harmony/v1_03/bin/framework/peripheral/PIC32MZ1024ECG064_peripherals.a(peripheral.o)
 .text.PLIB_SB_PGVErrorReportPrimaryDisable
                0x00000000       0x30 /opt/microchip/harmony/v1_03/bin/framework/peripheral/PIC32MZ1024ECG064_peripherals.a(peripheral.o)
 .text.PLIB_SB_ExistsPGVErrClrSingle
                0x00000000        0x8 /opt/microchip/harmony/v1_03/bin/framework/peripheral/PIC32MZ1024ECG064_peripherals.a(peripheral.o)
 .text.PLIB_SB_PGVErrorClearSingle
                0x00000000       0x28 /opt/microchip/harmony/v1_03/bin/framework/peripheral/PIC32MZ1024ECG064_peripherals.a(peripheral.o)
 .text.PLIB_SB_ExistsPGVErrClrMulti
                0x00000000        0x8 /opt/microchip/harmony/v1_03/bin/framework/peripheral/PIC32MZ1024ECG064_peripherals.a(peripheral.o)
 .text.PLIB_SB_PGVErrorClearMulti
                0x00000000       0x28 /opt/microchip/harmony/v1_03/bin/framework/peripheral/PIC32MZ1024ECG064_peripherals.a(peripheral.o)
 .text.PLIB_SB_PGRegionAddrSet
                0x00000000       0x44 /opt/microchip/harmony/v1_03/bin/framework/peripheral/PIC32MZ1024ECG064_peripherals.a(peripheral.o)
 .text.PLIB_SB_PGRegionAddrGet
                0x00000000       0x3c /opt/microchip/harmony/v1_03/bin/framework/peripheral/PIC32MZ1024ECG064_peripherals.a(peripheral.o)
 .text.PLIB_SB_ExistsPGRegAddr
                0x00000000        0x8 /opt/microchip/harmony/v1_03/bin/framework/peripheral/PIC32MZ1024ECG064_peripherals.a(peripheral.o)
 .text.PLIB_SB_PGRegionSizeSet
                0x00000000       0x48 /opt/microchip/harmony/v1_03/bin/framework/peripheral/PIC32MZ1024ECG064_peripherals.a(peripheral.o)
 .text.PLIB_SB_PGRegionSizeGet
                0x00000000       0x38 /opt/microchip/harmony/v1_03/bin/framework/peripheral/PIC32MZ1024ECG064_peripherals.a(peripheral.o)
 .text.PLIB_SB_ExistsPGRegSize
                0x00000000        0x8 /opt/microchip/harmony/v1_03/bin/framework/peripheral/PIC32MZ1024ECG064_peripherals.a(peripheral.o)
 .text.PLIB_SB_PGRegionReadPermSet
                0x00000000      0x144 /opt/microchip/harmony/v1_03/bin/framework/peripheral/PIC32MZ1024ECG064_peripherals.a(peripheral.o)
 .text.PLIB_SB_PGRegionReadPermClear
                0x00000000      0x138 /opt/microchip/harmony/v1_03/bin/framework/peripheral/PIC32MZ1024ECG064_peripherals.a(peripheral.o)
 .text.PLIB_SB_ExistsPGRegRdPerm
                0x00000000        0x8 /opt/microchip/harmony/v1_03/bin/framework/peripheral/PIC32MZ1024ECG064_peripherals.a(peripheral.o)
 .text.PLIB_SB_PGRegionWritePermSet
                0x00000000      0x144 /opt/microchip/harmony/v1_03/bin/framework/peripheral/PIC32MZ1024ECG064_peripherals.a(peripheral.o)
 .text.PLIB_SB_PGRegionWritePermClear
                0x00000000      0x138 /opt/microchip/harmony/v1_03/bin/framework/peripheral/PIC32MZ1024ECG064_peripherals.a(peripheral.o)
 .text.PLIB_SB_ExistsPGRegWrPerm
                0x00000000        0x8 /opt/microchip/harmony/v1_03/bin/framework/peripheral/PIC32MZ1024ECG064_peripherals.a(peripheral.o)
 .text.PLIB_SB_ExistsInitPermGrp
                0x00000000        0x8 /opt/microchip/harmony/v1_03/bin/framework/peripheral/PIC32MZ1024ECG064_peripherals.a(peripheral.o)
 .text.PLIB_SB_InitPermGrpSet
                0x00000000       0x28 /opt/microchip/harmony/v1_03/bin/framework/peripheral/PIC32MZ1024ECG064_peripherals.a(peripheral.o)
 .text.PLIB_SB_ExistsCPUPriority
                0x00000000        0x8 /opt/microchip/harmony/v1_03/bin/framework/peripheral/PIC32MZ1024ECG064_peripherals.a(peripheral.o)
 .text.PLIB_SB_CPUPrioritySet
                0x00000000       0x30 /opt/microchip/harmony/v1_03/bin/framework/peripheral/PIC32MZ1024ECG064_peripherals.a(peripheral.o)
 .text.PLIB_SB_ExistsDMAPriority
                0x00000000        0x8 /opt/microchip/harmony/v1_03/bin/framework/peripheral/PIC32MZ1024ECG064_peripherals.a(peripheral.o)
 .text.PLIB_SB_DMAPrioritySet
                0x00000000       0x30 /opt/microchip/harmony/v1_03/bin/framework/peripheral/PIC32MZ1024ECG064_peripherals.a(peripheral.o)
 .text.PLIB_SPI_ExistsEnableControl
                0x00000000        0x8 /opt/microchip/harmony/v1_03/bin/framework/peripheral/PIC32MZ1024ECG064_peripherals.a(peripheral.o)
 .text.PLIB_SPI_StopInIdleEnable
                0x00000000       0x70 /opt/microchip/harmony/v1_03/bin/framework/peripheral/PIC32MZ1024ECG064_peripherals.a(peripheral.o)
 .text.PLIB_SPI_ExistsStopInIdleControl
                0x00000000        0x8 /opt/microchip/harmony/v1_03/bin/framework/peripheral/PIC32MZ1024ECG064_peripherals.a(peripheral.o)
 .text.PLIB_SPI_ReceiverHasOverflowed
                0x00000000       0x6c /opt/microchip/harmony/v1_03/bin/framework/peripheral/PIC32MZ1024ECG064_peripherals.a(peripheral.o)
 .text.PLIB_SPI_ReceiverOverflowClear
                0x00000000       0x70 /opt/microchip/harmony/v1_03/bin/framework/peripheral/PIC32MZ1024ECG064_peripherals.a(peripheral.o)
 .text.PLIB_SPI_ExistsReceiverOverflow
                0x00000000        0x8 /opt/microchip/harmony/v1_03/bin/framework/peripheral/PIC32MZ1024ECG064_peripherals.a(peripheral.o)
 .text.PLIB_SPI_TransmitBufferIsFull
                0x00000000       0x6c /opt/microchip/harmony/v1_03/bin/framework/peripheral/PIC32MZ1024ECG064_peripherals.a(peripheral.o)
 .text.PLIB_SPI_ExistsTransmitBufferFullStatus
                0x00000000        0x8 /opt/microchip/harmony/v1_03/bin/framework/peripheral/PIC32MZ1024ECG064_peripherals.a(peripheral.o)
 .text.PLIB_SPI_TransmitBufferIsEmpty
                0x00000000       0x6c /opt/microchip/harmony/v1_03/bin/framework/peripheral/PIC32MZ1024ECG064_peripherals.a(peripheral.o)
 .text.PLIB_SPI_ExistsTransmitBufferEmptyStatus
                0x00000000        0x8 /opt/microchip/harmony/v1_03/bin/framework/peripheral/PIC32MZ1024ECG064_peripherals.a(peripheral.o)
 .text.PLIB_SPI_ReceiverBufferIsFull
                0x00000000       0x6c /opt/microchip/harmony/v1_03/bin/framework/peripheral/PIC32MZ1024ECG064_peripherals.a(peripheral.o)
 .text.PLIB_SPI_ExistsReceiveBufferStatus
                0x00000000        0x8 /opt/microchip/harmony/v1_03/bin/framework/peripheral/PIC32MZ1024ECG064_peripherals.a(peripheral.o)
 .text.PLIB_SPI_PinEnable
                0x00000000       0x74 /opt/microchip/harmony/v1_03/bin/framework/peripheral/PIC32MZ1024ECG064_peripherals.a(peripheral.o)
 .text.PLIB_SPI_PinDisable
                0x00000000       0x74 /opt/microchip/harmony/v1_03/bin/framework/peripheral/PIC32MZ1024ECG064_peripherals.a(peripheral.o)
 .text.PLIB_SPI_ExistsPinControl
                0x00000000        0x8 /opt/microchip/harmony/v1_03/bin/framework/peripheral/PIC32MZ1024ECG064_peripherals.a(peripheral.o)
 .text.PLIB_SPI_ExistsCommunicationWidth
                0x00000000        0x8 /opt/microchip/harmony/v1_03/bin/framework/peripheral/PIC32MZ1024ECG064_peripherals.a(peripheral.o)
 .text.PLIB_SPI_AudioCommunicationWidthSelect
                0x00000000       0x74 /opt/microchip/harmony/v1_03/bin/framework/peripheral/PIC32MZ1024ECG064_peripherals.a(peripheral.o)
 .text.PLIB_SPI_ExistsAudioCommunicationWidth
                0x00000000        0x8 /opt/microchip/harmony/v1_03/bin/framework/peripheral/PIC32MZ1024ECG064_peripherals.a(peripheral.o)
 .text.PLIB_SPI_ExistsInputSamplePhase
                0x00000000        0x8 /opt/microchip/harmony/v1_03/bin/framework/peripheral/PIC32MZ1024ECG064_peripherals.a(peripheral.o)
 .text.PLIB_SPI_ExistsOutputDataPhase
                0x00000000        0x8 /opt/microchip/harmony/v1_03/bin/framework/peripheral/PIC32MZ1024ECG064_peripherals.a(peripheral.o)
 .text.PLIB_SPI_ExistsClockPolarity
                0x00000000        0x8 /opt/microchip/harmony/v1_03/bin/framework/peripheral/PIC32MZ1024ECG064_peripherals.a(peripheral.o)
 .text.PLIB_SPI_SlaveEnable
                0x00000000       0x70 /opt/microchip/harmony/v1_03/bin/framework/peripheral/PIC32MZ1024ECG064_peripherals.a(peripheral.o)
 .text.PLIB_SPI_ExistsMasterControl
                0x00000000        0x8 /opt/microchip/harmony/v1_03/bin/framework/peripheral/PIC32MZ1024ECG064_peripherals.a(peripheral.o)
 .text.PLIB_SPI_ExistsBaudRate
                0x00000000        0x8 /opt/microchip/harmony/v1_03/bin/framework/peripheral/PIC32MZ1024ECG064_peripherals.a(peripheral.o)
 .text.PLIB_SPI_IsBusy
                0x00000000       0x6c /opt/microchip/harmony/v1_03/bin/framework/peripheral/PIC32MZ1024ECG064_peripherals.a(peripheral.o)
 .text.PLIB_SPI_ExistsBusStatus
                0x00000000        0x8 /opt/microchip/harmony/v1_03/bin/framework/peripheral/PIC32MZ1024ECG064_peripherals.a(peripheral.o)
 .text.PLIB_SPI_ReadDataIsSignExtended
                0x00000000       0x6c /opt/microchip/harmony/v1_03/bin/framework/peripheral/PIC32MZ1024ECG064_peripherals.a(peripheral.o)
 .text.PLIB_SPI_ExistsReadDataSignStatus
                0x00000000        0x8 /opt/microchip/harmony/v1_03/bin/framework/peripheral/PIC32MZ1024ECG064_peripherals.a(peripheral.o)
 .text.PLIB_SPI_SlaveSelectEnable
                0x00000000       0x70 /opt/microchip/harmony/v1_03/bin/framework/peripheral/PIC32MZ1024ECG064_peripherals.a(peripheral.o)
 .text.PLIB_SPI_ExistsSlaveSelectControl
                0x00000000        0x8 /opt/microchip/harmony/v1_03/bin/framework/peripheral/PIC32MZ1024ECG064_peripherals.a(peripheral.o)
 .text.PLIB_SPI_TransmitUnderRunStatusGet
                0x00000000       0x6c /opt/microchip/harmony/v1_03/bin/framework/peripheral/PIC32MZ1024ECG064_peripherals.a(peripheral.o)
 .text.PLIB_SPI_TransmitUnderRunStatusClear
                0x00000000       0x70 /opt/microchip/harmony/v1_03/bin/framework/peripheral/PIC32MZ1024ECG064_peripherals.a(peripheral.o)
 .text.PLIB_SPI_ExistsTransmitUnderRunStatus
                0x00000000        0x8 /opt/microchip/harmony/v1_03/bin/framework/peripheral/PIC32MZ1024ECG064_peripherals.a(peripheral.o)
 .text.PLIB_SPI_FIFODisable
                0x00000000       0x70 /opt/microchip/harmony/v1_03/bin/framework/peripheral/PIC32MZ1024ECG064_peripherals.a(peripheral.o)
 .text.PLIB_SPI_ExistsFIFOControl
                0x00000000        0x8 /opt/microchip/harmony/v1_03/bin/framework/peripheral/PIC32MZ1024ECG064_peripherals.a(peripheral.o)
 .text.PLIB_SPI_FIFOCountGet
                0x00000000       0x84 /opt/microchip/harmony/v1_03/bin/framework/peripheral/PIC32MZ1024ECG064_peripherals.a(peripheral.o)
 .text.PLIB_SPI_ExistsFIFOCount
                0x00000000        0x8 /opt/microchip/harmony/v1_03/bin/framework/peripheral/PIC32MZ1024ECG064_peripherals.a(peripheral.o)
 .text.PLIB_SPI_ReceiverFIFOIsEmpty
                0x00000000       0x6c /opt/microchip/harmony/v1_03/bin/framework/peripheral/PIC32MZ1024ECG064_peripherals.a(peripheral.o)
 .text.PLIB_SPI_ExistsReceiveFIFOStatus
                0x00000000        0x8 /opt/microchip/harmony/v1_03/bin/framework/peripheral/PIC32MZ1024ECG064_peripherals.a(peripheral.o)
 .text.PLIB_SPI_FIFOShiftRegisterIsEmpty
                0x00000000       0x6c /opt/microchip/harmony/v1_03/bin/framework/peripheral/PIC32MZ1024ECG064_peripherals.a(peripheral.o)
 .text.PLIB_SPI_ExistsFIFOShiftRegisterEmptyStatus
                0x00000000        0x8 /opt/microchip/harmony/v1_03/bin/framework/peripheral/PIC32MZ1024ECG064_peripherals.a(peripheral.o)
 .text.PLIB_SPI_FIFOInterruptModeSelect
                0x00000000       0x74 /opt/microchip/harmony/v1_03/bin/framework/peripheral/PIC32MZ1024ECG064_peripherals.a(peripheral.o)
 .text.PLIB_SPI_ExistsFIFOInterruptMode
                0x00000000        0x8 /opt/microchip/harmony/v1_03/bin/framework/peripheral/PIC32MZ1024ECG064_peripherals.a(peripheral.o)
 .text.PLIB_SPI_FramedCommunicationEnable
                0x00000000       0x70 /opt/microchip/harmony/v1_03/bin/framework/peripheral/PIC32MZ1024ECG064_peripherals.a(peripheral.o)
 .text.PLIB_SPI_ExistsFramedCommunication
                0x00000000        0x8 /opt/microchip/harmony/v1_03/bin/framework/peripheral/PIC32MZ1024ECG064_peripherals.a(peripheral.o)
 .text.PLIB_SPI_FrameSyncPulseDirectionSelect
                0x00000000      0x148 /opt/microchip/harmony/v1_03/bin/framework/peripheral/PIC32MZ1024ECG064_peripherals.a(peripheral.o)
 .text.PLIB_SPI_ExistsFrameSyncPulseDirection
                0x00000000        0x8 /opt/microchip/harmony/v1_03/bin/framework/peripheral/PIC32MZ1024ECG064_peripherals.a(peripheral.o)
 .text.PLIB_SPI_FrameSyncPulsePolaritySelect
                0x00000000      0x148 /opt/microchip/harmony/v1_03/bin/framework/peripheral/PIC32MZ1024ECG064_peripherals.a(peripheral.o)
 .text.PLIB_SPI_ExistsFrameSyncPulsePolarity
                0x00000000        0x8 /opt/microchip/harmony/v1_03/bin/framework/peripheral/PIC32MZ1024ECG064_peripherals.a(peripheral.o)
 .text.PLIB_SPI_FrameSyncPulseEdgeSelect
                0x00000000      0x148 /opt/microchip/harmony/v1_03/bin/framework/peripheral/PIC32MZ1024ECG064_peripherals.a(peripheral.o)
 .text.PLIB_SPI_ExistsFrameSyncPulseEdge
                0x00000000        0x8 /opt/microchip/harmony/v1_03/bin/framework/peripheral/PIC32MZ1024ECG064_peripherals.a(peripheral.o)
 .text.PLIB_SPI_FrameSyncPulseWidthSelect
                0x00000000       0xb4 /opt/microchip/harmony/v1_03/bin/framework/peripheral/PIC32MZ1024ECG064_peripherals.a(peripheral.o)
 .text.PLIB_SPI_ExistsFrameSyncPulseWidth
                0x00000000        0x8 /opt/microchip/harmony/v1_03/bin/framework/peripheral/PIC32MZ1024ECG064_peripherals.a(peripheral.o)
 .text.PLIB_SPI_FrameSyncPulseCounterSelect
                0x00000000       0x74 /opt/microchip/harmony/v1_03/bin/framework/peripheral/PIC32MZ1024ECG064_peripherals.a(peripheral.o)
 .text.PLIB_SPI_ExistsFrameSyncPulseCounter
                0x00000000        0x8 /opt/microchip/harmony/v1_03/bin/framework/peripheral/PIC32MZ1024ECG064_peripherals.a(peripheral.o)
 .text.PLIB_SPI_FrameErrorStatusGet
                0x00000000       0x6c /opt/microchip/harmony/v1_03/bin/framework/peripheral/PIC32MZ1024ECG064_peripherals.a(peripheral.o)
 .text.PLIB_SPI_FrameErrorStatusClear
                0x00000000       0x70 /opt/microchip/harmony/v1_03/bin/framework/peripheral/PIC32MZ1024ECG064_peripherals.a(peripheral.o)
 .text.PLIB_SPI_ExistsFrameErrorStatus
                0x00000000        0x8 /opt/microchip/harmony/v1_03/bin/framework/peripheral/PIC32MZ1024ECG064_peripherals.a(peripheral.o)
 .text.PLIB_SPI_BufferClear
                0x00000000       0x68 /opt/microchip/harmony/v1_03/bin/framework/peripheral/PIC32MZ1024ECG064_peripherals.a(peripheral.o)
 .text.PLIB_SPI_BufferRead
                0x00000000       0x6c /opt/microchip/harmony/v1_03/bin/framework/peripheral/PIC32MZ1024ECG064_peripherals.a(peripheral.o)
 .text.PLIB_SPI_BufferWrite
                0x00000000       0x68 /opt/microchip/harmony/v1_03/bin/framework/peripheral/PIC32MZ1024ECG064_peripherals.a(peripheral.o)
 .text.PLIB_SPI_ExistsBuffer
                0x00000000        0x8 /opt/microchip/harmony/v1_03/bin/framework/peripheral/PIC32MZ1024ECG064_peripherals.a(peripheral.o)
 .text.PLIB_SPI_BufferAddressGet
                0x00000000       0x54 /opt/microchip/harmony/v1_03/bin/framework/peripheral/PIC32MZ1024ECG064_peripherals.a(peripheral.o)
 .text.PLIB_SPI_BaudRateClockSelect
                0x00000000       0x74 /opt/microchip/harmony/v1_03/bin/framework/peripheral/PIC32MZ1024ECG064_peripherals.a(peripheral.o)
 .text.PLIB_SPI_ExistsBaudRateClock
                0x00000000        0x8 /opt/microchip/harmony/v1_03/bin/framework/peripheral/PIC32MZ1024ECG064_peripherals.a(peripheral.o)
 .text.PLIB_SPI_ErrorInterruptEnable
                0x00000000       0x74 /opt/microchip/harmony/v1_03/bin/framework/peripheral/PIC32MZ1024ECG064_peripherals.a(peripheral.o)
 .text.PLIB_SPI_ErrorInterruptDisable
                0x00000000       0x74 /opt/microchip/harmony/v1_03/bin/framework/peripheral/PIC32MZ1024ECG064_peripherals.a(peripheral.o)
 .text.PLIB_SPI_ExistsErrorInterruptControl
                0x00000000        0x8 /opt/microchip/harmony/v1_03/bin/framework/peripheral/PIC32MZ1024ECG064_peripherals.a(peripheral.o)
 .text.PLIB_SPI_AudioErrorEnable
                0x00000000       0x74 /opt/microchip/harmony/v1_03/bin/framework/peripheral/PIC32MZ1024ECG064_peripherals.a(peripheral.o)
 .text.PLIB_SPI_AudioErrorDisable
                0x00000000       0x74 /opt/microchip/harmony/v1_03/bin/framework/peripheral/PIC32MZ1024ECG064_peripherals.a(peripheral.o)
 .text.PLIB_SPI_ExistsAudioErrorControl
                0x00000000        0x8 /opt/microchip/harmony/v1_03/bin/framework/peripheral/PIC32MZ1024ECG064_peripherals.a(peripheral.o)
 .text.PLIB_SPI_AudioProtocolEnable
                0x00000000       0x70 /opt/microchip/harmony/v1_03/bin/framework/peripheral/PIC32MZ1024ECG064_peripherals.a(peripheral.o)
 .text.PLIB_SPI_ExistsAudioProtocolControl
                0x00000000        0x8 /opt/microchip/harmony/v1_03/bin/framework/peripheral/PIC32MZ1024ECG064_peripherals.a(peripheral.o)
 .text.PLIB_SPI_AudioTransmitModeSelect
                0x00000000       0x74 /opt/microchip/harmony/v1_03/bin/framework/peripheral/PIC32MZ1024ECG064_peripherals.a(peripheral.o)
 .text.PLIB_SPI_ExistsAudioTransmitMode
                0x00000000        0x8 /opt/microchip/harmony/v1_03/bin/framework/peripheral/PIC32MZ1024ECG064_peripherals.a(peripheral.o)
 .text.PLIB_SPI_AudioProtocolModeSelect
                0x00000000       0x74 /opt/microchip/harmony/v1_03/bin/framework/peripheral/PIC32MZ1024ECG064_peripherals.a(peripheral.o)
 .text.PLIB_SPI_ExistsAudioProtocolMode
                0x00000000        0x8 /opt/microchip/harmony/v1_03/bin/framework/peripheral/PIC32MZ1024ECG064_peripherals.a(peripheral.o)
 .text.PLIB_SPI_BufferRead32bit
                0x00000000       0x64 /opt/microchip/harmony/v1_03/bin/framework/peripheral/PIC32MZ1024ECG064_peripherals.a(peripheral.o)
 .text.PLIB_SPI_BufferWrite32bit
                0x00000000       0x64 /opt/microchip/harmony/v1_03/bin/framework/peripheral/PIC32MZ1024ECG064_peripherals.a(peripheral.o)
 .text.PLIB_SPI_Exists32bitBuffer
                0x00000000        0x8 /opt/microchip/harmony/v1_03/bin/framework/peripheral/PIC32MZ1024ECG064_peripherals.a(peripheral.o)
 .text.PLIB_SPI_BufferRead16bit
                0x00000000       0x6c /opt/microchip/harmony/v1_03/bin/framework/peripheral/PIC32MZ1024ECG064_peripherals.a(peripheral.o)
 .text.PLIB_SPI_BufferWrite16bit
                0x00000000       0x68 /opt/microchip/harmony/v1_03/bin/framework/peripheral/PIC32MZ1024ECG064_peripherals.a(peripheral.o)
 .text.PLIB_SPI_Exists16bitBuffer
                0x00000000        0x8 /opt/microchip/harmony/v1_03/bin/framework/peripheral/PIC32MZ1024ECG064_peripherals.a(peripheral.o)
 .text.PLIB_SQI_XIPDummyBytesSet
                0x00000000      0x428 /opt/microchip/harmony/v1_03/bin/framework/peripheral/PIC32MZ1024ECG064_peripherals.a(peripheral.o)
 .text.PLIB_SQI_XIPDummyBytesGet
                0x00000000       0x20 /opt/microchip/harmony/v1_03/bin/framework/peripheral/PIC32MZ1024ECG064_peripherals.a(peripheral.o)
 .text.PLIB_SQI_ExistsXIPNumberOfDummyBytes
                0x00000000        0x8 /opt/microchip/harmony/v1_03/bin/framework/peripheral/PIC32MZ1024ECG064_peripherals.a(peripheral.o)
 .text.PLIB_SQI_XIPAddressBytesSet
                0x00000000      0x29c /opt/microchip/harmony/v1_03/bin/framework/peripheral/PIC32MZ1024ECG064_peripherals.a(peripheral.o)
 .text.PLIB_SQI_XIPAddressBytesGet
                0x00000000       0x20 /opt/microchip/harmony/v1_03/bin/framework/peripheral/PIC32MZ1024ECG064_peripherals.a(peripheral.o)
 .text.PLIB_SQI_ExistsXIPNumberOfAddressBytes
                0x00000000        0x8 /opt/microchip/harmony/v1_03/bin/framework/peripheral/PIC32MZ1024ECG064_peripherals.a(peripheral.o)
 .text.PLIB_SQI_XIPReadOpcodeSet
                0x00000000       0x30 /opt/microchip/harmony/v1_03/bin/framework/peripheral/PIC32MZ1024ECG064_peripherals.a(peripheral.o)
 .text.PLIB_SQI_XIPReadOpcodeGet
                0x00000000       0x2c /opt/microchip/harmony/v1_03/bin/framework/peripheral/PIC32MZ1024ECG064_peripherals.a(peripheral.o)
 .text.PLIB_SQI_ExistsXIPReadOpCode
                0x00000000        0x8 /opt/microchip/harmony/v1_03/bin/framework/peripheral/PIC32MZ1024ECG064_peripherals.a(peripheral.o)
 .text.PLIB_SQI_XIPLaneModeSet
                0x00000000       0xa0 /opt/microchip/harmony/v1_03/bin/framework/peripheral/PIC32MZ1024ECG064_peripherals.a(peripheral.o)
 .text.PLIB_SQI_ExistsXIPLaneMode
                0x00000000        0x8 /opt/microchip/harmony/v1_03/bin/framework/peripheral/PIC32MZ1024ECG064_peripherals.a(peripheral.o)
 .text.PLIB_SQI_XIPControlWord1Set
                0x00000000       0x64 /opt/microchip/harmony/v1_03/bin/framework/peripheral/PIC32MZ1024ECG064_peripherals.a(peripheral.o)
 .text.PLIB_SQI_XIPControlWord1Get
                0x00000000       0x18 /opt/microchip/harmony/v1_03/bin/framework/peripheral/PIC32MZ1024ECG064_peripherals.a(peripheral.o)
 .text.PLIB_SQI_ExistsXIPControlWord1
                0x00000000        0x8 /opt/microchip/harmony/v1_03/bin/framework/peripheral/PIC32MZ1024ECG064_peripherals.a(peripheral.o)
 .text.PLIB_SQI_XIPChipSelectSet
                0x00000000       0xf4 /opt/microchip/harmony/v1_03/bin/framework/peripheral/PIC32MZ1024ECG064_peripherals.a(peripheral.o)
 .text.PLIB_SQI_XIPChipSelectGet
                0x00000000       0x20 /opt/microchip/harmony/v1_03/bin/framework/peripheral/PIC32MZ1024ECG064_peripherals.a(peripheral.o)
 .text.PLIB_SQI_ExistsXIPChipSelect
                0x00000000        0x8 /opt/microchip/harmony/v1_03/bin/framework/peripheral/PIC32MZ1024ECG064_peripherals.a(peripheral.o)
 .text.PLIB_SQI_XIPModeBytesSet
                0x00000000      0x1c8 /opt/microchip/harmony/v1_03/bin/framework/peripheral/PIC32MZ1024ECG064_peripherals.a(peripheral.o)
 .text.PLIB_SQI_XIPModeBytesGet
                0x00000000       0x20 /opt/microchip/harmony/v1_03/bin/framework/peripheral/PIC32MZ1024ECG064_peripherals.a(peripheral.o)
 .text.PLIB_SQI_ExistsXIPModeBytes
                0x00000000        0x8 /opt/microchip/harmony/v1_03/bin/framework/peripheral/PIC32MZ1024ECG064_peripherals.a(peripheral.o)
 .text.PLIB_SQI_XIPModeCodeSet
                0x00000000       0x28 /opt/microchip/harmony/v1_03/bin/framework/peripheral/PIC32MZ1024ECG064_peripherals.a(peripheral.o)
 .text.PLIB_SQI_XIPModeCodeGet
                0x00000000       0x20 /opt/microchip/harmony/v1_03/bin/framework/peripheral/PIC32MZ1024ECG064_peripherals.a(peripheral.o)
 .text.PLIB_SQI_ExistsXIPModeCode
                0x00000000        0x8 /opt/microchip/harmony/v1_03/bin/framework/peripheral/PIC32MZ1024ECG064_peripherals.a(peripheral.o)
 .text.PLIB_SQI_XIPControlWord2Set
                0x00000000       0x28 /opt/microchip/harmony/v1_03/bin/framework/peripheral/PIC32MZ1024ECG064_peripherals.a(peripheral.o)
 .text.PLIB_SQI_XIPControlWord2Get
                0x00000000       0x18 /opt/microchip/harmony/v1_03/bin/framework/peripheral/PIC32MZ1024ECG064_peripherals.a(peripheral.o)
 .text.PLIB_SQI_ExistsXIPControlWord2
                0x00000000        0x8 /opt/microchip/harmony/v1_03/bin/framework/peripheral/PIC32MZ1024ECG064_peripherals.a(peripheral.o)
 .text.PLIB_SQI_Enable
                0x00000000       0x20 /opt/microchip/harmony/v1_03/bin/framework/peripheral/PIC32MZ1024ECG064_peripherals.a(peripheral.o)
 .text.PLIB_SQI_Disable
                0x00000000       0x1c /opt/microchip/harmony/v1_03/bin/framework/peripheral/PIC32MZ1024ECG064_peripherals.a(peripheral.o)
 .text.PLIB_SQI_ExistsEnableControl
                0x00000000        0x8 /opt/microchip/harmony/v1_03/bin/framework/peripheral/PIC32MZ1024ECG064_peripherals.a(peripheral.o)
 .text.PLIB_SQI_CSOutputEnableSelect
                0x00000000      0x1d8 /opt/microchip/harmony/v1_03/bin/framework/peripheral/PIC32MZ1024ECG064_peripherals.a(peripheral.o)
 .text.PLIB_SQI_ExistsCSOutputEnable
                0x00000000        0x8 /opt/microchip/harmony/v1_03/bin/framework/peripheral/PIC32MZ1024ECG064_peripherals.a(peripheral.o)
 .text.PLIB_SQI_DataOutputEnableSelect
                0x00000000      0x180 /opt/microchip/harmony/v1_03/bin/framework/peripheral/PIC32MZ1024ECG064_peripherals.a(peripheral.o)
 .text.PLIB_SQI_ExistsDataOutputEnable
                0x00000000        0x8 /opt/microchip/harmony/v1_03/bin/framework/peripheral/PIC32MZ1024ECG064_peripherals.a(peripheral.o)
 .text.PLIB_SQI_SoftReset
                0x00000000       0x28 /opt/microchip/harmony/v1_03/bin/framework/peripheral/PIC32MZ1024ECG064_peripherals.a(peripheral.o)
 .text.PLIB_SQI_ExistsSoftReset
                0x00000000        0x8 /opt/microchip/harmony/v1_03/bin/framework/peripheral/PIC32MZ1024ECG064_peripherals.a(peripheral.o)
 .text.PLIB_SQI_BurstEnable
                0x00000000       0x1c /opt/microchip/harmony/v1_03/bin/framework/peripheral/PIC32MZ1024ECG064_peripherals.a(peripheral.o)
 .text.PLIB_SQI_ExistsBurstControl
                0x00000000        0x8 /opt/microchip/harmony/v1_03/bin/framework/peripheral/PIC32MZ1024ECG064_peripherals.a(peripheral.o)
 .text.PLIB_SQI_HoldSet
                0x00000000       0x1c /opt/microchip/harmony/v1_03/bin/framework/peripheral/PIC32MZ1024ECG064_peripherals.a(peripheral.o)
 .text.PLIB_SQI_HoldClear
                0x00000000       0x20 /opt/microchip/harmony/v1_03/bin/framework/peripheral/PIC32MZ1024ECG064_peripherals.a(peripheral.o)
 .text.PLIB_SQI_HoldGet
                0x00000000       0x20 /opt/microchip/harmony/v1_03/bin/framework/peripheral/PIC32MZ1024ECG064_peripherals.a(peripheral.o)
 .text.PLIB_SQI_ExistsHoldPinControl
                0x00000000        0x8 /opt/microchip/harmony/v1_03/bin/framework/peripheral/PIC32MZ1024ECG064_peripherals.a(peripheral.o)
 .text.PLIB_SQI_WriteProtectSet
                0x00000000       0x1c /opt/microchip/harmony/v1_03/bin/framework/peripheral/PIC32MZ1024ECG064_peripherals.a(peripheral.o)
 .text.PLIB_SQI_WriteProtectClear
                0x00000000       0x20 /opt/microchip/harmony/v1_03/bin/framework/peripheral/PIC32MZ1024ECG064_peripherals.a(peripheral.o)
 .text.PLIB_SQI_WriteProtectGet
                0x00000000       0x20 /opt/microchip/harmony/v1_03/bin/framework/peripheral/PIC32MZ1024ECG064_peripherals.a(peripheral.o)
 .text.PLIB_SQI_ExistsWPPinControl
                0x00000000        0x8 /opt/microchip/harmony/v1_03/bin/framework/peripheral/PIC32MZ1024ECG064_peripherals.a(peripheral.o)
 .text.PLIB_SQI_ReceiveLatchEnable
                0x00000000       0x1c /opt/microchip/harmony/v1_03/bin/framework/peripheral/PIC32MZ1024ECG064_peripherals.a(peripheral.o)
 .text.PLIB_SQI_ReceiveLatchDisable
                0x00000000       0x20 /opt/microchip/harmony/v1_03/bin/framework/peripheral/PIC32MZ1024ECG064_peripherals.a(peripheral.o)
 .text.PLIB_SQI_ReceiveLatchGet
                0x00000000       0x20 /opt/microchip/harmony/v1_03/bin/framework/peripheral/PIC32MZ1024ECG064_peripherals.a(peripheral.o)
 .text.PLIB_SQI_ExistsReceiveLatch
                0x00000000        0x8 /opt/microchip/harmony/v1_03/bin/framework/peripheral/PIC32MZ1024ECG064_peripherals.a(peripheral.o)
 .text.PLIB_SQI_DataFormatSet
                0x00000000       0x2c /opt/microchip/harmony/v1_03/bin/framework/peripheral/PIC32MZ1024ECG064_peripherals.a(peripheral.o)
 .text.PLIB_SQI_DataFormatGet
                0x00000000       0x20 /opt/microchip/harmony/v1_03/bin/framework/peripheral/PIC32MZ1024ECG064_peripherals.a(peripheral.o)
 .text.PLIB_SQI_ExistsDataFormat
                0x00000000        0x8 /opt/microchip/harmony/v1_03/bin/framework/peripheral/PIC32MZ1024ECG064_peripherals.a(peripheral.o)
 .text.PLIB_SQI_DataModeSet
                0x00000000      0x19c /opt/microchip/harmony/v1_03/bin/framework/peripheral/PIC32MZ1024ECG064_peripherals.a(peripheral.o)
 .text.PLIB_SQI_ExistsDataModeControl
                0x00000000        0x8 /opt/microchip/harmony/v1_03/bin/framework/peripheral/PIC32MZ1024ECG064_peripherals.a(peripheral.o)
 .text.PLIB_SQI_TransferModeSet
                0x00000000      0x1ac /opt/microchip/harmony/v1_03/bin/framework/peripheral/PIC32MZ1024ECG064_peripherals.a(peripheral.o)
 .text.PLIB_SQI_TransferModeGet
                0x00000000       0x20 /opt/microchip/harmony/v1_03/bin/framework/peripheral/PIC32MZ1024ECG064_peripherals.a(peripheral.o)
 .text.PLIB_SQI_ExistsTransferModeControl
                0x00000000        0x8 /opt/microchip/harmony/v1_03/bin/framework/peripheral/PIC32MZ1024ECG064_peripherals.a(peripheral.o)
 .text.PLIB_SQI_ConfigWordSet
                0x00000000       0x88 /opt/microchip/harmony/v1_03/bin/framework/peripheral/PIC32MZ1024ECG064_peripherals.a(peripheral.o)
 .text.PLIB_SQI_ConfigWordGet
                0x00000000       0x18 /opt/microchip/harmony/v1_03/bin/framework/peripheral/PIC32MZ1024ECG064_peripherals.a(peripheral.o)
 .text.PLIB_SQI_ExistsConfigWord
                0x00000000        0x8 /opt/microchip/harmony/v1_03/bin/framework/peripheral/PIC32MZ1024ECG064_peripherals.a(peripheral.o)
 .text.PLIB_SQI_ChipSelectDeassertEnable
                0x00000000       0x28 /opt/microchip/harmony/v1_03/bin/framework/peripheral/PIC32MZ1024ECG064_peripherals.a(peripheral.o)
 .text.PLIB_SQI_ChipSelectDeassertDisable
                0x00000000       0x24 /opt/microchip/harmony/v1_03/bin/framework/peripheral/PIC32MZ1024ECG064_peripherals.a(peripheral.o)
 .text.PLIB_SQI_ExistsCSDeassert
                0x00000000        0x8 /opt/microchip/harmony/v1_03/bin/framework/peripheral/PIC32MZ1024ECG064_peripherals.a(peripheral.o)
 .text.PLIB_SQI_ChipSelectSet
                0x00000000       0xfc /opt/microchip/harmony/v1_03/bin/framework/peripheral/PIC32MZ1024ECG064_peripherals.a(peripheral.o)
 .text.PLIB_SQI_ChipSelectGet
                0x00000000       0x20 /opt/microchip/harmony/v1_03/bin/framework/peripheral/PIC32MZ1024ECG064_peripherals.a(peripheral.o)
 .text.PLIB_SQI_ExistsChipSelect
                0x00000000        0x8 /opt/microchip/harmony/v1_03/bin/framework/peripheral/PIC32MZ1024ECG064_peripherals.a(peripheral.o)
 .text.PLIB_SQI_LaneModeSet
                0x00000000      0x180 /opt/microchip/harmony/v1_03/bin/framework/peripheral/PIC32MZ1024ECG064_peripherals.a(peripheral.o)
 .text.PLIB_SQI_LaneModeGet
                0x00000000       0x20 /opt/microchip/harmony/v1_03/bin/framework/peripheral/PIC32MZ1024ECG064_peripherals.a(peripheral.o)
 .text.PLIB_SQI_ExistsLaneMode
                0x00000000        0x8 /opt/microchip/harmony/v1_03/bin/framework/peripheral/PIC32MZ1024ECG064_peripherals.a(peripheral.o)
 .text.PLIB_SQI_TransferDirectionSet
                0x00000000      0x14c /opt/microchip/harmony/v1_03/bin/framework/peripheral/PIC32MZ1024ECG064_peripherals.a(peripheral.o)
 .text.PLIB_SQI_TransferDirectionGet
                0x00000000       0x20 /opt/microchip/harmony/v1_03/bin/framework/peripheral/PIC32MZ1024ECG064_peripherals.a(peripheral.o)
 .text.PLIB_SQI_ExistsTransferCommand
                0x00000000        0x8 /opt/microchip/harmony/v1_03/bin/framework/peripheral/PIC32MZ1024ECG064_peripherals.a(peripheral.o)
 .text.PLIB_SQI_ByteCountSet
                0x00000000       0x28 /opt/microchip/harmony/v1_03/bin/framework/peripheral/PIC32MZ1024ECG064_peripherals.a(peripheral.o)
 .text.PLIB_SQI_ByteCountGet
                0x00000000       0x20 /opt/microchip/harmony/v1_03/bin/framework/peripheral/PIC32MZ1024ECG064_peripherals.a(peripheral.o)
 .text.PLIB_SQI_ExistsTransferCount
                0x00000000        0x8 /opt/microchip/harmony/v1_03/bin/framework/peripheral/PIC32MZ1024ECG064_peripherals.a(peripheral.o)
 .text.PLIB_SQI_ControlWordSet
                0x00000000       0x40 /opt/microchip/harmony/v1_03/bin/framework/peripheral/PIC32MZ1024ECG064_peripherals.a(peripheral.o)
 .text.PLIB_SQI_ControlWordGet
                0x00000000       0x18 /opt/microchip/harmony/v1_03/bin/framework/peripheral/PIC32MZ1024ECG064_peripherals.a(peripheral.o)
 .text.PLIB_SQI_ExistsControlWord
                0x00000000        0x8 /opt/microchip/harmony/v1_03/bin/framework/peripheral/PIC32MZ1024ECG064_peripherals.a(peripheral.o)
 .text.PLIB_SQI_ClockDividerSet
                0x00000000      0x594 /opt/microchip/harmony/v1_03/bin/framework/peripheral/PIC32MZ1024ECG064_peripherals.a(peripheral.o)
 .text.PLIB_SQI_ExistsClockDivider
                0x00000000        0x8 /opt/microchip/harmony/v1_03/bin/framework/peripheral/PIC32MZ1024ECG064_peripherals.a(peripheral.o)
 .text.PLIB_SQI_ClockIsStable
                0x00000000       0x20 /opt/microchip/harmony/v1_03/bin/framework/peripheral/PIC32MZ1024ECG064_peripherals.a(peripheral.o)
 .text.PLIB_SQI_ExistsClockReady
                0x00000000        0x8 /opt/microchip/harmony/v1_03/bin/framework/peripheral/PIC32MZ1024ECG064_peripherals.a(peripheral.o)
 .text.PLIB_SQI_ClockEnable
                0x00000000       0x1c /opt/microchip/harmony/v1_03/bin/framework/peripheral/PIC32MZ1024ECG064_peripherals.a(peripheral.o)
 .text.PLIB_SQI_ClockDisable
                0x00000000       0x20 /opt/microchip/harmony/v1_03/bin/framework/peripheral/PIC32MZ1024ECG064_peripherals.a(peripheral.o)
 .text.PLIB_SQI_ExistsClockControl
                0x00000000        0x8 /opt/microchip/harmony/v1_03/bin/framework/peripheral/PIC32MZ1024ECG064_peripherals.a(peripheral.o)
 .text.PLIB_SQI_RxBufferThresholdSet
                0x00000000       0x2c /opt/microchip/harmony/v1_03/bin/framework/peripheral/PIC32MZ1024ECG064_peripherals.a(peripheral.o)
 .text.PLIB_SQI_RxBufferThresholdGet
                0x00000000       0x20 /opt/microchip/harmony/v1_03/bin/framework/peripheral/PIC32MZ1024ECG064_peripherals.a(peripheral.o)
 .text.PLIB_SQI_ExistsRxBufThreshold
                0x00000000        0x8 /opt/microchip/harmony/v1_03/bin/framework/peripheral/PIC32MZ1024ECG064_peripherals.a(peripheral.o)
 .text.PLIB_SQI_TxBufferThresholdSet
                0x00000000       0x30 /opt/microchip/harmony/v1_03/bin/framework/peripheral/PIC32MZ1024ECG064_peripherals.a(peripheral.o)
 .text.PLIB_SQI_TxBufferThresholdGet
                0x00000000       0x20 /opt/microchip/harmony/v1_03/bin/framework/peripheral/PIC32MZ1024ECG064_peripherals.a(peripheral.o)
 .text.PLIB_SQI_ExistsTxBufThreshold
                0x00000000        0x8 /opt/microchip/harmony/v1_03/bin/framework/peripheral/PIC32MZ1024ECG064_peripherals.a(peripheral.o)
 .text.PLIB_SQI_RxBufferThresholdIntSet
                0x00000000       0x2c /opt/microchip/harmony/v1_03/bin/framework/peripheral/PIC32MZ1024ECG064_peripherals.a(peripheral.o)
 .text.PLIB_SQI_RxBufferThresholdIntGet
                0x00000000       0x20 /opt/microchip/harmony/v1_03/bin/framework/peripheral/PIC32MZ1024ECG064_peripherals.a(peripheral.o)
 .text.PLIB_SQI_ExistsRxBufIntThreshold
                0x00000000        0x8 /opt/microchip/harmony/v1_03/bin/framework/peripheral/PIC32MZ1024ECG064_peripherals.a(peripheral.o)
 .text.PLIB_SQI_TxBufferThresholdIntSet
                0x00000000       0x30 /opt/microchip/harmony/v1_03/bin/framework/peripheral/PIC32MZ1024ECG064_peripherals.a(peripheral.o)
 .text.PLIB_SQI_TxBufferThresholdIntGet
                0x00000000       0x20 /opt/microchip/harmony/v1_03/bin/framework/peripheral/PIC32MZ1024ECG064_peripherals.a(peripheral.o)
 .text.PLIB_SQI_ExistsTxBufIntThreshold
                0x00000000        0x8 /opt/microchip/harmony/v1_03/bin/framework/peripheral/PIC32MZ1024ECG064_peripherals.a(peripheral.o)
 .text.PLIB_SQI_InterruptEnable
                0x00000000      0x44c /opt/microchip/harmony/v1_03/bin/framework/peripheral/PIC32MZ1024ECG064_peripherals.a(peripheral.o)
 .text.PLIB_SQI_InterruptDisable
                0x00000000      0x3f8 /opt/microchip/harmony/v1_03/bin/framework/peripheral/PIC32MZ1024ECG064_peripherals.a(peripheral.o)
 .text.PLIB_SQI_InterruptIsEnabled
                0x00000000      0x2c8 /opt/microchip/harmony/v1_03/bin/framework/peripheral/PIC32MZ1024ECG064_peripherals.a(peripheral.o)
 .text.PLIB_SQI_ExistsInterruptControl
                0x00000000        0x8 /opt/microchip/harmony/v1_03/bin/framework/peripheral/PIC32MZ1024ECG064_peripherals.a(peripheral.o)
 .text.PLIB_SQI_InterruptFlagGet
                0x00000000      0x2c8 /opt/microchip/harmony/v1_03/bin/framework/peripheral/PIC32MZ1024ECG064_peripherals.a(peripheral.o)
 .text.PLIB_SQI_ExistsInterruptStatus
                0x00000000        0x8 /opt/microchip/harmony/v1_03/bin/framework/peripheral/PIC32MZ1024ECG064_peripherals.a(peripheral.o)
 .text.PLIB_SQI_TransmitData
                0x00000000       0x14 /opt/microchip/harmony/v1_03/bin/framework/peripheral/PIC32MZ1024ECG064_peripherals.a(peripheral.o)
 .text.PLIB_SQI_ExistsTxData
                0x00000000        0x8 /opt/microchip/harmony/v1_03/bin/framework/peripheral/PIC32MZ1024ECG064_peripherals.a(peripheral.o)
 .text.PLIB_SQI_ReceiveData
                0x00000000       0x18 /opt/microchip/harmony/v1_03/bin/framework/peripheral/PIC32MZ1024ECG064_peripherals.a(peripheral.o)
 .text.PLIB_SQI_ExistsRxData
                0x00000000        0x8 /opt/microchip/harmony/v1_03/bin/framework/peripheral/PIC32MZ1024ECG064_peripherals.a(peripheral.o)
 .text.PLIB_SQI_TransmitBufferFreeSpaceGet
                0x00000000       0x20 /opt/microchip/harmony/v1_03/bin/framework/peripheral/PIC32MZ1024ECG064_peripherals.a(peripheral.o)
 .text.PLIB_SQI_ExistsTxBufferFree
                0x00000000        0x8 /opt/microchip/harmony/v1_03/bin/framework/peripheral/PIC32MZ1024ECG064_peripherals.a(peripheral.o)
 .text.PLIB_SQI_NumberOfReceiveBufferReads
                0x00000000       0x20 /opt/microchip/harmony/v1_03/bin/framework/peripheral/PIC32MZ1024ECG064_peripherals.a(peripheral.o)
 .text.PLIB_SQI_ExistsRxBufferCount
                0x00000000        0x8 /opt/microchip/harmony/v1_03/bin/framework/peripheral/PIC32MZ1024ECG064_peripherals.a(peripheral.o)
 .text.PLIB_SQI_DataLineStatus
                0x00000000      0x114 /opt/microchip/harmony/v1_03/bin/framework/peripheral/PIC32MZ1024ECG064_peripherals.a(peripheral.o)
 .text.PLIB_SQI_ExistsDataPinStatus
                0x00000000        0x8 /opt/microchip/harmony/v1_03/bin/framework/peripheral/PIC32MZ1024ECG064_peripherals.a(peripheral.o)
 .text.PLIB_SQI_ReceiveBufferIsUnderrun
                0x00000000       0x20 /opt/microchip/harmony/v1_03/bin/framework/peripheral/PIC32MZ1024ECG064_peripherals.a(peripheral.o)
 .text.PLIB_SQI_ExistsRxUnderRun
                0x00000000        0x8 /opt/microchip/harmony/v1_03/bin/framework/peripheral/PIC32MZ1024ECG064_peripherals.a(peripheral.o)
 .text.PLIB_SQI_TransmitBufferHasOverflowed
                0x00000000       0x20 /opt/microchip/harmony/v1_03/bin/framework/peripheral/PIC32MZ1024ECG064_peripherals.a(peripheral.o)
 .text.PLIB_SQI_ExistsTxOverFlow
                0x00000000        0x8 /opt/microchip/harmony/v1_03/bin/framework/peripheral/PIC32MZ1024ECG064_peripherals.a(peripheral.o)
 .text.PLIB_SQI_DMAEnable
                0x00000000       0x1c /opt/microchip/harmony/v1_03/bin/framework/peripheral/PIC32MZ1024ECG064_peripherals.a(peripheral.o)
 .text.PLIB_SQI_DMADisable
                0x00000000       0x20 /opt/microchip/harmony/v1_03/bin/framework/peripheral/PIC32MZ1024ECG064_peripherals.a(peripheral.o)
 .text.PLIB_SQI_DMAIsEnabled
                0x00000000       0x20 /opt/microchip/harmony/v1_03/bin/framework/peripheral/PIC32MZ1024ECG064_peripherals.a(peripheral.o)
 .text.PLIB_SQI_ExistsDmaEnable
                0x00000000        0x8 /opt/microchip/harmony/v1_03/bin/framework/peripheral/PIC32MZ1024ECG064_peripherals.a(peripheral.o)
 .text.PLIB_SQI_DMABDPollEnable
                0x00000000       0x1c /opt/microchip/harmony/v1_03/bin/framework/peripheral/PIC32MZ1024ECG064_peripherals.a(peripheral.o)
 .text.PLIB_SQI_DMABDPollDisable
                0x00000000       0x20 /opt/microchip/harmony/v1_03/bin/framework/peripheral/PIC32MZ1024ECG064_peripherals.a(peripheral.o)
 .text.PLIB_SQI_DMABDPollIsEnabled
                0x00000000       0x20 /opt/microchip/harmony/v1_03/bin/framework/peripheral/PIC32MZ1024ECG064_peripherals.a(peripheral.o)
 .text.PLIB_SQI_ExistsBDPollingEnable
                0x00000000        0x8 /opt/microchip/harmony/v1_03/bin/framework/peripheral/PIC32MZ1024ECG064_peripherals.a(peripheral.o)
 .text.PLIB_SQI_DMABDFetchStart
                0x00000000       0x1c /opt/microchip/harmony/v1_03/bin/framework/peripheral/PIC32MZ1024ECG064_peripherals.a(peripheral.o)
 .text.PLIB_SQI_ExistsStartDMA
                0x00000000        0x8 /opt/microchip/harmony/v1_03/bin/framework/peripheral/PIC32MZ1024ECG064_peripherals.a(peripheral.o)
 .text.PLIB_SQI_DMABDCurrentAddressGet
                0x00000000       0x18 /opt/microchip/harmony/v1_03/bin/framework/peripheral/PIC32MZ1024ECG064_peripherals.a(peripheral.o)
 .text.PLIB_SQI_ExistsBDCurrentAddress
                0x00000000        0x8 /opt/microchip/harmony/v1_03/bin/framework/peripheral/PIC32MZ1024ECG064_peripherals.a(peripheral.o)
 .text.PLIB_SQI_DMABDBaseAddressSet
                0x00000000       0x14 /opt/microchip/harmony/v1_03/bin/framework/peripheral/PIC32MZ1024ECG064_peripherals.a(peripheral.o)
 .text.PLIB_SQI_DMABDBaseAddressGet
                0x00000000       0x18 /opt/microchip/harmony/v1_03/bin/framework/peripheral/PIC32MZ1024ECG064_peripherals.a(peripheral.o)
 .text.PLIB_SQI_ExistsBDBaseAddress
                0x00000000        0x8 /opt/microchip/harmony/v1_03/bin/framework/peripheral/PIC32MZ1024ECG064_peripherals.a(peripheral.o)
 .text.PLIB_SQI_DMABDStateGet
                0x00000000       0x20 /opt/microchip/harmony/v1_03/bin/framework/peripheral/PIC32MZ1024ECG064_peripherals.a(peripheral.o)
 .text.PLIB_SQI_ExistsBDProcessState
                0x00000000        0x8 /opt/microchip/harmony/v1_03/bin/framework/peripheral/PIC32MZ1024ECG064_peripherals.a(peripheral.o)
 .text.PLIB_SQI_DMAHasStarted
                0x00000000       0x20 /opt/microchip/harmony/v1_03/bin/framework/peripheral/PIC32MZ1024ECG064_peripherals.a(peripheral.o)
 .text.PLIB_SQI_ExistsDMAProcessInProgress
                0x00000000        0x8 /opt/microchip/harmony/v1_03/bin/framework/peripheral/PIC32MZ1024ECG064_peripherals.a(peripheral.o)
 .text.PLIB_SQI_DMABDIsBusy
                0x00000000       0x20 /opt/microchip/harmony/v1_03/bin/framework/peripheral/PIC32MZ1024ECG064_peripherals.a(peripheral.o)
 .text.PLIB_SQI_ExistsDMAEngineBusy
                0x00000000        0x8 /opt/microchip/harmony/v1_03/bin/framework/peripheral/PIC32MZ1024ECG064_peripherals.a(peripheral.o)
 .text.PLIB_SQI_DMABDControlWordGet
                0x00000000       0x20 /opt/microchip/harmony/v1_03/bin/framework/peripheral/PIC32MZ1024ECG064_peripherals.a(peripheral.o)
 .text.PLIB_SQI_ExistsBDControlWord
                0x00000000        0x8 /opt/microchip/harmony/v1_03/bin/framework/peripheral/PIC32MZ1024ECG064_peripherals.a(peripheral.o)
 .text.PLIB_SQI_DMABDPollCounterSet
                0x00000000       0x28 /opt/microchip/harmony/v1_03/bin/framework/peripheral/PIC32MZ1024ECG064_peripherals.a(peripheral.o)
 .text.PLIB_SQI_ExistsBDPollCount
                0x00000000        0x8 /opt/microchip/harmony/v1_03/bin/framework/peripheral/PIC32MZ1024ECG064_peripherals.a(peripheral.o)
 .text.PLIB_SQI_DMABDTransmitStateGet
                0x00000000       0x20 /opt/microchip/harmony/v1_03/bin/framework/peripheral/PIC32MZ1024ECG064_peripherals.a(peripheral.o)
 .text.PLIB_SQI_ExistsBDTxState
                0x00000000        0x8 /opt/microchip/harmony/v1_03/bin/framework/peripheral/PIC32MZ1024ECG064_peripherals.a(peripheral.o)
 .text.PLIB_SQI_DMABDTransmitBufferCountGet
                0x00000000       0x20 /opt/microchip/harmony/v1_03/bin/framework/peripheral/PIC32MZ1024ECG064_peripherals.a(peripheral.o)
 .text.PLIB_SQI_ExistsBDTxBufCount
                0x00000000        0x8 /opt/microchip/harmony/v1_03/bin/framework/peripheral/PIC32MZ1024ECG064_peripherals.a(peripheral.o)
 .text.PLIB_SQI_DMABDTransmitBufferLengthGet
                0x00000000       0x20 /opt/microchip/harmony/v1_03/bin/framework/peripheral/PIC32MZ1024ECG064_peripherals.a(peripheral.o)
 .text.PLIB_SQI_ExistsBDTxLength
                0x00000000        0x8 /opt/microchip/harmony/v1_03/bin/framework/peripheral/PIC32MZ1024ECG064_peripherals.a(peripheral.o)
 .text.PLIB_SQI_DMABDReceiveStateGet
                0x00000000       0x20 /opt/microchip/harmony/v1_03/bin/framework/peripheral/PIC32MZ1024ECG064_peripherals.a(peripheral.o)
 .text.PLIB_SQI_ExistsBDRxState
                0x00000000        0x8 /opt/microchip/harmony/v1_03/bin/framework/peripheral/PIC32MZ1024ECG064_peripherals.a(peripheral.o)
 .text.PLIB_SQI_DMABDReceiveBufferCountGet
                0x00000000       0x20 /opt/microchip/harmony/v1_03/bin/framework/peripheral/PIC32MZ1024ECG064_peripherals.a(peripheral.o)
 .text.PLIB_SQI_ExistsBDRxBufCount
                0x00000000        0x8 /opt/microchip/harmony/v1_03/bin/framework/peripheral/PIC32MZ1024ECG064_peripherals.a(peripheral.o)
 .text.PLIB_SQI_DMABDReceiveBufferLengthGet
                0x00000000       0x20 /opt/microchip/harmony/v1_03/bin/framework/peripheral/PIC32MZ1024ECG064_peripherals.a(peripheral.o)
 .text.PLIB_SQI_ExistsBDRxLength
                0x00000000        0x8 /opt/microchip/harmony/v1_03/bin/framework/peripheral/PIC32MZ1024ECG064_peripherals.a(peripheral.o)
 .text.PLIB_SQI_ControlBufferThresholdSet
                0x00000000       0x2c /opt/microchip/harmony/v1_03/bin/framework/peripheral/PIC32MZ1024ECG064_peripherals.a(peripheral.o)
 .text.PLIB_SQI_ControlBufferThresholdGet
                0x00000000       0x20 /opt/microchip/harmony/v1_03/bin/framework/peripheral/PIC32MZ1024ECG064_peripherals.a(peripheral.o)
 .text.PLIB_SQI_ExistsConBufThreshold
                0x00000000        0x8 /opt/microchip/harmony/v1_03/bin/framework/peripheral/PIC32MZ1024ECG064_peripherals.a(peripheral.o)
 .text.PLIB_SQI_InterruptSignalEnable
                0x00000000      0x44c /opt/microchip/harmony/v1_03/bin/framework/peripheral/PIC32MZ1024ECG064_peripherals.a(peripheral.o)
 .text.PLIB_SQI_InterruptSignalDisable
                0x00000000      0x3f8 /opt/microchip/harmony/v1_03/bin/framework/peripheral/PIC32MZ1024ECG064_peripherals.a(peripheral.o)
 .text.PLIB_SQI_InterruptSignalIsEnabled
                0x00000000      0x2c8 /opt/microchip/harmony/v1_03/bin/framework/peripheral/PIC32MZ1024ECG064_peripherals.a(peripheral.o)
 .text.PLIB_SQI_ExistsInterruptSignalControl
                0x00000000        0x8 /opt/microchip/harmony/v1_03/bin/framework/peripheral/PIC32MZ1024ECG064_peripherals.a(peripheral.o)
 .text.PLIB_TMR_GateEnable
                0x00000000       0xe0 /opt/microchip/harmony/v1_03/bin/framework/peripheral/PIC32MZ1024ECG064_peripherals.a(peripheral.o)
 .text.PLIB_TMR_GateDisable
                0x00000000       0xe0 /opt/microchip/harmony/v1_03/bin/framework/peripheral/PIC32MZ1024ECG064_peripherals.a(peripheral.o)
 .text.PLIB_TMR_ExistsGatedTimeAccumulation
                0x00000000        0x8 /opt/microchip/harmony/v1_03/bin/framework/peripheral/PIC32MZ1024ECG064_peripherals.a(peripheral.o)
 .text.PLIB_TMR_ClockSourceSelect
                0x00000000       0xe0 /opt/microchip/harmony/v1_03/bin/framework/peripheral/PIC32MZ1024ECG064_peripherals.a(peripheral.o)
 .text.PLIB_TMR_ExistsClockSource
                0x00000000        0x8 /opt/microchip/harmony/v1_03/bin/framework/peripheral/PIC32MZ1024ECG064_peripherals.a(peripheral.o)
 .text.PLIB_TMR_PrescaleSelect
                0x00000000       0xe0 /opt/microchip/harmony/v1_03/bin/framework/peripheral/PIC32MZ1024ECG064_peripherals.a(peripheral.o)
 .text.PLIB_TMR_PrescaleGet
                0x00000000       0xec /opt/microchip/harmony/v1_03/bin/framework/peripheral/PIC32MZ1024ECG064_peripherals.a(peripheral.o)
 .text.PLIB_TMR_ExistsPrescale
                0x00000000        0x8 /opt/microchip/harmony/v1_03/bin/framework/peripheral/PIC32MZ1024ECG064_peripherals.a(peripheral.o)
 .text.PLIB_TMR_ClockSourceExternalSyncEnable
                0x00000000       0x18 /opt/microchip/harmony/v1_03/bin/framework/peripheral/PIC32MZ1024ECG064_peripherals.a(peripheral.o)
 .text.PLIB_TMR_ClockSourceExternalSyncDisable
                0x00000000       0x18 /opt/microchip/harmony/v1_03/bin/framework/peripheral/PIC32MZ1024ECG064_peripherals.a(peripheral.o)
 .text.PLIB_TMR_ExistsClockSourceSync
                0x00000000        0x8 /opt/microchip/harmony/v1_03/bin/framework/peripheral/PIC32MZ1024ECG064_peripherals.a(peripheral.o)
 .text.PLIB_TMR_Mode16BitEnable
                0x00000000       0x8c /opt/microchip/harmony/v1_03/bin/framework/peripheral/PIC32MZ1024ECG064_peripherals.a(peripheral.o)
 .text.PLIB_TMR_ExistsMode16Bit
                0x00000000        0x8 /opt/microchip/harmony/v1_03/bin/framework/peripheral/PIC32MZ1024ECG064_peripherals.a(peripheral.o)
 .text.PLIB_TMR_Mode32BitEnable
                0x00000000       0x8c /opt/microchip/harmony/v1_03/bin/framework/peripheral/PIC32MZ1024ECG064_peripherals.a(peripheral.o)
 .text.PLIB_TMR_ExistsMode32Bit
                0x00000000        0xc /opt/microchip/harmony/v1_03/bin/framework/peripheral/PIC32MZ1024ECG064_peripherals.a(peripheral.o)
 .text.PLIB_TMR_Start
                0x00000000       0xe0 /opt/microchip/harmony/v1_03/bin/framework/peripheral/PIC32MZ1024ECG064_peripherals.a(peripheral.o)
 .text.PLIB_TMR_Stop
                0x00000000       0xe0 /opt/microchip/harmony/v1_03/bin/framework/peripheral/PIC32MZ1024ECG064_peripherals.a(peripheral.o)
 .text.PLIB_TMR_ExistsEnableControl
                0x00000000        0x8 /opt/microchip/harmony/v1_03/bin/framework/peripheral/PIC32MZ1024ECG064_peripherals.a(peripheral.o)
 .text.PLIB_TMR_StopInIdleEnable
                0x00000000       0xe0 /opt/microchip/harmony/v1_03/bin/framework/peripheral/PIC32MZ1024ECG064_peripherals.a(peripheral.o)
 .text.PLIB_TMR_StopInIdleDisable
                0x00000000       0xe0 /opt/microchip/harmony/v1_03/bin/framework/peripheral/PIC32MZ1024ECG064_peripherals.a(peripheral.o)
 .text.PLIB_TMR_ExistsStopInIdleControl
                0x00000000        0x8 /opt/microchip/harmony/v1_03/bin/framework/peripheral/PIC32MZ1024ECG064_peripherals.a(peripheral.o)
 .text.PLIB_TMR_Counter16BitSet
                0x00000000       0xe4 /opt/microchip/harmony/v1_03/bin/framework/peripheral/PIC32MZ1024ECG064_peripherals.a(peripheral.o)
 .text.PLIB_TMR_Counter16BitGet
                0x00000000      0x110 /opt/microchip/harmony/v1_03/bin/framework/peripheral/PIC32MZ1024ECG064_peripherals.a(peripheral.o)
 .text.PLIB_TMR_Counter16BitClear
                0x00000000      0x104 /opt/microchip/harmony/v1_03/bin/framework/peripheral/PIC32MZ1024ECG064_peripherals.a(peripheral.o)
 .text.PLIB_TMR_ExistsCounter16Bit
                0x00000000        0x8 /opt/microchip/harmony/v1_03/bin/framework/peripheral/PIC32MZ1024ECG064_peripherals.a(peripheral.o)
 .text.PLIB_TMR_Counter32BitSet
                0x00000000       0x8c /opt/microchip/harmony/v1_03/bin/framework/peripheral/PIC32MZ1024ECG064_peripherals.a(peripheral.o)
 .text.PLIB_TMR_Counter32BitGet
                0x00000000       0xb0 /opt/microchip/harmony/v1_03/bin/framework/peripheral/PIC32MZ1024ECG064_peripherals.a(peripheral.o)
 .text.PLIB_TMR_Counter32BitClear
                0x00000000       0x90 /opt/microchip/harmony/v1_03/bin/framework/peripheral/PIC32MZ1024ECG064_peripherals.a(peripheral.o)
 .text.PLIB_TMR_ExistsCounter32Bit
                0x00000000        0xc /opt/microchip/harmony/v1_03/bin/framework/peripheral/PIC32MZ1024ECG064_peripherals.a(peripheral.o)
 .text.PLIB_TMR_Period16BitSet
                0x00000000      0x110 /opt/microchip/harmony/v1_03/bin/framework/peripheral/PIC32MZ1024ECG064_peripherals.a(peripheral.o)
 .text.PLIB_TMR_Period16BitGet
                0x00000000      0x110 /opt/microchip/harmony/v1_03/bin/framework/peripheral/PIC32MZ1024ECG064_peripherals.a(peripheral.o)
 .text.PLIB_TMR_ExistsPeriod16Bit
                0x00000000        0x8 /opt/microchip/harmony/v1_03/bin/framework/peripheral/PIC32MZ1024ECG064_peripherals.a(peripheral.o)
 .text.PLIB_TMR_Period32BitSet
                0x00000000       0x8c /opt/microchip/harmony/v1_03/bin/framework/peripheral/PIC32MZ1024ECG064_peripherals.a(peripheral.o)
 .text.PLIB_TMR_Period32BitGet
                0x00000000       0xb0 /opt/microchip/harmony/v1_03/bin/framework/peripheral/PIC32MZ1024ECG064_peripherals.a(peripheral.o)
 .text.PLIB_TMR_ExistsPeriod32Bit
                0x00000000        0xc /opt/microchip/harmony/v1_03/bin/framework/peripheral/PIC32MZ1024ECG064_peripherals.a(peripheral.o)
 .text.PLIB_TMR_CounterAsyncWriteEnable
                0x00000000       0x18 /opt/microchip/harmony/v1_03/bin/framework/peripheral/PIC32MZ1024ECG064_peripherals.a(peripheral.o)
 .text.PLIB_TMR_CounterAsyncWriteDisable
                0x00000000       0x18 /opt/microchip/harmony/v1_03/bin/framework/peripheral/PIC32MZ1024ECG064_peripherals.a(peripheral.o)
 .text.PLIB_TMR_ExistsCounterAsyncWriteControl
                0x00000000        0x8 /opt/microchip/harmony/v1_03/bin/framework/peripheral/PIC32MZ1024ECG064_peripherals.a(peripheral.o)
 .text.PLIB_TMR_CounterAsyncWriteInProgress
                0x00000000       0x20 /opt/microchip/harmony/v1_03/bin/framework/peripheral/PIC32MZ1024ECG064_peripherals.a(peripheral.o)
 .text.PLIB_TMR_ExistsCounterAsyncWriteInProgress
                0x00000000        0x8 /opt/microchip/harmony/v1_03/bin/framework/peripheral/PIC32MZ1024ECG064_peripherals.a(peripheral.o)
 .text.PLIB_TMR_IsPeriodMatchBased
                0x00000000       0xe0 /opt/microchip/harmony/v1_03/bin/framework/peripheral/PIC32MZ1024ECG064_peripherals.a(peripheral.o)
 .text.PLIB_TMR_ExistsTimerOperationMode
                0x00000000        0x8 /opt/microchip/harmony/v1_03/bin/framework/peripheral/PIC32MZ1024ECG064_peripherals.a(peripheral.o)
 .text.PLIB_USART_ExistsEnable
                0x00000000        0x8 /opt/microchip/harmony/v1_03/bin/framework/peripheral/PIC32MZ1024ECG064_peripherals.a(peripheral.o)
 .text.PLIB_USART_Disable
                0x00000000       0xb0 /opt/microchip/harmony/v1_03/bin/framework/peripheral/PIC32MZ1024ECG064_peripherals.a(peripheral.o)
 .text.PLIB_USART_BaudSetAndEnable
                0x00000000       0xa4 /opt/microchip/harmony/v1_03/bin/framework/peripheral/PIC32MZ1024ECG064_peripherals.a(peripheral.o)
 .text.PLIB_USART_ExistsHandshakeMode
                0x00000000        0x8 /opt/microchip/harmony/v1_03/bin/framework/peripheral/PIC32MZ1024ECG064_peripherals.a(peripheral.o)
 .text.PLIB_USART_ExistsIrDA
                0x00000000        0x8 /opt/microchip/harmony/v1_03/bin/framework/peripheral/PIC32MZ1024ECG064_peripherals.a(peripheral.o)
 .text.PLIB_USART_IrDADisable
                0x00000000       0xa4 /opt/microchip/harmony/v1_03/bin/framework/peripheral/PIC32MZ1024ECG064_peripherals.a(peripheral.o)
 .text.PLIB_USART_IrDAEnable
                0x00000000       0xa4 /opt/microchip/harmony/v1_03/bin/framework/peripheral/PIC32MZ1024ECG064_peripherals.a(peripheral.o)
 .text.PLIB_USART_ExistsLineControlMode
                0x00000000        0x8 /opt/microchip/harmony/v1_03/bin/framework/peripheral/PIC32MZ1024ECG064_peripherals.a(peripheral.o)
 .text.PLIB_USART_ExistsLoopback
                0x00000000        0x8 /opt/microchip/harmony/v1_03/bin/framework/peripheral/PIC32MZ1024ECG064_peripherals.a(peripheral.o)
 .text.PLIB_USART_LoopbackEnable
                0x00000000       0xb0 /opt/microchip/harmony/v1_03/bin/framework/peripheral/PIC32MZ1024ECG064_peripherals.a(peripheral.o)
 .text.PLIB_USART_LoopbackDisable
                0x00000000       0xb0 /opt/microchip/harmony/v1_03/bin/framework/peripheral/PIC32MZ1024ECG064_peripherals.a(peripheral.o)
 .text.PLIB_USART_ExistsOperationMode
                0x00000000        0x8 /opt/microchip/harmony/v1_03/bin/framework/peripheral/PIC32MZ1024ECG064_peripherals.a(peripheral.o)
 .text.PLIB_USART_ExistsStopInIdle
                0x00000000        0x8 /opt/microchip/harmony/v1_03/bin/framework/peripheral/PIC32MZ1024ECG064_peripherals.a(peripheral.o)
 .text.PLIB_USART_StopInIdleEnable
                0x00000000       0xb0 /opt/microchip/harmony/v1_03/bin/framework/peripheral/PIC32MZ1024ECG064_peripherals.a(peripheral.o)
 .text.PLIB_USART_StopInIdleDisable
                0x00000000       0xb0 /opt/microchip/harmony/v1_03/bin/framework/peripheral/PIC32MZ1024ECG064_peripherals.a(peripheral.o)
 .text.PLIB_USART_ExistsWakeOnStart
                0x00000000        0x8 /opt/microchip/harmony/v1_03/bin/framework/peripheral/PIC32MZ1024ECG064_peripherals.a(peripheral.o)
 .text.PLIB_USART_WakeOnStartEnable
                0x00000000       0xa4 /opt/microchip/harmony/v1_03/bin/framework/peripheral/PIC32MZ1024ECG064_peripherals.a(peripheral.o)
 .text.PLIB_USART_WakeOnStartDisable
                0x00000000       0xa4 /opt/microchip/harmony/v1_03/bin/framework/peripheral/PIC32MZ1024ECG064_peripherals.a(peripheral.o)
 .text.PLIB_USART_WakeOnStartIsEnabled
                0x00000000       0xb0 /opt/microchip/harmony/v1_03/bin/framework/peripheral/PIC32MZ1024ECG064_peripherals.a(peripheral.o)
 .text.PLIB_USART_InitializeModeGeneral
                0x00000000       0xe8 /opt/microchip/harmony/v1_03/bin/framework/peripheral/PIC32MZ1024ECG064_peripherals.a(peripheral.o)
 .text.PLIB_USART_ErrorsGet
                0x00000000       0xa4 /opt/microchip/harmony/v1_03/bin/framework/peripheral/PIC32MZ1024ECG064_peripherals.a(peripheral.o)
 .text.PLIB_USART_ExistsBaudRate
                0x00000000        0x8 /opt/microchip/harmony/v1_03/bin/framework/peripheral/PIC32MZ1024ECG064_peripherals.a(peripheral.o)
 .text.PLIB_USART_BaudRateGet
                0x00000000       0xb0 /opt/microchip/harmony/v1_03/bin/framework/peripheral/PIC32MZ1024ECG064_peripherals.a(peripheral.o)
 .text.PLIB_USART_ExistsBaudRateAutoDetect
                0x00000000        0x8 /opt/microchip/harmony/v1_03/bin/framework/peripheral/PIC32MZ1024ECG064_peripherals.a(peripheral.o)
 .text.PLIB_USART_BaudRateAutoDetectEnable
                0x00000000       0xb0 /opt/microchip/harmony/v1_03/bin/framework/peripheral/PIC32MZ1024ECG064_peripherals.a(peripheral.o)
 .text.PLIB_USART_BaudRateAutoDetectIsComplete
                0x00000000       0xa4 /opt/microchip/harmony/v1_03/bin/framework/peripheral/PIC32MZ1024ECG064_peripherals.a(peripheral.o)
 .text.PLIB_USART_ExistsBaudRateHigh
                0x00000000        0x8 /opt/microchip/harmony/v1_03/bin/framework/peripheral/PIC32MZ1024ECG064_peripherals.a(peripheral.o)
 .text.PLIB_USART_BaudRateHighSet
                0x00000000       0xa4 /opt/microchip/harmony/v1_03/bin/framework/peripheral/PIC32MZ1024ECG064_peripherals.a(peripheral.o)
 .text.PLIB_USART_BaudRateHighDisable
                0x00000000       0xb0 /opt/microchip/harmony/v1_03/bin/framework/peripheral/PIC32MZ1024ECG064_peripherals.a(peripheral.o)
 .text.PLIB_USART_BaudRateHighEnable
                0x00000000       0xb0 /opt/microchip/harmony/v1_03/bin/framework/peripheral/PIC32MZ1024ECG064_peripherals.a(peripheral.o)
 .text.PLIB_USART_ExistsReceiver
                0x00000000        0x8 /opt/microchip/harmony/v1_03/bin/framework/peripheral/PIC32MZ1024ECG064_peripherals.a(peripheral.o)
 .text.PLIB_USART_ReceiverByteReceive
                0x00000000       0xa4 /opt/microchip/harmony/v1_03/bin/framework/peripheral/PIC32MZ1024ECG064_peripherals.a(peripheral.o)
 .text.PLIB_USART_ReceiverAddressGet
                0x00000000       0x8c /opt/microchip/harmony/v1_03/bin/framework/peripheral/PIC32MZ1024ECG064_peripherals.a(peripheral.o)
 .text.PLIB_USART_ExistsReceiverAddressAutoDetect
                0x00000000        0x8 /opt/microchip/harmony/v1_03/bin/framework/peripheral/PIC32MZ1024ECG064_peripherals.a(peripheral.o)
 .text.PLIB_USART_ReceiverAddressAutoDetectEnable
                0x00000000       0xa8 /opt/microchip/harmony/v1_03/bin/framework/peripheral/PIC32MZ1024ECG064_peripherals.a(peripheral.o)
 .text.PLIB_USART_ReceiverAddressAutoDetectDisable
                0x00000000       0xb0 /opt/microchip/harmony/v1_03/bin/framework/peripheral/PIC32MZ1024ECG064_peripherals.a(peripheral.o)
 .text.PLIB_USART_ExistsReceiverAddressDetect
                0x00000000        0x8 /opt/microchip/harmony/v1_03/bin/framework/peripheral/PIC32MZ1024ECG064_peripherals.a(peripheral.o)
 .text.PLIB_USART_ReceiverAddressDetectEnable
                0x00000000       0xa4 /opt/microchip/harmony/v1_03/bin/framework/peripheral/PIC32MZ1024ECG064_peripherals.a(peripheral.o)
 .text.PLIB_USART_ReceiverAddressDetectDisable
                0x00000000       0xa4 /opt/microchip/harmony/v1_03/bin/framework/peripheral/PIC32MZ1024ECG064_peripherals.a(peripheral.o)
 .text.PLIB_USART_ReceiverAddressIsReceived
                0x00000000       0xb0 /opt/microchip/harmony/v1_03/bin/framework/peripheral/PIC32MZ1024ECG064_peripherals.a(peripheral.o)
 .text.PLIB_USART_ExistsReceiverDataAvailableStatus
                0x00000000        0x8 /opt/microchip/harmony/v1_03/bin/framework/peripheral/PIC32MZ1024ECG064_peripherals.a(peripheral.o)
 .text.PLIB_USART_ReceiverDataIsAvailable
                0x00000000       0xa4 /opt/microchip/harmony/v1_03/bin/framework/peripheral/PIC32MZ1024ECG064_peripherals.a(peripheral.o)
 .text.PLIB_USART_ExistsReceiverEnable
                0x00000000        0x8 /opt/microchip/harmony/v1_03/bin/framework/peripheral/PIC32MZ1024ECG064_peripherals.a(peripheral.o)
 .text.PLIB_USART_ReceiverDisable
                0x00000000       0xb0 /opt/microchip/harmony/v1_03/bin/framework/peripheral/PIC32MZ1024ECG064_peripherals.a(peripheral.o)
 .text.PLIB_USART_ExistsReceiverIdleStatus
                0x00000000        0x8 /opt/microchip/harmony/v1_03/bin/framework/peripheral/PIC32MZ1024ECG064_peripherals.a(peripheral.o)
 .text.PLIB_USART_ReceiverIsIdle
                0x00000000       0xa4 /opt/microchip/harmony/v1_03/bin/framework/peripheral/PIC32MZ1024ECG064_peripherals.a(peripheral.o)
 .text.PLIB_USART_ExistsReceiverFramingErrorStatus
                0x00000000        0x8 /opt/microchip/harmony/v1_03/bin/framework/peripheral/PIC32MZ1024ECG064_peripherals.a(peripheral.o)
 .text.PLIB_USART_ReceiverFramingErrorHasOccurred
                0x00000000       0xa4 /opt/microchip/harmony/v1_03/bin/framework/peripheral/PIC32MZ1024ECG064_peripherals.a(peripheral.o)
 .text.PLIB_USART_ExistsReceiverInterruptMode
                0x00000000        0x8 /opt/microchip/harmony/v1_03/bin/framework/peripheral/PIC32MZ1024ECG064_peripherals.a(peripheral.o)
 .text.PLIB_USART_InitializeOperation
                0x00000000       0xa4 /opt/microchip/harmony/v1_03/bin/framework/peripheral/PIC32MZ1024ECG064_peripherals.a(peripheral.o)
 .text.PLIB_USART_ExistsReceiverIdleStateLowEnable
                0x00000000        0x8 /opt/microchip/harmony/v1_03/bin/framework/peripheral/PIC32MZ1024ECG064_peripherals.a(peripheral.o)
 .text.PLIB_USART_ReceiverIdleStateLowEnable
                0x00000000       0xb0 /opt/microchip/harmony/v1_03/bin/framework/peripheral/PIC32MZ1024ECG064_peripherals.a(peripheral.o)
 .text.PLIB_USART_ReceiverIdleStateLowDisable
                0x00000000       0xb0 /opt/microchip/harmony/v1_03/bin/framework/peripheral/PIC32MZ1024ECG064_peripherals.a(peripheral.o)
 .text.PLIB_USART_ExistsReceiverParityErrorStatus
                0x00000000        0x8 /opt/microchip/harmony/v1_03/bin/framework/peripheral/PIC32MZ1024ECG064_peripherals.a(peripheral.o)
 .text.PLIB_USART_ReceiverParityErrorHasOccurred
                0x00000000       0xa4 /opt/microchip/harmony/v1_03/bin/framework/peripheral/PIC32MZ1024ECG064_peripherals.a(peripheral.o)
 .text.PLIB_USART_ExistsReceiverOverrunStatus
                0x00000000        0x8 /opt/microchip/harmony/v1_03/bin/framework/peripheral/PIC32MZ1024ECG064_peripherals.a(peripheral.o)
 .text.PLIB_USART_ReceiverOverrunErrorClear
                0x00000000       0xb0 /opt/microchip/harmony/v1_03/bin/framework/peripheral/PIC32MZ1024ECG064_peripherals.a(peripheral.o)
 .text.PLIB_USART_ReceiverOverrunHasOccurred
                0x00000000       0xa4 /opt/microchip/harmony/v1_03/bin/framework/peripheral/PIC32MZ1024ECG064_peripherals.a(peripheral.o)
 .text.PLIB_USART_ExistsTransmitter
                0x00000000        0x8 /opt/microchip/harmony/v1_03/bin/framework/peripheral/PIC32MZ1024ECG064_peripherals.a(peripheral.o)
 .text.PLIB_USART_TransmitterAddressGet
                0x00000000       0x8c /opt/microchip/harmony/v1_03/bin/framework/peripheral/PIC32MZ1024ECG064_peripherals.a(peripheral.o)
 .text.PLIB_USART_ExistsTransmitter9BitsSend
                0x00000000        0x8 /opt/microchip/harmony/v1_03/bin/framework/peripheral/PIC32MZ1024ECG064_peripherals.a(peripheral.o)
 .text.PLIB_USART_Transmitter9BitsSend
                0x00000000       0xac /opt/microchip/harmony/v1_03/bin/framework/peripheral/PIC32MZ1024ECG064_peripherals.a(peripheral.o)
 .text.PLIB_USART_ExistsTransmitterBreak
                0x00000000        0x8 /opt/microchip/harmony/v1_03/bin/framework/peripheral/PIC32MZ1024ECG064_peripherals.a(peripheral.o)
 .text.PLIB_USART_TransmitterBreakSend
                0x00000000       0xb0 /opt/microchip/harmony/v1_03/bin/framework/peripheral/PIC32MZ1024ECG064_peripherals.a(peripheral.o)
 .text.PLIB_USART_TransmitterBreakSendIsComplete
                0x00000000       0xa4 /opt/microchip/harmony/v1_03/bin/framework/peripheral/PIC32MZ1024ECG064_peripherals.a(peripheral.o)
 .text.PLIB_USART_ExistsTransmitterBufferFullStatus
                0x00000000        0x8 /opt/microchip/harmony/v1_03/bin/framework/peripheral/PIC32MZ1024ECG064_peripherals.a(peripheral.o)
 .text.PLIB_USART_TransmitterIsEmpty
                0x00000000       0xa4 /opt/microchip/harmony/v1_03/bin/framework/peripheral/PIC32MZ1024ECG064_peripherals.a(peripheral.o)
 .text.PLIB_USART_ExistsTransmitterEmptyStatus
                0x00000000        0x8 /opt/microchip/harmony/v1_03/bin/framework/peripheral/PIC32MZ1024ECG064_peripherals.a(peripheral.o)
 .text.PLIB_USART_ExistsTransmitterEnable
                0x00000000        0x8 /opt/microchip/harmony/v1_03/bin/framework/peripheral/PIC32MZ1024ECG064_peripherals.a(peripheral.o)
 .text.PLIB_USART_TransmitterDisable
                0x00000000       0xb0 /opt/microchip/harmony/v1_03/bin/framework/peripheral/PIC32MZ1024ECG064_peripherals.a(peripheral.o)
 .text.PLIB_USART_ExistsTransmitterInterruptMode
                0x00000000        0x8 /opt/microchip/harmony/v1_03/bin/framework/peripheral/PIC32MZ1024ECG064_peripherals.a(peripheral.o)
 .text.PLIB_USART_ExistsTransmitterIdleIsLow
                0x00000000        0x8 /opt/microchip/harmony/v1_03/bin/framework/peripheral/PIC32MZ1024ECG064_peripherals.a(peripheral.o)
 .text.PLIB_USART_TransmitterIdleIsLowDisable
                0x00000000       0xa4 /opt/microchip/harmony/v1_03/bin/framework/peripheral/PIC32MZ1024ECG064_peripherals.a(peripheral.o)
 .text.PLIB_USART_TransmitterIdleIsLowEnable
                0x00000000       0xa4 /opt/microchip/harmony/v1_03/bin/framework/peripheral/PIC32MZ1024ECG064_peripherals.a(peripheral.o)
 .text.PLIB_USB_OTG_InterruptFlagSet
                0x00000000        0x8 /opt/microchip/harmony/v1_03/bin/framework/peripheral/PIC32MZ1024ECG064_peripherals.a(peripheral.o)
 .text.PLIB_USB_OTG_InterruptFlagClear
                0x00000000        0x8 /opt/microchip/harmony/v1_03/bin/framework/peripheral/PIC32MZ1024ECG064_peripherals.a(peripheral.o)
 .text.PLIB_USB_OTG_InterruptFlagGet
                0x00000000        0x8 /opt/microchip/harmony/v1_03/bin/framework/peripheral/PIC32MZ1024ECG064_peripherals.a(peripheral.o)
 .text.PLIB_USB_ExistsOTG_InterruptStatus
                0x00000000        0x8 /opt/microchip/harmony/v1_03/bin/framework/peripheral/PIC32MZ1024ECG064_peripherals.a(peripheral.o)
 .text.PLIB_USB_OTG_InterruptEnable
                0x00000000        0x8 /opt/microchip/harmony/v1_03/bin/framework/peripheral/PIC32MZ1024ECG064_peripherals.a(peripheral.o)
 .text.PLIB_USB_OTG_InterruptDisable
                0x00000000        0x8 /opt/microchip/harmony/v1_03/bin/framework/peripheral/PIC32MZ1024ECG064_peripherals.a(peripheral.o)
 .text.PLIB_USB_OTG_InterruptIsEnabled
                0x00000000        0x8 /opt/microchip/harmony/v1_03/bin/framework/peripheral/PIC32MZ1024ECG064_peripherals.a(peripheral.o)
 .text.PLIB_USB_ExistsOTG_Interrupt
                0x00000000        0x8 /opt/microchip/harmony/v1_03/bin/framework/peripheral/PIC32MZ1024ECG064_peripherals.a(peripheral.o)
 .text.PLIB_USB_OTG_IDPinStateIsTypeA
                0x00000000        0x8 /opt/microchip/harmony/v1_03/bin/framework/peripheral/PIC32MZ1024ECG064_peripherals.a(peripheral.o)
 .text.PLIB_USB_ExistsOTG_IDPinState
                0x00000000        0x8 /opt/microchip/harmony/v1_03/bin/framework/peripheral/PIC32MZ1024ECG064_peripherals.a(peripheral.o)
 .text.PLIB_USB_OTG_LineStateIsStable
                0x00000000        0x8 /opt/microchip/harmony/v1_03/bin/framework/peripheral/PIC32MZ1024ECG064_peripherals.a(peripheral.o)
 .text.PLIB_USB_ExistsOTG_LineState
                0x00000000        0x8 /opt/microchip/harmony/v1_03/bin/framework/peripheral/PIC32MZ1024ECG064_peripherals.a(peripheral.o)
 .text.PLIB_USB_OTG_SessionValid
                0x00000000        0x8 /opt/microchip/harmony/v1_03/bin/framework/peripheral/PIC32MZ1024ECG064_peripherals.a(peripheral.o)
 .text.PLIB_USB_ExistsOTG_SessionValid
                0x00000000        0x8 /opt/microchip/harmony/v1_03/bin/framework/peripheral/PIC32MZ1024ECG064_peripherals.a(peripheral.o)
 .text.PLIB_USB_OTG_BSessionHasEnded
                0x00000000        0x8 /opt/microchip/harmony/v1_03/bin/framework/peripheral/PIC32MZ1024ECG064_peripherals.a(peripheral.o)
 .text.PLIB_USB_ExistsOTG_BSessionEnd
                0x00000000        0x8 /opt/microchip/harmony/v1_03/bin/framework/peripheral/PIC32MZ1024ECG064_peripherals.a(peripheral.o)
 .text.PLIB_USB_OTG_VBusValid
                0x00000000        0x8 /opt/microchip/harmony/v1_03/bin/framework/peripheral/PIC32MZ1024ECG064_peripherals.a(peripheral.o)
 .text.PLIB_USB_ExistsOTG_ASessionValid
                0x00000000        0x8 /opt/microchip/harmony/v1_03/bin/framework/peripheral/PIC32MZ1024ECG064_peripherals.a(peripheral.o)
 .text.PLIB_USB_OTG_PullUpPullDownSetup
                0x00000000        0x8 /opt/microchip/harmony/v1_03/bin/framework/peripheral/PIC32MZ1024ECG064_peripherals.a(peripheral.o)
 .text.PLIB_USB_ExistsOTG_PullUpPullDown
                0x00000000        0x8 /opt/microchip/harmony/v1_03/bin/framework/peripheral/PIC32MZ1024ECG064_peripherals.a(peripheral.o)
 .text.PLIB_USB_OTG_VBusPowerOff
                0x00000000        0x8 /opt/microchip/harmony/v1_03/bin/framework/peripheral/PIC32MZ1024ECG064_peripherals.a(peripheral.o)
 .text.PLIB_USB_OTG_VBusPowerOn
                0x00000000        0x8 /opt/microchip/harmony/v1_03/bin/framework/peripheral/PIC32MZ1024ECG064_peripherals.a(peripheral.o)
 .text.PLIB_USB_ExistsOTG_VbusPowerOnOff
                0x00000000        0x8 /opt/microchip/harmony/v1_03/bin/framework/peripheral/PIC32MZ1024ECG064_peripherals.a(peripheral.o)
 .text.PLIB_USB_OTG_VBusChargeEnable
                0x00000000        0x8 /opt/microchip/harmony/v1_03/bin/framework/peripheral/PIC32MZ1024ECG064_peripherals.a(peripheral.o)
 .text.PLIB_USB_OTG_VBusChargeDisable
                0x00000000        0x8 /opt/microchip/harmony/v1_03/bin/framework/peripheral/PIC32MZ1024ECG064_peripherals.a(peripheral.o)
 .text.PLIB_USB_ExistsOTG_VbusCharge
                0x00000000        0x8 /opt/microchip/harmony/v1_03/bin/framework/peripheral/PIC32MZ1024ECG064_peripherals.a(peripheral.o)
 .text.PLIB_USB_OTG_VBusDischargeEnable
                0x00000000        0x8 /opt/microchip/harmony/v1_03/bin/framework/peripheral/PIC32MZ1024ECG064_peripherals.a(peripheral.o)
 .text.PLIB_USB_OTG_VBusDischargeDisable
                0x00000000        0x8 /opt/microchip/harmony/v1_03/bin/framework/peripheral/PIC32MZ1024ECG064_peripherals.a(peripheral.o)
 .text.PLIB_USB_ExistsOTG_VbusDischarge
                0x00000000        0x8 /opt/microchip/harmony/v1_03/bin/framework/peripheral/PIC32MZ1024ECG064_peripherals.a(peripheral.o)
 .text.PLIB_USB_ActivityPending
                0x00000000        0x8 /opt/microchip/harmony/v1_03/bin/framework/peripheral/PIC32MZ1024ECG064_peripherals.a(peripheral.o)
 .text.PLIB_USB_ExistsActivityPending
                0x00000000        0x8 /opt/microchip/harmony/v1_03/bin/framework/peripheral/PIC32MZ1024ECG064_peripherals.a(peripheral.o)
 .text.PLIB_USB_SleepGuardEnable
                0x00000000        0x8 /opt/microchip/harmony/v1_03/bin/framework/peripheral/PIC32MZ1024ECG064_peripherals.a(peripheral.o)
 .text.PLIB_USB_SleepGuardDisable
                0x00000000        0x8 /opt/microchip/harmony/v1_03/bin/framework/peripheral/PIC32MZ1024ECG064_peripherals.a(peripheral.o)
 .text.PLIB_USB_ExistsSleepEntryGuard
                0x00000000        0x8 /opt/microchip/harmony/v1_03/bin/framework/peripheral/PIC32MZ1024ECG064_peripherals.a(peripheral.o)
 .text.PLIB_USB_ModuleIsBusy
                0x00000000        0x8 /opt/microchip/harmony/v1_03/bin/framework/peripheral/PIC32MZ1024ECG064_peripherals.a(peripheral.o)
 .text.PLIB_USB_ExistsModuleBusy
                0x00000000        0x8 /opt/microchip/harmony/v1_03/bin/framework/peripheral/PIC32MZ1024ECG064_peripherals.a(peripheral.o)
 .text.PLIB_USB_SuspendEnable
                0x00000000        0x8 /opt/microchip/harmony/v1_03/bin/framework/peripheral/PIC32MZ1024ECG064_peripherals.a(peripheral.o)
 .text.PLIB_USB_SuspendDisable
                0x00000000        0x8 /opt/microchip/harmony/v1_03/bin/framework/peripheral/PIC32MZ1024ECG064_peripherals.a(peripheral.o)
 .text.PLIB_USB_ExistsSuspend
                0x00000000        0x8 /opt/microchip/harmony/v1_03/bin/framework/peripheral/PIC32MZ1024ECG064_peripherals.a(peripheral.o)
 .text.PLIB_USB_Enable
                0x00000000        0x8 /opt/microchip/harmony/v1_03/bin/framework/peripheral/PIC32MZ1024ECG064_peripherals.a(peripheral.o)
 .text.PLIB_USB_Disable
                0x00000000        0x8 /opt/microchip/harmony/v1_03/bin/framework/peripheral/PIC32MZ1024ECG064_peripherals.a(peripheral.o)
 .text.PLIB_USB_ExistsModulePower
                0x00000000        0x8 /opt/microchip/harmony/v1_03/bin/framework/peripheral/PIC32MZ1024ECG064_peripherals.a(peripheral.o)
 .text.PLIB_USB_InterruptFlagSet
                0x00000000        0x8 /opt/microchip/harmony/v1_03/bin/framework/peripheral/PIC32MZ1024ECG064_peripherals.a(peripheral.o)
 .text.PLIB_USB_InterruptFlagClear
                0x00000000        0x8 /opt/microchip/harmony/v1_03/bin/framework/peripheral/PIC32MZ1024ECG064_peripherals.a(peripheral.o)
 .text.PLIB_USB_InterruptFlagGet
                0x00000000        0x8 /opt/microchip/harmony/v1_03/bin/framework/peripheral/PIC32MZ1024ECG064_peripherals.a(peripheral.o)
 .text.PLIB_USB_InterruptFlagAllGet
                0x00000000        0x8 /opt/microchip/harmony/v1_03/bin/framework/peripheral/PIC32MZ1024ECG064_peripherals.a(peripheral.o)
 .text.PLIB_USB_ExistsGEN_InterruptStatus
                0x00000000        0x8 /opt/microchip/harmony/v1_03/bin/framework/peripheral/PIC32MZ1024ECG064_peripherals.a(peripheral.o)
 .text.PLIB_USB_InterruptEnable
                0x00000000        0x8 /opt/microchip/harmony/v1_03/bin/framework/peripheral/PIC32MZ1024ECG064_peripherals.a(peripheral.o)
 .text.PLIB_USB_InterruptDisable
                0x00000000        0x8 /opt/microchip/harmony/v1_03/bin/framework/peripheral/PIC32MZ1024ECG064_peripherals.a(peripheral.o)
 .text.PLIB_USB_InterruptIsEnabled
                0x00000000        0x8 /opt/microchip/harmony/v1_03/bin/framework/peripheral/PIC32MZ1024ECG064_peripherals.a(peripheral.o)
 .text.PLIB_USB_ExistsGEN_Interrupt
                0x00000000        0x8 /opt/microchip/harmony/v1_03/bin/framework/peripheral/PIC32MZ1024ECG064_peripherals.a(peripheral.o)
 .text.PLIB_USB_AllInterruptEnable
                0x00000000        0x8 /opt/microchip/harmony/v1_03/bin/framework/peripheral/PIC32MZ1024ECG064_peripherals.a(peripheral.o)
 .text.PLIB_USB_InterruptEnableGet
                0x00000000        0x8 /opt/microchip/harmony/v1_03/bin/framework/peripheral/PIC32MZ1024ECG064_peripherals.a(peripheral.o)
 .text.PLIB_USB_ExistsALL_Interrupt
                0x00000000        0x8 /opt/microchip/harmony/v1_03/bin/framework/peripheral/PIC32MZ1024ECG064_peripherals.a(peripheral.o)
 .text.PLIB_USB_ErrorInterruptFlagSet
                0x00000000        0x8 /opt/microchip/harmony/v1_03/bin/framework/peripheral/PIC32MZ1024ECG064_peripherals.a(peripheral.o)
 .text.PLIB_USB_ErrorInterruptFlagClear
                0x00000000        0x8 /opt/microchip/harmony/v1_03/bin/framework/peripheral/PIC32MZ1024ECG064_peripherals.a(peripheral.o)
 .text.PLIB_USB_ErrorInterruptFlagGet
                0x00000000        0x8 /opt/microchip/harmony/v1_03/bin/framework/peripheral/PIC32MZ1024ECG064_peripherals.a(peripheral.o)
 .text.PLIB_USB_ErrorInterruptFlagAllGet
                0x00000000        0x8 /opt/microchip/harmony/v1_03/bin/framework/peripheral/PIC32MZ1024ECG064_peripherals.a(peripheral.o)
 .text.PLIB_USB_ExistsERR_InterruptStatus
                0x00000000        0x8 /opt/microchip/harmony/v1_03/bin/framework/peripheral/PIC32MZ1024ECG064_peripherals.a(peripheral.o)
 .text.PLIB_USB_ErrorInterruptEnable
                0x00000000        0x8 /opt/microchip/harmony/v1_03/bin/framework/peripheral/PIC32MZ1024ECG064_peripherals.a(peripheral.o)
 .text.PLIB_USB_ErrorInterruptDisable
                0x00000000        0x8 /opt/microchip/harmony/v1_03/bin/framework/peripheral/PIC32MZ1024ECG064_peripherals.a(peripheral.o)
 .text.PLIB_USB_ErrorInterruptIsEnabled
                0x00000000        0x8 /opt/microchip/harmony/v1_03/bin/framework/peripheral/PIC32MZ1024ECG064_peripherals.a(peripheral.o)
 .text.PLIB_USB_ExistsERR_Interrupt
                0x00000000        0x8 /opt/microchip/harmony/v1_03/bin/framework/peripheral/PIC32MZ1024ECG064_peripherals.a(peripheral.o)
 .text.PLIB_USB_LastTransactionEndPtGet
                0x00000000        0x8 /opt/microchip/harmony/v1_03/bin/framework/peripheral/PIC32MZ1024ECG064_peripherals.a(peripheral.o)
 .text.PLIB_USB_ExistsLastEndpoint
                0x00000000        0x8 /opt/microchip/harmony/v1_03/bin/framework/peripheral/PIC32MZ1024ECG064_peripherals.a(peripheral.o)
 .text.PLIB_USB_LastTransactionDirectionGet
                0x00000000        0x8 /opt/microchip/harmony/v1_03/bin/framework/peripheral/PIC32MZ1024ECG064_peripherals.a(peripheral.o)
 .text.PLIB_USB_ExistsLastDirection
                0x00000000        0x8 /opt/microchip/harmony/v1_03/bin/framework/peripheral/PIC32MZ1024ECG064_peripherals.a(peripheral.o)
 .text.PLIB_USB_LastTransactionPingPongStateGet
                0x00000000        0x8 /opt/microchip/harmony/v1_03/bin/framework/peripheral/PIC32MZ1024ECG064_peripherals.a(peripheral.o)
 .text.PLIB_USB_ExistsLastPingPong
                0x00000000        0x8 /opt/microchip/harmony/v1_03/bin/framework/peripheral/PIC32MZ1024ECG064_peripherals.a(peripheral.o)
 .text.PLIB_USB_LastTransactionDetailsGet
                0x00000000        0x8 /opt/microchip/harmony/v1_03/bin/framework/peripheral/PIC32MZ1024ECG064_peripherals.a(peripheral.o)
 .text.PLIB_USB_ExistsLastTransactionDetails
                0x00000000        0x8 /opt/microchip/harmony/v1_03/bin/framework/peripheral/PIC32MZ1024ECG064_peripherals.a(peripheral.o)
 .text.PLIB_USB_JStateIsActive
                0x00000000        0x8 /opt/microchip/harmony/v1_03/bin/framework/peripheral/PIC32MZ1024ECG064_peripherals.a(peripheral.o)
 .text.PLIB_USB_ExistsLiveJState
                0x00000000        0x8 /opt/microchip/harmony/v1_03/bin/framework/peripheral/PIC32MZ1024ECG064_peripherals.a(peripheral.o)
 .text.PLIB_USB_SE0InProgress
                0x00000000        0x8 /opt/microchip/harmony/v1_03/bin/framework/peripheral/PIC32MZ1024ECG064_peripherals.a(peripheral.o)
 .text.PLIB_USB_ExistsLiveSingleEndedZero
                0x00000000        0x8 /opt/microchip/harmony/v1_03/bin/framework/peripheral/PIC32MZ1024ECG064_peripherals.a(peripheral.o)
 .text.PLIB_USB_PacketTransferIsDisabled
                0x00000000        0x8 /opt/microchip/harmony/v1_03/bin/framework/peripheral/PIC32MZ1024ECG064_peripherals.a(peripheral.o)
 .text.PLIB_USB_PacketTransferEnable
                0x00000000        0x8 /opt/microchip/harmony/v1_03/bin/framework/peripheral/PIC32MZ1024ECG064_peripherals.a(peripheral.o)
 .text.PLIB_USB_PacketTransferDisable
                0x00000000        0x8 /opt/microchip/harmony/v1_03/bin/framework/peripheral/PIC32MZ1024ECG064_peripherals.a(peripheral.o)
 .text.PLIB_USB_ExistsPacketTransfer
                0x00000000        0x8 /opt/microchip/harmony/v1_03/bin/framework/peripheral/PIC32MZ1024ECG064_peripherals.a(peripheral.o)
 .text.PLIB_USB_IsBusyWithToken
                0x00000000        0x8 /opt/microchip/harmony/v1_03/bin/framework/peripheral/PIC32MZ1024ECG064_peripherals.a(peripheral.o)
 .text.PLIB_USB_ExistsHostBusyWithToken
                0x00000000        0x8 /opt/microchip/harmony/v1_03/bin/framework/peripheral/PIC32MZ1024ECG064_peripherals.a(peripheral.o)
 .text.PLIB_USB_ResetSignalEnable
                0x00000000        0x8 /opt/microchip/harmony/v1_03/bin/framework/peripheral/PIC32MZ1024ECG064_peripherals.a(peripheral.o)
 .text.PLIB_USB_ResetSignalDisable
                0x00000000        0x8 /opt/microchip/harmony/v1_03/bin/framework/peripheral/PIC32MZ1024ECG064_peripherals.a(peripheral.o)
 .text.PLIB_USB_ExistsHostGeneratesReset
                0x00000000        0x8 /opt/microchip/harmony/v1_03/bin/framework/peripheral/PIC32MZ1024ECG064_peripherals.a(peripheral.o)
 .text.PLIB_USB_OperatingModeSelect
                0x00000000        0x8 /opt/microchip/harmony/v1_03/bin/framework/peripheral/PIC32MZ1024ECG064_peripherals.a(peripheral.o)
 .text.PLIB_USB_ExistsOpModeSelect
                0x00000000        0x8 /opt/microchip/harmony/v1_03/bin/framework/peripheral/PIC32MZ1024ECG064_peripherals.a(peripheral.o)
 .text.PLIB_USB_ResumeSignalingEnable
                0x00000000        0x8 /opt/microchip/harmony/v1_03/bin/framework/peripheral/PIC32MZ1024ECG064_peripherals.a(peripheral.o)
 .text.PLIB_USB_ResumeSignalingDisable
                0x00000000        0x8 /opt/microchip/harmony/v1_03/bin/framework/peripheral/PIC32MZ1024ECG064_peripherals.a(peripheral.o)
 .text.PLIB_USB_ExistsResumeSignaling
                0x00000000        0x8 /opt/microchip/harmony/v1_03/bin/framework/peripheral/PIC32MZ1024ECG064_peripherals.a(peripheral.o)
 .text.PLIB_USB_PingPongFreeze
                0x00000000        0x8 /opt/microchip/harmony/v1_03/bin/framework/peripheral/PIC32MZ1024ECG064_peripherals.a(peripheral.o)
 .text.PLIB_USB_PingPongUnfreeze
                0x00000000        0x8 /opt/microchip/harmony/v1_03/bin/framework/peripheral/PIC32MZ1024ECG064_peripherals.a(peripheral.o)
 .text.PLIB_USB_PingPongReset
                0x00000000        0x8 /opt/microchip/harmony/v1_03/bin/framework/peripheral/PIC32MZ1024ECG064_peripherals.a(peripheral.o)
 .text.PLIB_USB_ExistsBufferFreeze
                0x00000000        0x8 /opt/microchip/harmony/v1_03/bin/framework/peripheral/PIC32MZ1024ECG064_peripherals.a(peripheral.o)
 .text.PLIB_USB_SOFEnable
                0x00000000        0x8 /opt/microchip/harmony/v1_03/bin/framework/peripheral/PIC32MZ1024ECG064_peripherals.a(peripheral.o)
 .text.PLIB_USB_SOFDisable
                0x00000000        0x8 /opt/microchip/harmony/v1_03/bin/framework/peripheral/PIC32MZ1024ECG064_peripherals.a(peripheral.o)
 .text.PLIB_USB_ExistsStartOfFrames
                0x00000000        0x8 /opt/microchip/harmony/v1_03/bin/framework/peripheral/PIC32MZ1024ECG064_peripherals.a(peripheral.o)
 .text.PLIB_USB_TokenSpeedSelect
                0x00000000        0x8 /opt/microchip/harmony/v1_03/bin/framework/peripheral/PIC32MZ1024ECG064_peripherals.a(peripheral.o)
 .text.PLIB_USB_ExistsNextTokenSpeed
                0x00000000        0x8 /opt/microchip/harmony/v1_03/bin/framework/peripheral/PIC32MZ1024ECG064_peripherals.a(peripheral.o)
 .text.PLIB_USB_DeviceAddressSet
                0x00000000        0x8 /opt/microchip/harmony/v1_03/bin/framework/peripheral/PIC32MZ1024ECG064_peripherals.a(peripheral.o)
 .text.PLIB_USB_DeviceAddressGet
                0x00000000        0x8 /opt/microchip/harmony/v1_03/bin/framework/peripheral/PIC32MZ1024ECG064_peripherals.a(peripheral.o)
 .text.PLIB_USB_ExistsDeviceAddress
                0x00000000        0x8 /opt/microchip/harmony/v1_03/bin/framework/peripheral/PIC32MZ1024ECG064_peripherals.a(peripheral.o)
 .text.PLIB_USB_FrameNumberGet
                0x00000000        0x8 /opt/microchip/harmony/v1_03/bin/framework/peripheral/PIC32MZ1024ECG064_peripherals.a(peripheral.o)
 .text.PLIB_USB_ExistsFrameNumber
                0x00000000        0x8 /opt/microchip/harmony/v1_03/bin/framework/peripheral/PIC32MZ1024ECG064_peripherals.a(peripheral.o)
 .text.PLIB_USB_TokenPIDGet
                0x00000000        0x8 /opt/microchip/harmony/v1_03/bin/framework/peripheral/PIC32MZ1024ECG064_peripherals.a(peripheral.o)
 .text.PLIB_USB_TokenPIDSet
                0x00000000        0x8 /opt/microchip/harmony/v1_03/bin/framework/peripheral/PIC32MZ1024ECG064_peripherals.a(peripheral.o)
 .text.PLIB_USB_TokenSend
                0x00000000        0x8 /opt/microchip/harmony/v1_03/bin/framework/peripheral/PIC32MZ1024ECG064_peripherals.a(peripheral.o)
 .text.PLIB_USB_ExistsTokenPID
                0x00000000        0x8 /opt/microchip/harmony/v1_03/bin/framework/peripheral/PIC32MZ1024ECG064_peripherals.a(peripheral.o)
 .text.PLIB_USB_TokenEPGet
                0x00000000        0x8 /opt/microchip/harmony/v1_03/bin/framework/peripheral/PIC32MZ1024ECG064_peripherals.a(peripheral.o)
 .text.PLIB_USB_TokenEPSet
                0x00000000        0x8 /opt/microchip/harmony/v1_03/bin/framework/peripheral/PIC32MZ1024ECG064_peripherals.a(peripheral.o)
 .text.PLIB_USB_ExistsTokenEP
                0x00000000        0x8 /opt/microchip/harmony/v1_03/bin/framework/peripheral/PIC32MZ1024ECG064_peripherals.a(peripheral.o)
 .text.PLIB_USB_SOFThresholdGet
                0x00000000        0x8 /opt/microchip/harmony/v1_03/bin/framework/peripheral/PIC32MZ1024ECG064_peripherals.a(peripheral.o)
 .text.PLIB_USB_SOFThresholdSet
                0x00000000        0x8 /opt/microchip/harmony/v1_03/bin/framework/peripheral/PIC32MZ1024ECG064_peripherals.a(peripheral.o)
 .text.PLIB_USB_ExistsSOFThreshold
                0x00000000        0x8 /opt/microchip/harmony/v1_03/bin/framework/peripheral/PIC32MZ1024ECG064_peripherals.a(peripheral.o)
 .text.PLIB_USB_BDTBaseAddressGet
                0x00000000        0x8 /opt/microchip/harmony/v1_03/bin/framework/peripheral/PIC32MZ1024ECG064_peripherals.a(peripheral.o)
 .text.PLIB_USB_BDTBaseAddressSet
                0x00000000        0x8 /opt/microchip/harmony/v1_03/bin/framework/peripheral/PIC32MZ1024ECG064_peripherals.a(peripheral.o)
 .text.PLIB_USB_ExistsBDTBaseAddress
                0x00000000        0x8 /opt/microchip/harmony/v1_03/bin/framework/peripheral/PIC32MZ1024ECG064_peripherals.a(peripheral.o)
 .text.PLIB_USB_EyePatternDisable
                0x00000000        0x8 /opt/microchip/harmony/v1_03/bin/framework/peripheral/PIC32MZ1024ECG064_peripherals.a(peripheral.o)
 .text.PLIB_USB_EyePatternEnable
                0x00000000        0x8 /opt/microchip/harmony/v1_03/bin/framework/peripheral/PIC32MZ1024ECG064_peripherals.a(peripheral.o)
 .text.PLIB_USB_ExistsEyePattern
                0x00000000        0x8 /opt/microchip/harmony/v1_03/bin/framework/peripheral/PIC32MZ1024ECG064_peripherals.a(peripheral.o)
 .text.PLIB_USB_StopInIdleEnable
                0x00000000        0x8 /opt/microchip/harmony/v1_03/bin/framework/peripheral/PIC32MZ1024ECG064_peripherals.a(peripheral.o)
 .text.PLIB_USB_StopInIdleDisable
                0x00000000        0x8 /opt/microchip/harmony/v1_03/bin/framework/peripheral/PIC32MZ1024ECG064_peripherals.a(peripheral.o)
 .text.PLIB_USB_ExistsStopInIdle
                0x00000000        0x8 /opt/microchip/harmony/v1_03/bin/framework/peripheral/PIC32MZ1024ECG064_peripherals.a(peripheral.o)
 .text.PLIB_USB_AutoSuspendDisable
                0x00000000        0x8 /opt/microchip/harmony/v1_03/bin/framework/peripheral/PIC32MZ1024ECG064_peripherals.a(peripheral.o)
 .text.PLIB_USB_AutoSuspendEnable
                0x00000000        0x8 /opt/microchip/harmony/v1_03/bin/framework/peripheral/PIC32MZ1024ECG064_peripherals.a(peripheral.o)
 .text.PLIB_USB_ExistsAutomaticSuspend
                0x00000000        0x8 /opt/microchip/harmony/v1_03/bin/framework/peripheral/PIC32MZ1024ECG064_peripherals.a(peripheral.o)
 .text.PLIB_USB_PingPongModeSelect
                0x00000000        0x8 /opt/microchip/harmony/v1_03/bin/framework/peripheral/PIC32MZ1024ECG064_peripherals.a(peripheral.o)
 .text.PLIB_USB_PingPongModeGet
                0x00000000        0x8 /opt/microchip/harmony/v1_03/bin/framework/peripheral/PIC32MZ1024ECG064_peripherals.a(peripheral.o)
 .text.PLIB_USB_ExistsPingPongMode
                0x00000000        0x8 /opt/microchip/harmony/v1_03/bin/framework/peripheral/PIC32MZ1024ECG064_peripherals.a(peripheral.o)
 .text.PLIB_USB_UOEMonitorEnable
                0x00000000        0x8 /opt/microchip/harmony/v1_03/bin/framework/peripheral/PIC32MZ1024ECG064_peripherals.a(peripheral.o)
 .text.PLIB_USB_UOEMonitorDisable
                0x00000000        0x8 /opt/microchip/harmony/v1_03/bin/framework/peripheral/PIC32MZ1024ECG064_peripherals.a(peripheral.o)
 .text.PLIB_USB_ExistsUOEMonitor
                0x00000000        0x8 /opt/microchip/harmony/v1_03/bin/framework/peripheral/PIC32MZ1024ECG064_peripherals.a(peripheral.o)
 .text.PLIB_USB_OnChipPullUpEnable
                0x00000000        0x8 /opt/microchip/harmony/v1_03/bin/framework/peripheral/PIC32MZ1024ECG064_peripherals.a(peripheral.o)
 .text.PLIB_USB_OnChipPullUpDisable
                0x00000000        0x8 /opt/microchip/harmony/v1_03/bin/framework/peripheral/PIC32MZ1024ECG064_peripherals.a(peripheral.o)
 .text.PLIB_USB_ExistsOnChipPullup
                0x00000000        0x8 /opt/microchip/harmony/v1_03/bin/framework/peripheral/PIC32MZ1024ECG064_peripherals.a(peripheral.o)
 .text.PLIB_USB_TransceiverEnable
                0x00000000        0x8 /opt/microchip/harmony/v1_03/bin/framework/peripheral/PIC32MZ1024ECG064_peripherals.a(peripheral.o)
 .text.PLIB_USB_TransceiverDisable
                0x00000000        0x8 /opt/microchip/harmony/v1_03/bin/framework/peripheral/PIC32MZ1024ECG064_peripherals.a(peripheral.o)
 .text.PLIB_USB_ExistsOnChipTransceiver
                0x00000000        0x8 /opt/microchip/harmony/v1_03/bin/framework/peripheral/PIC32MZ1024ECG064_peripherals.a(peripheral.o)
 .text.PLIB_USB_FullSpeedEnable
                0x00000000        0x8 /opt/microchip/harmony/v1_03/bin/framework/peripheral/PIC32MZ1024ECG064_peripherals.a(peripheral.o)
 .text.PLIB_USB_FullSpeedDisable
                0x00000000        0x8 /opt/microchip/harmony/v1_03/bin/framework/peripheral/PIC32MZ1024ECG064_peripherals.a(peripheral.o)
 .text.PLIB_USB_ExistsSpeedControl
                0x00000000        0x8 /opt/microchip/harmony/v1_03/bin/framework/peripheral/PIC32MZ1024ECG064_peripherals.a(peripheral.o)
 .text.PLIB_USB_EP0LSDirectConnectEnable
                0x00000000        0x8 /opt/microchip/harmony/v1_03/bin/framework/peripheral/PIC32MZ1024ECG064_peripherals.a(peripheral.o)
 .text.PLIB_USB_EP0LSDirectConnectDisable
                0x00000000        0x8 /opt/microchip/harmony/v1_03/bin/framework/peripheral/PIC32MZ1024ECG064_peripherals.a(peripheral.o)
 .text.PLIB_USB_ExistsEP0LowSpeedConnect
                0x00000000        0x8 /opt/microchip/harmony/v1_03/bin/framework/peripheral/PIC32MZ1024ECG064_peripherals.a(peripheral.o)
 .text.PLIB_USB_EP0NakRetryEnable
                0x00000000        0x8 /opt/microchip/harmony/v1_03/bin/framework/peripheral/PIC32MZ1024ECG064_peripherals.a(peripheral.o)
 .text.PLIB_USB_EP0NakRetryDisable
                0x00000000        0x8 /opt/microchip/harmony/v1_03/bin/framework/peripheral/PIC32MZ1024ECG064_peripherals.a(peripheral.o)
 .text.PLIB_USB_ExistsEP0NAKRetry
                0x00000000        0x8 /opt/microchip/harmony/v1_03/bin/framework/peripheral/PIC32MZ1024ECG064_peripherals.a(peripheral.o)
 .text.PLIB_USB_EPnTxSelect
                0x00000000        0x8 /opt/microchip/harmony/v1_03/bin/framework/peripheral/PIC32MZ1024ECG064_peripherals.a(peripheral.o)
 .text.PLIB_USB_EPnRxSelect
                0x00000000        0x8 /opt/microchip/harmony/v1_03/bin/framework/peripheral/PIC32MZ1024ECG064_peripherals.a(peripheral.o)
 .text.PLIB_USB_EPnTxRxSelect
                0x00000000        0x8 /opt/microchip/harmony/v1_03/bin/framework/peripheral/PIC32MZ1024ECG064_peripherals.a(peripheral.o)
 .text.PLIB_USB_ExistsEPnTxRx
                0x00000000        0x8 /opt/microchip/harmony/v1_03/bin/framework/peripheral/PIC32MZ1024ECG064_peripherals.a(peripheral.o)
 .text.PLIB_USB_EPnRxEnable
                0x00000000        0x8 /opt/microchip/harmony/v1_03/bin/framework/peripheral/PIC32MZ1024ECG064_peripherals.a(peripheral.o)
 .text.PLIB_USB_EPnRxDisable
                0x00000000        0x8 /opt/microchip/harmony/v1_03/bin/framework/peripheral/PIC32MZ1024ECG064_peripherals.a(peripheral.o)
 .text.PLIB_USB_EPnTxEnable
                0x00000000        0x8 /opt/microchip/harmony/v1_03/bin/framework/peripheral/PIC32MZ1024ECG064_peripherals.a(peripheral.o)
 .text.PLIB_USB_EPnTxDisable
                0x00000000        0x8 /opt/microchip/harmony/v1_03/bin/framework/peripheral/PIC32MZ1024ECG064_peripherals.a(peripheral.o)
 .text.PLIB_USB_EPnHandshakeEnable
                0x00000000        0x8 /opt/microchip/harmony/v1_03/bin/framework/peripheral/PIC32MZ1024ECG064_peripherals.a(peripheral.o)
 .text.PLIB_USB_EPnHandshakeDisable
                0x00000000        0x8 /opt/microchip/harmony/v1_03/bin/framework/peripheral/PIC32MZ1024ECG064_peripherals.a(peripheral.o)
 .text.PLIB_USB_EPnControlTransferEnable
                0x00000000        0x8 /opt/microchip/harmony/v1_03/bin/framework/peripheral/PIC32MZ1024ECG064_peripherals.a(peripheral.o)
 .text.PLIB_USB_EPnControlTransferDisable
                0x00000000        0x8 /opt/microchip/harmony/v1_03/bin/framework/peripheral/PIC32MZ1024ECG064_peripherals.a(peripheral.o)
 .text.PLIB_USB_EPnAttributesSet
                0x00000000        0x8 /opt/microchip/harmony/v1_03/bin/framework/peripheral/PIC32MZ1024ECG064_peripherals.a(peripheral.o)
 .text.PLIB_USB_EPnDirectionDisable
                0x00000000        0x8 /opt/microchip/harmony/v1_03/bin/framework/peripheral/PIC32MZ1024ECG064_peripherals.a(peripheral.o)
 .text.PLIB_USB_EPnAttributesClear
                0x00000000        0x8 /opt/microchip/harmony/v1_03/bin/framework/peripheral/PIC32MZ1024ECG064_peripherals.a(peripheral.o)
 .text.PLIB_USB_EPnIsStalled
                0x00000000        0x8 /opt/microchip/harmony/v1_03/bin/framework/peripheral/PIC32MZ1024ECG064_peripherals.a(peripheral.o)
 .text.PLIB_USB_EPnStallClear
                0x00000000        0x8 /opt/microchip/harmony/v1_03/bin/framework/peripheral/PIC32MZ1024ECG064_peripherals.a(peripheral.o)
 .text.PLIB_USB_EP0HostSetup
                0x00000000        0x8 /opt/microchip/harmony/v1_03/bin/framework/peripheral/PIC32MZ1024ECG064_peripherals.a(peripheral.o)
 .text.PLIB_USB_ExistsEPnRxEnable
                0x00000000        0x8 /opt/microchip/harmony/v1_03/bin/framework/peripheral/PIC32MZ1024ECG064_peripherals.a(peripheral.o)
 .text.PLIB_USB_BufferAddressGet
                0x00000000        0x8 /opt/microchip/harmony/v1_03/bin/framework/peripheral/PIC32MZ1024ECG064_peripherals.a(peripheral.o)
 .text.PLIB_USB_BufferAddressSet
                0x00000000        0x8 /opt/microchip/harmony/v1_03/bin/framework/peripheral/PIC32MZ1024ECG064_peripherals.a(peripheral.o)
 .text.PLIB_USB_BufferByteCountGet
                0x00000000        0x8 /opt/microchip/harmony/v1_03/bin/framework/peripheral/PIC32MZ1024ECG064_peripherals.a(peripheral.o)
 .text.PLIB_USB_BufferByteCountSet
                0x00000000        0x8 /opt/microchip/harmony/v1_03/bin/framework/peripheral/PIC32MZ1024ECG064_peripherals.a(peripheral.o)
 .text.PLIB_USB_BufferCancelReleaseToUSB
                0x00000000        0x8 /opt/microchip/harmony/v1_03/bin/framework/peripheral/PIC32MZ1024ECG064_peripherals.a(peripheral.o)
 .text.PLIB_USB_BufferAllCancelReleaseToUSB
                0x00000000        0x8 /opt/microchip/harmony/v1_03/bin/framework/peripheral/PIC32MZ1024ECG064_peripherals.a(peripheral.o)
 .text.PLIB_USB_BufferClearAll
                0x00000000        0x8 /opt/microchip/harmony/v1_03/bin/framework/peripheral/PIC32MZ1024ECG064_peripherals.a(peripheral.o)
 .text.PLIB_USB_BufferDataToggleGet
                0x00000000        0x8 /opt/microchip/harmony/v1_03/bin/framework/peripheral/PIC32MZ1024ECG064_peripherals.a(peripheral.o)
 .text.PLIB_USB_BufferDataToggleSelect
                0x00000000        0x8 /opt/microchip/harmony/v1_03/bin/framework/peripheral/PIC32MZ1024ECG064_peripherals.a(peripheral.o)
 .text.PLIB_USB_BufferDataToggleSyncEnable
                0x00000000        0x8 /opt/microchip/harmony/v1_03/bin/framework/peripheral/PIC32MZ1024ECG064_peripherals.a(peripheral.o)
 .text.PLIB_USB_BufferDataToggleSyncDisable
                0x00000000        0x8 /opt/microchip/harmony/v1_03/bin/framework/peripheral/PIC32MZ1024ECG064_peripherals.a(peripheral.o)
 .text.PLIB_USB_BufferIndexGet
                0x00000000        0x8 /opt/microchip/harmony/v1_03/bin/framework/peripheral/PIC32MZ1024ECG064_peripherals.a(peripheral.o)
 .text.PLIB_USB_BufferPIDBitsClear
                0x00000000        0x8 /opt/microchip/harmony/v1_03/bin/framework/peripheral/PIC32MZ1024ECG064_peripherals.a(peripheral.o)
 .text.PLIB_USB_BufferPIDGet
                0x00000000        0x8 /opt/microchip/harmony/v1_03/bin/framework/peripheral/PIC32MZ1024ECG064_peripherals.a(peripheral.o)
 .text.PLIB_USB_BufferReleasedToSW
                0x00000000        0x8 /opt/microchip/harmony/v1_03/bin/framework/peripheral/PIC32MZ1024ECG064_peripherals.a(peripheral.o)
 .text.PLIB_USB_BufferReleaseToUSB
                0x00000000        0x8 /opt/microchip/harmony/v1_03/bin/framework/peripheral/PIC32MZ1024ECG064_peripherals.a(peripheral.o)
 .text.PLIB_USB_BufferSchedule
                0x00000000        0x8 /opt/microchip/harmony/v1_03/bin/framework/peripheral/PIC32MZ1024ECG064_peripherals.a(peripheral.o)
 .text.PLIB_USB_BufferStallDisable
                0x00000000        0x8 /opt/microchip/harmony/v1_03/bin/framework/peripheral/PIC32MZ1024ECG064_peripherals.a(peripheral.o)
 .text.PLIB_USB_BufferStallEnable
                0x00000000        0x8 /opt/microchip/harmony/v1_03/bin/framework/peripheral/PIC32MZ1024ECG064_peripherals.a(peripheral.o)
 .text.PLIB_USB_BufferStallGet
                0x00000000        0x8 /opt/microchip/harmony/v1_03/bin/framework/peripheral/PIC32MZ1024ECG064_peripherals.a(peripheral.o)
 .text.PLIB_USB_BufferEP0RxStatusInitialize
                0x00000000        0x8 /opt/microchip/harmony/v1_03/bin/framework/peripheral/PIC32MZ1024ECG064_peripherals.a(peripheral.o)
 .text.PLIB_USB_BufferClearAllDTSEnable
                0x00000000        0x8 /opt/microchip/harmony/v1_03/bin/framework/peripheral/PIC32MZ1024ECG064_peripherals.a(peripheral.o)
 .text.PLIB_USB_ExistsBDTFunctions
                0x00000000        0x8 /opt/microchip/harmony/v1_03/bin/framework/peripheral/PIC32MZ1024ECG064_peripherals.a(peripheral.o)
 .text.PLIB_USBHS_EndpointFIFOLoad
                0x00000000       0x80 /opt/microchip/harmony/v1_03/bin/framework/peripheral/PIC32MZ1024ECG064_peripherals.a(peripheral.o)
 .text.PLIB_USBHS_EndpointFIFOUnload
                0x00000000       0xb0 /opt/microchip/harmony/v1_03/bin/framework/peripheral/PIC32MZ1024ECG064_peripherals.a(peripheral.o)
 .text.PLIB_USBHS_Endpoint0FIFOFlush
                0x00000000       0x34 /opt/microchip/harmony/v1_03/bin/framework/peripheral/PIC32MZ1024ECG064_peripherals.a(peripheral.o)
 .text.PLIB_USBHS_EndpointTxFIFOFlush
                0x00000000       0x44 /opt/microchip/harmony/v1_03/bin/framework/peripheral/PIC32MZ1024ECG064_peripherals.a(peripheral.o)
 .text.PLIB_USBHS_EndpointRxFIFOFlush
                0x00000000       0x40 /opt/microchip/harmony/v1_03/bin/framework/peripheral/PIC32MZ1024ECG064_peripherals.a(peripheral.o)
 .text.PLIB_USBHS_Endpoint0SetupPacketLoad
                0x00000000       0xcc /opt/microchip/harmony/v1_03/bin/framework/peripheral/PIC32MZ1024ECG064_peripherals.a(peripheral.o)
 .text.PLIB_USBHS_Endpoint0SetupPacketUnload
                0x00000000       0x30 /opt/microchip/harmony/v1_03/bin/framework/peripheral/PIC32MZ1024ECG064_peripherals.a(peripheral.o)
 .text.PLIB_USBHS_DeviceEPFIFOLoad
                0x00000000       0x44 /opt/microchip/harmony/v1_03/bin/framework/peripheral/PIC32MZ1024ECG064_peripherals.a(peripheral.o)
 .text.PLIB_USBHS_DeviceEPFIFOUnload
                0x00000000       0x84 /opt/microchip/harmony/v1_03/bin/framework/peripheral/PIC32MZ1024ECG064_peripherals.a(peripheral.o)
 .text.PLIB_USBHS_ExistsEndpointFIFO
                0x00000000        0x8 /opt/microchip/harmony/v1_03/bin/framework/peripheral/PIC32MZ1024ECG064_peripherals.a(peripheral.o)
 .text.PLIB_USBHS_SoftResetEnable
                0x00000000       0x1c /opt/microchip/harmony/v1_03/bin/framework/peripheral/PIC32MZ1024ECG064_peripherals.a(peripheral.o)
 .text.PLIB_USBHS_SoftResetDisable
                0x00000000       0x18 /opt/microchip/harmony/v1_03/bin/framework/peripheral/PIC32MZ1024ECG064_peripherals.a(peripheral.o)
 .text.PLIB_USBHS_ExistsSoftReset
                0x00000000        0x8 /opt/microchip/harmony/v1_03/bin/framework/peripheral/PIC32MZ1024ECG064_peripherals.a(peripheral.o)
 .text.PLIB_USBHS_InterruptEnableSet
                0x00000000       0x2c /opt/microchip/harmony/v1_03/bin/framework/peripheral/PIC32MZ1024ECG064_peripherals.a(peripheral.o)
 .text.PLIB_USBHS_TxInterruptFlagsGet
                0x00000000       0x24 /opt/microchip/harmony/v1_03/bin/framework/peripheral/PIC32MZ1024ECG064_peripherals.a(peripheral.o)
 .text.PLIB_USBHS_RxInterruptFlagsGet
                0x00000000       0x24 /opt/microchip/harmony/v1_03/bin/framework/peripheral/PIC32MZ1024ECG064_peripherals.a(peripheral.o)
 .text.PLIB_USBHS_GenInterruptFlagsGet
                0x00000000       0x24 /opt/microchip/harmony/v1_03/bin/framework/peripheral/PIC32MZ1024ECG064_peripherals.a(peripheral.o)
 .text.PLIB_USBHS_TxInterruptEnable
                0x00000000       0x24 /opt/microchip/harmony/v1_03/bin/framework/peripheral/PIC32MZ1024ECG064_peripherals.a(peripheral.o)
 .text.PLIB_USBHS_RxInterruptEnable
                0x00000000       0x24 /opt/microchip/harmony/v1_03/bin/framework/peripheral/PIC32MZ1024ECG064_peripherals.a(peripheral.o)
 .text.PLIB_USBHS_TxInterruptDisable
                0x00000000       0x28 /opt/microchip/harmony/v1_03/bin/framework/peripheral/PIC32MZ1024ECG064_peripherals.a(peripheral.o)
 .text.PLIB_USBHS_RxInterruptDisable
                0x00000000       0x28 /opt/microchip/harmony/v1_03/bin/framework/peripheral/PIC32MZ1024ECG064_peripherals.a(peripheral.o)
 .text.PLIB_USBHS_ExistsInterrupts
                0x00000000        0x8 /opt/microchip/harmony/v1_03/bin/framework/peripheral/PIC32MZ1024ECG064_peripherals.a(peripheral.o)
 .text.PLIB_USBHS_HighSpeedEnable
                0x00000000       0x24 /opt/microchip/harmony/v1_03/bin/framework/peripheral/PIC32MZ1024ECG064_peripherals.a(peripheral.o)
 .text.PLIB_USBHS_HighSpeedDisable
                0x00000000       0x20 /opt/microchip/harmony/v1_03/bin/framework/peripheral/PIC32MZ1024ECG064_peripherals.a(peripheral.o)
 .text.PLIB_USBHS_HighSpeedIsConnected
                0x00000000       0x24 /opt/microchip/harmony/v1_03/bin/framework/peripheral/PIC32MZ1024ECG064_peripherals.a(peripheral.o)
 .text.PLIB_USBHS_FullOrHighSpeedIsConnected
                0x00000000       0x34 /opt/microchip/harmony/v1_03/bin/framework/peripheral/PIC32MZ1024ECG064_peripherals.a(peripheral.o)
 .text.PLIB_USBHS_ExistsHighSpeedSupport
                0x00000000        0x8 /opt/microchip/harmony/v1_03/bin/framework/peripheral/PIC32MZ1024ECG064_peripherals.a(peripheral.o)
 .text.PLIB_USBHS_DMAErrorGet
                0x00000000       0x50 /opt/microchip/harmony/v1_03/bin/framework/peripheral/PIC32MZ1024ECG064_peripherals.a(peripheral.o)
 .text.PLIB_USBHS_DMAInterruptGet
                0x00000000       0x24 /opt/microchip/harmony/v1_03/bin/framework/peripheral/PIC32MZ1024ECG064_peripherals.a(peripheral.o)
 .text.PLIB_USBHS_DMAOperationEnable
                0x00000000       0x70 /opt/microchip/harmony/v1_03/bin/framework/peripheral/PIC32MZ1024ECG064_peripherals.a(peripheral.o)
 .text.PLIB_USBHS_LoadEPInIndex
                0x00000000       0x1c /opt/microchip/harmony/v1_03/bin/framework/peripheral/PIC32MZ1024ECG064_peripherals.a(peripheral.o)
 .text.PLIB_USBHS_GetEP0FIFOAddress
                0x00000000       0x1c /opt/microchip/harmony/v1_03/bin/framework/peripheral/PIC32MZ1024ECG064_peripherals.a(peripheral.o)
 .text.PLIB_USBHS_GetEP0CSRAddress
                0x00000000       0x1c /opt/microchip/harmony/v1_03/bin/framework/peripheral/PIC32MZ1024ECG064_peripherals.a(peripheral.o)
 .text.PLIB_USBHS_GetReceiveDataCount
                0x00000000       0x24 /opt/microchip/harmony/v1_03/bin/framework/peripheral/PIC32MZ1024ECG064_peripherals.a(peripheral.o)
 .text.PLIB_USBHS_ResumeEnable
                0x00000000       0x24 /opt/microchip/harmony/v1_03/bin/framework/peripheral/PIC32MZ1024ECG064_peripherals.a(peripheral.o)
 .text.PLIB_USBHS_ResumeDisable
                0x00000000       0x20 /opt/microchip/harmony/v1_03/bin/framework/peripheral/PIC32MZ1024ECG064_peripherals.a(peripheral.o)
 .text.PLIB_USBHS_SuspendEnable
                0x00000000       0x24 /opt/microchip/harmony/v1_03/bin/framework/peripheral/PIC32MZ1024ECG064_peripherals.a(peripheral.o)
 .text.PLIB_USBHS_SuspendDisable
                0x00000000       0x20 /opt/microchip/harmony/v1_03/bin/framework/peripheral/PIC32MZ1024ECG064_peripherals.a(peripheral.o)
 .text.PLIB_USBHS_ResetEnable
                0x00000000       0x24 /opt/microchip/harmony/v1_03/bin/framework/peripheral/PIC32MZ1024ECG064_peripherals.a(peripheral.o)
 .text.PLIB_USBHS_ResetDisable
                0x00000000       0x20 /opt/microchip/harmony/v1_03/bin/framework/peripheral/PIC32MZ1024ECG064_peripherals.a(peripheral.o)
 .text.PLIB_USBHS_VBUSLevelGet
                0x00000000       0x24 /opt/microchip/harmony/v1_03/bin/framework/peripheral/PIC32MZ1024ECG064_peripherals.a(peripheral.o)
 .text.PLIB_USBHS_HostModeIsEnabled
                0x00000000       0x24 /opt/microchip/harmony/v1_03/bin/framework/peripheral/PIC32MZ1024ECG064_peripherals.a(peripheral.o)
 .text.PLIB_USBHS_SessionEnable
                0x00000000       0x24 /opt/microchip/harmony/v1_03/bin/framework/peripheral/PIC32MZ1024ECG064_peripherals.a(peripheral.o)
 .text.PLIB_USBHS_SessionDisable
                0x00000000       0x20 /opt/microchip/harmony/v1_03/bin/framework/peripheral/PIC32MZ1024ECG064_peripherals.a(peripheral.o)
 .text.PLIB_USBHS_DeviceAddressSet
                0x00000000       0x18 /opt/microchip/harmony/v1_03/bin/framework/peripheral/PIC32MZ1024ECG064_peripherals.a(peripheral.o)
 .text.PLIB_USBHS_DeviceAttach
                0x00000000       0x3c /opt/microchip/harmony/v1_03/bin/framework/peripheral/PIC32MZ1024ECG064_peripherals.a(peripheral.o)
 .text.PLIB_USBHS_DeviceDetach
                0x00000000       0x20 /opt/microchip/harmony/v1_03/bin/framework/peripheral/PIC32MZ1024ECG064_peripherals.a(peripheral.o)
 .text.PLIB_USBHS_ExistsModuleControl
                0x00000000        0x8 /opt/microchip/harmony/v1_03/bin/framework/peripheral/PIC32MZ1024ECG064_peripherals.a(peripheral.o)
 .text.PLIB_USBHS_EP0StatusGet
                0x00000000       0x24 /opt/microchip/harmony/v1_03/bin/framework/peripheral/PIC32MZ1024ECG064_peripherals.a(peripheral.o)
 .text.PLIB_USBHS_EP0StatusClear
                0x00000000       0x28 /opt/microchip/harmony/v1_03/bin/framework/peripheral/PIC32MZ1024ECG064_peripherals.a(peripheral.o)
 .text.PLIB_USBHS_EP0SentStallClear
                0x00000000       0x20 /opt/microchip/harmony/v1_03/bin/framework/peripheral/PIC32MZ1024ECG064_peripherals.a(peripheral.o)
 .text.PLIB_USBHS_EP0INHandshakeSend
                0x00000000       0x1c /opt/microchip/harmony/v1_03/bin/framework/peripheral/PIC32MZ1024ECG064_peripherals.a(peripheral.o)
 .text.PLIB_USBHS_EP0INTokenSend
                0x00000000       0x1c /opt/microchip/harmony/v1_03/bin/framework/peripheral/PIC32MZ1024ECG064_peripherals.a(peripheral.o)
 .text.PLIB_USBHS_EP0OUTHandshakeSend
                0x00000000       0x1c /opt/microchip/harmony/v1_03/bin/framework/peripheral/PIC32MZ1024ECG064_peripherals.a(peripheral.o)
 .text.PLIB_USBHS_EP0INHandshakeClear
                0x00000000       0x20 /opt/microchip/harmony/v1_03/bin/framework/peripheral/PIC32MZ1024ECG064_peripherals.a(peripheral.o)
 .text.PLIB_USBHS_EP0StallEnable
                0x00000000       0x1c /opt/microchip/harmony/v1_03/bin/framework/peripheral/PIC32MZ1024ECG064_peripherals.a(peripheral.o)
 .text.PLIB_USBHS_EP0StallDisable
                0x00000000       0x20 /opt/microchip/harmony/v1_03/bin/framework/peripheral/PIC32MZ1024ECG064_peripherals.a(peripheral.o)
 .text.PLIB_USBHS_EP0SetupEndServiced
                0x00000000       0x24 /opt/microchip/harmony/v1_03/bin/framework/peripheral/PIC32MZ1024ECG064_peripherals.a(peripheral.o)
 .text.PLIB_USBHS_EP0RxPktRdyServiced
                0x00000000       0x1c /opt/microchip/harmony/v1_03/bin/framework/peripheral/PIC32MZ1024ECG064_peripherals.a(peripheral.o)
 .text.PLIB_USBHS_EP0RxPktRdyServicedDataEnd
                0x00000000       0x1c /opt/microchip/harmony/v1_03/bin/framework/peripheral/PIC32MZ1024ECG064_peripherals.a(peripheral.o)
 .text.PLIB_USBHS_EP0TxPktRdyDataEnd
                0x00000000       0x1c /opt/microchip/harmony/v1_03/bin/framework/peripheral/PIC32MZ1024ECG064_peripherals.a(peripheral.o)
 .text.PLIB_USBHS_EP0TxPktRdy
                0x00000000       0x1c /opt/microchip/harmony/v1_03/bin/framework/peripheral/PIC32MZ1024ECG064_peripherals.a(peripheral.o)
 .text.PLIB_USBHS_EP0DataEndSet
                0x00000000       0x1c /opt/microchip/harmony/v1_03/bin/framework/peripheral/PIC32MZ1024ECG064_peripherals.a(peripheral.o)
 .text.PLIB_USBHS_ExistsEP0Status
                0x00000000        0x8 /opt/microchip/harmony/v1_03/bin/framework/peripheral/PIC32MZ1024ECG064_peripherals.a(peripheral.o)
 .text.PLIB_USBHS_TxEPStatusGet
                0x00000000       0x2c /opt/microchip/harmony/v1_03/bin/framework/peripheral/PIC32MZ1024ECG064_peripherals.a(peripheral.o)
 .text.PLIB_USBHS_TxEPStatusClear
                0x00000000       0x30 /opt/microchip/harmony/v1_03/bin/framework/peripheral/PIC32MZ1024ECG064_peripherals.a(peripheral.o)
 .text.PLIB_USBHS_ExistsTxEPStatus
                0x00000000        0x8 /opt/microchip/harmony/v1_03/bin/framework/peripheral/PIC32MZ1024ECG064_peripherals.a(peripheral.o)
 .text.PLIB_USBHS_RxEPStatusGet
                0x00000000       0x2c /opt/microchip/harmony/v1_03/bin/framework/peripheral/PIC32MZ1024ECG064_peripherals.a(peripheral.o)
 .text.PLIB_USBHS_RxEPStatusClear
                0x00000000       0x34 /opt/microchip/harmony/v1_03/bin/framework/peripheral/PIC32MZ1024ECG064_peripherals.a(peripheral.o)
 .text.PLIB_USBHS_RxEPINTokenSend
                0x00000000       0x30 /opt/microchip/harmony/v1_03/bin/framework/peripheral/PIC32MZ1024ECG064_peripherals.a(peripheral.o)
 .text.PLIB_USBHS_ExistsRxEPStatus
                0x00000000        0x8 /opt/microchip/harmony/v1_03/bin/framework/peripheral/PIC32MZ1024ECG064_peripherals.a(peripheral.o)
 .text.PLIB_USBHS_EndpointRxRequestEnable
                0x00000000       0x30 /opt/microchip/harmony/v1_03/bin/framework/peripheral/PIC32MZ1024ECG064_peripherals.a(peripheral.o)
 .text.PLIB_USBHS_EndpointRxRequestClear
                0x00000000       0x30 /opt/microchip/harmony/v1_03/bin/framework/peripheral/PIC32MZ1024ECG064_peripherals.a(peripheral.o)
 .text.PLIB_USBHS_HostRxEndpointConfigure
                0x00000000      0x108 /opt/microchip/harmony/v1_03/bin/framework/peripheral/PIC32MZ1024ECG064_peripherals.a(peripheral.o)
 .text.PLIB_USBHS_HostTxEndpointConfigure
                0x00000000      0x10c /opt/microchip/harmony/v1_03/bin/framework/peripheral/PIC32MZ1024ECG064_peripherals.a(peripheral.o)
 .text.PLIB_USBHS_DeviceRxEndpointConfigure
                0x00000000       0xc8 /opt/microchip/harmony/v1_03/bin/framework/peripheral/PIC32MZ1024ECG064_peripherals.a(peripheral.o)
 .text.PLIB_USBHS_DeviceTxEndpointConfigure
                0x00000000       0x9c /opt/microchip/harmony/v1_03/bin/framework/peripheral/PIC32MZ1024ECG064_peripherals.a(peripheral.o)
 .text.PLIB_USBHS_DeviceRxEndpointStallEnable
                0x00000000       0x30 /opt/microchip/harmony/v1_03/bin/framework/peripheral/PIC32MZ1024ECG064_peripherals.a(peripheral.o)
 .text.PLIB_USBHS_DeviceTxEndpointStallEnable
                0x00000000       0x30 /opt/microchip/harmony/v1_03/bin/framework/peripheral/PIC32MZ1024ECG064_peripherals.a(peripheral.o)
 .text.PLIB_USBHS_DeviceRxEndpointStallDisable
                0x00000000       0x40 /opt/microchip/harmony/v1_03/bin/framework/peripheral/PIC32MZ1024ECG064_peripherals.a(peripheral.o)
 .text.PLIB_USBHS_DeviceTxEndpointStallDisable
                0x00000000       0x40 /opt/microchip/harmony/v1_03/bin/framework/peripheral/PIC32MZ1024ECG064_peripherals.a(peripheral.o)
 .text.PLIB_USBHS_DeviceTxEndpointPacketReady
                0x00000000       0x30 /opt/microchip/harmony/v1_03/bin/framework/peripheral/PIC32MZ1024ECG064_peripherals.a(peripheral.o)
 .text.PLIB_USBHS_ExistsEndpointOperations
                0x00000000        0x8 /opt/microchip/harmony/v1_03/bin/framework/peripheral/PIC32MZ1024ECG064_peripherals.a(peripheral.o)
 .text.PLIB_WDT_ExistsEnableControl
                0x00000000        0x8 /opt/microchip/harmony/v1_03/bin/framework/peripheral/PIC32MZ1024ECG064_peripherals.a(peripheral.o)
 .text.PLIB_WDT_Enable
                0x00000000       0x18 /opt/microchip/harmony/v1_03/bin/framework/peripheral/PIC32MZ1024ECG064_peripherals.a(peripheral.o)
 .text.PLIB_WDT_Disable
                0x00000000       0x18 /opt/microchip/harmony/v1_03/bin/framework/peripheral/PIC32MZ1024ECG064_peripherals.a(peripheral.o)
 .text.PLIB_WDT_IsEnabled
                0x00000000       0x20 /opt/microchip/harmony/v1_03/bin/framework/peripheral/PIC32MZ1024ECG064_peripherals.a(peripheral.o)
 .text.PLIB_WDT_ExistsWindowEnable
                0x00000000        0x8 /opt/microchip/harmony/v1_03/bin/framework/peripheral/PIC32MZ1024ECG064_peripherals.a(peripheral.o)
 .text.PLIB_WDT_WindowEnable
                0x00000000       0x18 /opt/microchip/harmony/v1_03/bin/framework/peripheral/PIC32MZ1024ECG064_peripherals.a(peripheral.o)
 .text.PLIB_WDT_WindowDisable
                0x00000000       0x18 /opt/microchip/harmony/v1_03/bin/framework/peripheral/PIC32MZ1024ECG064_peripherals.a(peripheral.o)
 .text.PLIB_WDT_ExistsTimerClear
                0x00000000        0x8 /opt/microchip/harmony/v1_03/bin/framework/peripheral/PIC32MZ1024ECG064_peripherals.a(peripheral.o)
 .text.PLIB_WDT_TimerClear
                0x00000000       0x1c /opt/microchip/harmony/v1_03/bin/framework/peripheral/PIC32MZ1024ECG064_peripherals.a(peripheral.o)
 .text.PLIB_WDT_ExistsPostscalerValue
                0x00000000        0x8 /opt/microchip/harmony/v1_03/bin/framework/peripheral/PIC32MZ1024ECG064_peripherals.a(peripheral.o)
 .text.PLIB_WDT_PostscalerValueGet
                0x00000000       0x20 /opt/microchip/harmony/v1_03/bin/framework/peripheral/PIC32MZ1024ECG064_peripherals.a(peripheral.o)
 .text.PLIB_CTMU_EdgeSensitivitySet
                0x00000000        0x8 /opt/microchip/harmony/v1_03/bin/framework/peripheral/PIC32MZ1024ECG064_peripherals.a(peripheral.o)
 .text.PLIB_CTMU_ExistsEdgeSensitivity
                0x00000000        0x8 /opt/microchip/harmony/v1_03/bin/framework/peripheral/PIC32MZ1024ECG064_peripherals.a(peripheral.o)
 .text.PLIB_CTMU_EdgePolaritySet
                0x00000000        0x8 /opt/microchip/harmony/v1_03/bin/framework/peripheral/PIC32MZ1024ECG064_peripherals.a(peripheral.o)
 .text.PLIB_CTMU_ExistsEdgePolarity
                0x00000000        0x8 /opt/microchip/harmony/v1_03/bin/framework/peripheral/PIC32MZ1024ECG064_peripherals.a(peripheral.o)
 .text.PLIB_CTMU_EdgeTriggerSourceSelect
                0x00000000        0x8 /opt/microchip/harmony/v1_03/bin/framework/peripheral/PIC32MZ1024ECG064_peripherals.a(peripheral.o)
 .text.PLIB_CTMU_ExistsEdgeTriggerSource
                0x00000000        0x8 /opt/microchip/harmony/v1_03/bin/framework/peripheral/PIC32MZ1024ECG064_peripherals.a(peripheral.o)
 .text.PLIB_CTMU_EdgeIsSet
                0x00000000        0x8 /opt/microchip/harmony/v1_03/bin/framework/peripheral/PIC32MZ1024ECG064_peripherals.a(peripheral.o)
 .text.PLIB_CTMU_EdgeSet
                0x00000000        0x8 /opt/microchip/harmony/v1_03/bin/framework/peripheral/PIC32MZ1024ECG064_peripherals.a(peripheral.o)
 .text.PLIB_CTMU_ExistsEdgeStatus
                0x00000000        0x8 /opt/microchip/harmony/v1_03/bin/framework/peripheral/PIC32MZ1024ECG064_peripherals.a(peripheral.o)
 .text.PLIB_CTMU_Disable
                0x00000000        0x8 /opt/microchip/harmony/v1_03/bin/framework/peripheral/PIC32MZ1024ECG064_peripherals.a(peripheral.o)
 .text.PLIB_CTMU_Enable
                0x00000000        0x8 /opt/microchip/harmony/v1_03/bin/framework/peripheral/PIC32MZ1024ECG064_peripherals.a(peripheral.o)
 .text.PLIB_CTMU_ExistsModuleEnable
                0x00000000        0x8 /opt/microchip/harmony/v1_03/bin/framework/peripheral/PIC32MZ1024ECG064_peripherals.a(peripheral.o)
 .text.PLIB_CTMU_StopInIdleDisable
                0x00000000        0x8 /opt/microchip/harmony/v1_03/bin/framework/peripheral/PIC32MZ1024ECG064_peripherals.a(peripheral.o)
 .text.PLIB_CTMU_StopInIdleEnable
                0x00000000        0x8 /opt/microchip/harmony/v1_03/bin/framework/peripheral/PIC32MZ1024ECG064_peripherals.a(peripheral.o)
 .text.PLIB_CTMU_ExistsStopInIdle
                0x00000000        0x8 /opt/microchip/harmony/v1_03/bin/framework/peripheral/PIC32MZ1024ECG064_peripherals.a(peripheral.o)
 .text.PLIB_CTMU_TimePulseGenerationDisable
                0x00000000        0x8 /opt/microchip/harmony/v1_03/bin/framework/peripheral/PIC32MZ1024ECG064_peripherals.a(peripheral.o)
 .text.PLIB_CTMU_TimePulseGenerationEnable
                0x00000000        0x8 /opt/microchip/harmony/v1_03/bin/framework/peripheral/PIC32MZ1024ECG064_peripherals.a(peripheral.o)
 .text.PLIB_CTMU_ExistsTimePulseGeneration
                0x00000000        0x8 /opt/microchip/harmony/v1_03/bin/framework/peripheral/PIC32MZ1024ECG064_peripherals.a(peripheral.o)
 .text.PLIB_CTMU_EdgeDisable
                0x00000000        0x8 /opt/microchip/harmony/v1_03/bin/framework/peripheral/PIC32MZ1024ECG064_peripherals.a(peripheral.o)
 .text.PLIB_CTMU_EdgeEnable
                0x00000000        0x8 /opt/microchip/harmony/v1_03/bin/framework/peripheral/PIC32MZ1024ECG064_peripherals.a(peripheral.o)
 .text.PLIB_CTMU_ExistsEdgeEnable
                0x00000000        0x8 /opt/microchip/harmony/v1_03/bin/framework/peripheral/PIC32MZ1024ECG064_peripherals.a(peripheral.o)
 .text.PLIB_CTMU_EdgeSequenceDisable
                0x00000000        0x8 /opt/microchip/harmony/v1_03/bin/framework/peripheral/PIC32MZ1024ECG064_peripherals.a(peripheral.o)
 .text.PLIB_CTMU_EdgeSequenceEnable
                0x00000000        0x8 /opt/microchip/harmony/v1_03/bin/framework/peripheral/PIC32MZ1024ECG064_peripherals.a(peripheral.o)
 .text.PLIB_CTMU_ExistsEdgeSequencing
                0x00000000        0x8 /opt/microchip/harmony/v1_03/bin/framework/peripheral/PIC32MZ1024ECG064_peripherals.a(peripheral.o)
 .text.PLIB_CTMU_CurrentDischargeEnable
                0x00000000        0x8 /opt/microchip/harmony/v1_03/bin/framework/peripheral/PIC32MZ1024ECG064_peripherals.a(peripheral.o)
 .text.PLIB_CTMU_CurrentDischargeDisable
                0x00000000        0x8 /opt/microchip/harmony/v1_03/bin/framework/peripheral/PIC32MZ1024ECG064_peripherals.a(peripheral.o)
 .text.PLIB_CTMU_ExistsCurrentDischarge
                0x00000000        0x8 /opt/microchip/harmony/v1_03/bin/framework/peripheral/PIC32MZ1024ECG064_peripherals.a(peripheral.o)
 .text.PLIB_CTMU_AutomaticADCTriggerDisable
                0x00000000        0x8 /opt/microchip/harmony/v1_03/bin/framework/peripheral/PIC32MZ1024ECG064_peripherals.a(peripheral.o)
 .text.PLIB_CTMU_AutomaticADCTriggerEnable
                0x00000000        0x8 /opt/microchip/harmony/v1_03/bin/framework/peripheral/PIC32MZ1024ECG064_peripherals.a(peripheral.o)
 .text.PLIB_CTMU_ExistsAutomaticADCTrigger
                0x00000000        0x8 /opt/microchip/harmony/v1_03/bin/framework/peripheral/PIC32MZ1024ECG064_peripherals.a(peripheral.o)
 .text.PLIB_CTMU_CurrentTrimSet
                0x00000000        0x8 /opt/microchip/harmony/v1_03/bin/framework/peripheral/PIC32MZ1024ECG064_peripherals.a(peripheral.o)
 .text.PLIB_CTMU_ExistsCurrentTrim
                0x00000000        0x8 /opt/microchip/harmony/v1_03/bin/framework/peripheral/PIC32MZ1024ECG064_peripherals.a(peripheral.o)
 .text.PLIB_CTMU_CurrentRangeSet
                0x00000000        0x8 /opt/microchip/harmony/v1_03/bin/framework/peripheral/PIC32MZ1024ECG064_peripherals.a(peripheral.o)
 .text.PLIB_CTMU_ExistsCurrentRange
                0x00000000        0x8 /opt/microchip/harmony/v1_03/bin/framework/peripheral/PIC32MZ1024ECG064_peripherals.a(peripheral.o)
 .text          0x00000000        0x0 /opt/microchip/xc32/v1.34/bin/bin/../../lib/gcc/pic32mx/4.5.2/../../../../pic32mx/lib/./proc/32MZ1024ECG064/default_isr_vectors.o
 .data          0x00000000        0x0 /opt/microchip/xc32/v1.34/bin/bin/../../lib/gcc/pic32mx/4.5.2/../../../../pic32mx/lib/./proc/32MZ1024ECG064/default_isr_vectors.o
 .bss           0x00000000        0x0 /opt/microchip/xc32/v1.34/bin/bin/../../lib/gcc/pic32mx/4.5.2/../../../../pic32mx/lib/./proc/32MZ1024ECG064/default_isr_vectors.o
 .reginfo       0x00000000       0x18 /opt/microchip/xc32/v1.34/bin/bin/../../lib/gcc/pic32mx/4.5.2/../../../../pic32mx/lib/./proc/32MZ1024ECG064/default_isr_vectors.o
 .discard       0x00000000        0x4 /opt/microchip/xc32/v1.34/bin/bin/../../lib/gcc/pic32mx/4.5.2/../../../../pic32mx/lib/./proc/32MZ1024ECG064/default_isr_vectors.o
 .data          0x00000000        0x0 /opt/microchip/xc32/v1.34/bin/bin/../../lib/gcc/pic32mx/4.5.2/../../../../pic32mx/lib/pic32_software_reset.o
 .bss           0x00000000        0x0 /opt/microchip/xc32/v1.34/bin/bin/../../lib/gcc/pic32mx/4.5.2/../../../../pic32mx/lib/pic32_software_reset.o
 .reginfo       0x00000000       0x18 /opt/microchip/xc32/v1.34/bin/bin/../../lib/gcc/pic32mx/4.5.2/../../../../pic32mx/lib/pic32_software_reset.o
 .text          0x00000000        0x0 /opt/microchip/xc32/v1.34/bin/bin/../../lib/gcc/pic32mx/4.5.2/../../../../pic32mx/lib/./proc/32MZ1024ECG064/processor.o
 .data          0x00000000        0x0 /opt/microchip/xc32/v1.34/bin/bin/../../lib/gcc/pic32mx/4.5.2/../../../../pic32mx/lib/./proc/32MZ1024ECG064/processor.o
 .bss           0x00000000        0x0 /opt/microchip/xc32/v1.34/bin/bin/../../lib/gcc/pic32mx/4.5.2/../../../../pic32mx/lib/./proc/32MZ1024ECG064/processor.o
 .reginfo       0x00000000       0x18 /opt/microchip/xc32/v1.34/bin/bin/../../lib/gcc/pic32mx/4.5.2/../../../../pic32mx/lib/./proc/32MZ1024ECG064/processor.o
 .text          0x00000000        0x0 /opt/microchip/xc32/v1.34/bin/bin/../../lib/gcc/pic32mx/4.5.2/../../../../pic32mx/lib/./proc/32MZ1024ECG064/vector_offset_init.o
 .data          0x00000000        0x0 /opt/microchip/xc32/v1.34/bin/bin/../../lib/gcc/pic32mx/4.5.2/../../../../pic32mx/lib/./proc/32MZ1024ECG064/vector_offset_init.o
 .bss           0x00000000        0x0 /opt/microchip/xc32/v1.34/bin/bin/../../lib/gcc/pic32mx/4.5.2/../../../../pic32mx/lib/./proc/32MZ1024ECG064/vector_offset_init.o
 .reginfo       0x00000000       0x18 /opt/microchip/xc32/v1.34/bin/bin/../../lib/gcc/pic32mx/4.5.2/../../../../pic32mx/lib/./proc/32MZ1024ECG064/vector_offset_init.o
 .data          0x00000000        0x0 /opt/microchip/xc32/v1.34/bin/bin/../../lib/gcc/pic32mx/4.5.2/libgcc.a(_divdi3.o)
 .bss           0x00000000        0x0 /opt/microchip/xc32/v1.34/bin/bin/../../lib/gcc/pic32mx/4.5.2/libgcc.a(_divdi3.o)
 .reginfo       0x00000000       0x18 /opt/microchip/xc32/v1.34/bin/bin/../../lib/gcc/pic32mx/4.5.2/libgcc.a(_divdi3.o)
 .data          0x00000000        0x0 /opt/microchip/xc32/v1.34/bin/bin/../../lib/gcc/pic32mx/4.5.2/libgcc.a(_moddi3.o)
 .bss           0x00000000        0x0 /opt/microchip/xc32/v1.34/bin/bin/../../lib/gcc/pic32mx/4.5.2/libgcc.a(_moddi3.o)
 .reginfo       0x00000000       0x18 /opt/microchip/xc32/v1.34/bin/bin/../../lib/gcc/pic32mx/4.5.2/libgcc.a(_moddi3.o)
 .data          0x00000000        0x0 /opt/microchip/xc32/v1.34/bin/bin/../../lib/gcc/pic32mx/4.5.2/libgcc.a(floatunsisf.o)
 .bss           0x00000000        0x0 /opt/microchip/xc32/v1.34/bin/bin/../../lib/gcc/pic32mx/4.5.2/libgcc.a(floatunsisf.o)
 .reginfo       0x00000000       0x18 /opt/microchip/xc32/v1.34/bin/bin/../../lib/gcc/pic32mx/4.5.2/libgcc.a(floatunsisf.o)
 .data          0x00000000        0x0 /opt/microchip/xc32/v1.34/bin/bin/../../lib/gcc/pic32mx/4.5.2/../../../../pic32mx/lib/libpic32.a(memcpy.o)
 .bss           0x00000000        0x0 /opt/microchip/xc32/v1.34/bin/bin/../../lib/gcc/pic32mx/4.5.2/../../../../pic32mx/lib/libpic32.a(memcpy.o)
 .reginfo       0x00000000       0x18 /opt/microchip/xc32/v1.34/bin/bin/../../lib/gcc/pic32mx/4.5.2/../../../../pic32mx/lib/libpic32.a(memcpy.o)
 .text          0x00000000        0x0 /opt/microchip/xc32/v1.34/bin/bin/../../lib/gcc/pic32mx/4.5.2/../../../../pic32mx/lib/libpic32.a(default-bootstrap-exception-handler.o)
 .data          0x00000000        0x0 /opt/microchip/xc32/v1.34/bin/bin/../../lib/gcc/pic32mx/4.5.2/../../../../pic32mx/lib/libpic32.a(default-bootstrap-exception-handler.o)
 .bss           0x00000000        0x0 /opt/microchip/xc32/v1.34/bin/bin/../../lib/gcc/pic32mx/4.5.2/../../../../pic32mx/lib/libpic32.a(default-bootstrap-exception-handler.o)
 .reginfo       0x00000000       0x18 /opt/microchip/xc32/v1.34/bin/bin/../../lib/gcc/pic32mx/4.5.2/../../../../pic32mx/lib/libpic32.a(default-bootstrap-exception-handler.o)
 .text          0x00000000        0x0 /opt/microchip/xc32/v1.34/bin/bin/../../lib/gcc/pic32mx/4.5.2/../../../../pic32mx/lib/libpic32.a(default-on-reset.o)
 .data          0x00000000        0x0 /opt/microchip/xc32/v1.34/bin/bin/../../lib/gcc/pic32mx/4.5.2/../../../../pic32mx/lib/libpic32.a(default-on-reset.o)
 .bss           0x00000000        0x0 /opt/microchip/xc32/v1.34/bin/bin/../../lib/gcc/pic32mx/4.5.2/../../../../pic32mx/lib/libpic32.a(default-on-reset.o)
 .reginfo       0x00000000       0x18 /opt/microchip/xc32/v1.34/bin/bin/../../lib/gcc/pic32mx/4.5.2/../../../../pic32mx/lib/libpic32.a(default-on-reset.o)
 .text          0x00000000        0x0 /opt/microchip/xc32/v1.34/bin/bin/../../lib/gcc/pic32mx/4.5.2/../../../../pic32mx/lib/libpic32.a(default-on-bootstrap.o)
 .data          0x00000000        0x0 /opt/microchip/xc32/v1.34/bin/bin/../../lib/gcc/pic32mx/4.5.2/../../../../pic32mx/lib/libpic32.a(default-on-bootstrap.o)
 .bss           0x00000000        0x0 /opt/microchip/xc32/v1.34/bin/bin/../../lib/gcc/pic32mx/4.5.2/../../../../pic32mx/lib/libpic32.a(default-on-bootstrap.o)
 .reginfo       0x00000000       0x18 /opt/microchip/xc32/v1.34/bin/bin/../../lib/gcc/pic32mx/4.5.2/../../../../pic32mx/lib/libpic32.a(default-on-bootstrap.o)
 .data          0x00000000        0x0 /opt/microchip/xc32/v1.34/bin/bin/../../lib/gcc/pic32mx/4.5.2/../../../../pic32mx/lib/libpic32.a(default-nmi-handler.o)
 .bss           0x00000000        0x0 /opt/microchip/xc32/v1.34/bin/bin/../../lib/gcc/pic32mx/4.5.2/../../../../pic32mx/lib/libpic32.a(default-nmi-handler.o)
 .reginfo       0x00000000       0x18 /opt/microchip/xc32/v1.34/bin/bin/../../lib/gcc/pic32mx/4.5.2/../../../../pic32mx/lib/libpic32.a(default-nmi-handler.o)
 .text          0x00000000        0x0 /opt/microchip/xc32/v1.34/bin/bin/../../lib/gcc/pic32mx/4.5.2/../../../../pic32mx/lib/libpic32.a(pic32_init_cache.o)
 .data          0x00000000        0x0 /opt/microchip/xc32/v1.34/bin/bin/../../lib/gcc/pic32mx/4.5.2/../../../../pic32mx/lib/libpic32.a(pic32_init_cache.o)
 .bss           0x00000000        0x0 /opt/microchip/xc32/v1.34/bin/bin/../../lib/gcc/pic32mx/4.5.2/../../../../pic32mx/lib/libpic32.a(pic32_init_cache.o)
 .reginfo       0x00000000       0x18 /opt/microchip/xc32/v1.34/bin/bin/../../lib/gcc/pic32mx/4.5.2/../../../../pic32mx/lib/libpic32.a(pic32_init_cache.o)
 .cache_init.pic32_size_cache
                0x00000000       0x3c /opt/microchip/xc32/v1.34/bin/bin/../../lib/gcc/pic32mx/4.5.2/../../../../pic32mx/lib/libpic32.a(pic32_init_cache.o)
 .text          0x00000000        0x0 /opt/microchip/xc32/v1.34/bin/bin/../../lib/gcc/pic32mx/4.5.2/../../../../pic32mx/lib/libpic32.a(pic32_init_tlb_ebi_sqi.o)
 .data          0x00000000        0x0 /opt/microchip/xc32/v1.34/bin/bin/../../lib/gcc/pic32mx/4.5.2/../../../../pic32mx/lib/libpic32.a(pic32_init_tlb_ebi_sqi.o)
 .bss           0x00000000        0x0 /opt/microchip/xc32/v1.34/bin/bin/../../lib/gcc/pic32mx/4.5.2/../../../../pic32mx/lib/libpic32.a(pic32_init_tlb_ebi_sqi.o)
 .reginfo       0x00000000       0x18 /opt/microchip/xc32/v1.34/bin/bin/../../lib/gcc/pic32mx/4.5.2/../../../../pic32mx/lib/libpic32.a(pic32_init_tlb_ebi_sqi.o)
 .text          0x00000000        0x0 /opt/microchip/xc32/v1.34/bin/bin/../../lib/gcc/pic32mx/4.5.2/../../../../pic32mx/lib/libpic32.a(general-exception.o)
 .data          0x00000000        0x0 /opt/microchip/xc32/v1.34/bin/bin/../../lib/gcc/pic32mx/4.5.2/../../../../pic32mx/lib/libpic32.a(general-exception.o)
 .bss           0x00000000        0x0 /opt/microchip/xc32/v1.34/bin/bin/../../lib/gcc/pic32mx/4.5.2/../../../../pic32mx/lib/libpic32.a(general-exception.o)
 .reginfo       0x00000000       0x18 /opt/microchip/xc32/v1.34/bin/bin/../../lib/gcc/pic32mx/4.5.2/../../../../pic32mx/lib/libpic32.a(general-exception.o)
 .text          0x00000000        0x0 /opt/microchip/xc32/v1.34/bin/bin/../../lib/gcc/pic32mx/4.5.2/../../../../pic32mx/lib/libpic32.a(cache-err-exception.o)
 .data          0x00000000        0x0 /opt/microchip/xc32/v1.34/bin/bin/../../lib/gcc/pic32mx/4.5.2/../../../../pic32mx/lib/libpic32.a(cache-err-exception.o)
 .bss           0x00000000        0x0 /opt/microchip/xc32/v1.34/bin/bin/../../lib/gcc/pic32mx/4.5.2/../../../../pic32mx/lib/libpic32.a(cache-err-exception.o)
 .reginfo       0x00000000       0x18 /opt/microchip/xc32/v1.34/bin/bin/../../lib/gcc/pic32mx/4.5.2/../../../../pic32mx/lib/libpic32.a(cache-err-exception.o)
 .text          0x00000000        0x0 /opt/microchip/xc32/v1.34/bin/bin/../../lib/gcc/pic32mx/4.5.2/../../../../pic32mx/lib/libpic32.a(simple-tlb-refill-exception.o)
 .data          0x00000000        0x0 /opt/microchip/xc32/v1.34/bin/bin/../../lib/gcc/pic32mx/4.5.2/../../../../pic32mx/lib/libpic32.a(simple-tlb-refill-exception.o)
 .bss           0x00000000        0x0 /opt/microchip/xc32/v1.34/bin/bin/../../lib/gcc/pic32mx/4.5.2/../../../../pic32mx/lib/libpic32.a(simple-tlb-refill-exception.o)
 .reginfo       0x00000000       0x18 /opt/microchip/xc32/v1.34/bin/bin/../../lib/gcc/pic32mx/4.5.2/../../../../pic32mx/lib/libpic32.a(simple-tlb-refill-exception.o)
 .text          0x00000000        0x0 /opt/microchip/xc32/v1.34/bin/bin/../../lib/gcc/pic32mx/4.5.2/../../../../pic32mx/lib/libpic32.a(defaultinterrupt.o)
 .data          0x00000000        0x0 /opt/microchip/xc32/v1.34/bin/bin/../../lib/gcc/pic32mx/4.5.2/../../../../pic32mx/lib/libpic32.a(defaultinterrupt.o)
 .bss           0x00000000        0x0 /opt/microchip/xc32/v1.34/bin/bin/../../lib/gcc/pic32mx/4.5.2/../../../../pic32mx/lib/libpic32.a(defaultinterrupt.o)
 .reginfo       0x00000000       0x18 /opt/microchip/xc32/v1.34/bin/bin/../../lib/gcc/pic32mx/4.5.2/../../../../pic32mx/lib/libpic32.a(defaultinterrupt.o)
 .text          0x00000000        0x0 /opt/microchip/xc32/v1.34/bin/bin/../../lib/gcc/pic32mx/4.5.2/../../../../pic32mx/lib/libm.a(fp32div.o)
 .data          0x00000000        0x0 /opt/microchip/xc32/v1.34/bin/bin/../../lib/gcc/pic32mx/4.5.2/../../../../pic32mx/lib/libm.a(fp32div.o)
 .bss           0x00000000        0x0 /opt/microchip/xc32/v1.34/bin/bin/../../lib/gcc/pic32mx/4.5.2/../../../../pic32mx/lib/libm.a(fp32div.o)
 .reginfo       0x00000000       0x18 /opt/microchip/xc32/v1.34/bin/bin/../../lib/gcc/pic32mx/4.5.2/../../../../pic32mx/lib/libm.a(fp32div.o)
 .text          0x00000000        0x0 /opt/microchip/xc32/v1.34/bin/bin/../../lib/gcc/pic32mx/4.5.2/../../../../pic32mx/lib/libm.a(fp32mul.o)
 .data          0x00000000        0x0 /opt/microchip/xc32/v1.34/bin/bin/../../lib/gcc/pic32mx/4.5.2/../../../../pic32mx/lib/libm.a(fp32mul.o)
 .bss           0x00000000        0x0 /opt/microchip/xc32/v1.34/bin/bin/../../lib/gcc/pic32mx/4.5.2/../../../../pic32mx/lib/libm.a(fp32mul.o)
 .reginfo       0x00000000       0x18 /opt/microchip/xc32/v1.34/bin/bin/../../lib/gcc/pic32mx/4.5.2/../../../../pic32mx/lib/libm.a(fp32mul.o)
 .text          0x00000000        0x0 /opt/microchip/xc32/v1.34/bin/bin/../../lib/gcc/pic32mx/4.5.2/../../../../pic32mx/lib/libm.a(fp32subadd.o)
 .data          0x00000000        0x0 /opt/microchip/xc32/v1.34/bin/bin/../../lib/gcc/pic32mx/4.5.2/../../../../pic32mx/lib/libm.a(fp32subadd.o)
 .bss           0x00000000        0x0 /opt/microchip/xc32/v1.34/bin/bin/../../lib/gcc/pic32mx/4.5.2/../../../../pic32mx/lib/libm.a(fp32subadd.o)
 .reginfo       0x00000000       0x18 /opt/microchip/xc32/v1.34/bin/bin/../../lib/gcc/pic32mx/4.5.2/../../../../pic32mx/lib/libm.a(fp32subadd.o)
 .text          0x00000000        0x0 /opt/microchip/xc32/v1.34/bin/bin/../../lib/gcc/pic32mx/4.5.2/../../../../pic32mx/lib/libm.a(fpcmp.o)
 .data          0x00000000        0x0 /opt/microchip/xc32/v1.34/bin/bin/../../lib/gcc/pic32mx/4.5.2/../../../../pic32mx/lib/libm.a(fpcmp.o)
 .bss           0x00000000        0x0 /opt/microchip/xc32/v1.34/bin/bin/../../lib/gcc/pic32mx/4.5.2/../../../../pic32mx/lib/libm.a(fpcmp.o)
 .reginfo       0x00000000       0x18 /opt/microchip/xc32/v1.34/bin/bin/../../lib/gcc/pic32mx/4.5.2/../../../../pic32mx/lib/libm.a(fpcmp.o)
 .text          0x00000000        0x0 /opt/microchip/xc32/v1.34/bin/bin/../../lib/gcc/pic32mx/4.5.2/../../../../pic32mx/lib/libm.a(fpcos32.o)
 .data          0x00000000        0x0 /opt/microchip/xc32/v1.34/bin/bin/../../lib/gcc/pic32mx/4.5.2/../../../../pic32mx/lib/libm.a(fpcos32.o)
 .bss           0x00000000        0x0 /opt/microchip/xc32/v1.34/bin/bin/../../lib/gcc/pic32mx/4.5.2/../../../../pic32mx/lib/libm.a(fpcos32.o)
 .reginfo       0x00000000       0x18 /opt/microchip/xc32/v1.34/bin/bin/../../lib/gcc/pic32mx/4.5.2/../../../../pic32mx/lib/libm.a(fpcos32.o)
 .text          0x00000000        0x0 /opt/microchip/xc32/v1.34/bin/bin/../../lib/gcc/pic32mx/4.5.2/../../../../pic32mx/lib/libm.a(fpmodf.o)
 .data          0x00000000        0x0 /opt/microchip/xc32/v1.34/bin/bin/../../lib/gcc/pic32mx/4.5.2/../../../../pic32mx/lib/libm.a(fpmodf.o)
 .bss           0x00000000        0x0 /opt/microchip/xc32/v1.34/bin/bin/../../lib/gcc/pic32mx/4.5.2/../../../../pic32mx/lib/libm.a(fpmodf.o)
 .reginfo       0x00000000       0x18 /opt/microchip/xc32/v1.34/bin/bin/../../lib/gcc/pic32mx/4.5.2/../../../../pic32mx/lib/libm.a(fpmodf.o)
 .text          0x00000000        0x0 /opt/microchip/xc32/v1.34/bin/bin/../../lib/gcc/pic32mx/4.5.2/../../../../pic32mx/lib/libm.a(fpreduct32.o)
 .data          0x00000000        0x0 /opt/microchip/xc32/v1.34/bin/bin/../../lib/gcc/pic32mx/4.5.2/../../../../pic32mx/lib/libm.a(fpreduct32.o)
 .bss           0x00000000        0x0 /opt/microchip/xc32/v1.34/bin/bin/../../lib/gcc/pic32mx/4.5.2/../../../../pic32mx/lib/libm.a(fpreduct32.o)
 .reginfo       0x00000000       0x18 /opt/microchip/xc32/v1.34/bin/bin/../../lib/gcc/pic32mx/4.5.2/../../../../pic32mx/lib/libm.a(fpreduct32.o)
 .text          0x00000000        0x0 /opt/microchip/xc32/v1.34/bin/bin/../../lib/gcc/pic32mx/4.5.2/../../../../pic32mx/lib/libm.a(fpsin32.o)
 .data          0x00000000        0x0 /opt/microchip/xc32/v1.34/bin/bin/../../lib/gcc/pic32mx/4.5.2/../../../../pic32mx/lib/libm.a(fpsin32.o)
 .bss           0x00000000        0x0 /opt/microchip/xc32/v1.34/bin/bin/../../lib/gcc/pic32mx/4.5.2/../../../../pic32mx/lib/libm.a(fpsin32.o)
 .reginfo       0x00000000       0x18 /opt/microchip/xc32/v1.34/bin/bin/../../lib/gcc/pic32mx/4.5.2/../../../../pic32mx/lib/libm.a(fpsin32.o)
 .text          0x00000000        0x0 /opt/microchip/xc32/v1.34/bin/bin/../../lib/gcc/pic32mx/4.5.2/../../../../pic32mx/lib/libm.a(fptoli.o)
 .data          0x00000000        0x0 /opt/microchip/xc32/v1.34/bin/bin/../../lib/gcc/pic32mx/4.5.2/../../../../pic32mx/lib/libm.a(fptoli.o)
 .bss           0x00000000        0x0 /opt/microchip/xc32/v1.34/bin/bin/../../lib/gcc/pic32mx/4.5.2/../../../../pic32mx/lib/libm.a(fptoli.o)
 .reginfo       0x00000000       0x18 /opt/microchip/xc32/v1.34/bin/bin/../../lib/gcc/pic32mx/4.5.2/../../../../pic32mx/lib/libm.a(fptoli.o)
 .text          0x00000000        0x0 /opt/microchip/xc32/v1.34/bin/bin/../../lib/gcc/pic32mx/4.5.2/../../../../pic32mx/lib/libm.a(fptoul.o)
 .data          0x00000000        0x0 /opt/microchip/xc32/v1.34/bin/bin/../../lib/gcc/pic32mx/4.5.2/../../../../pic32mx/lib/libm.a(fptoul.o)
 .bss           0x00000000        0x0 /opt/microchip/xc32/v1.34/bin/bin/../../lib/gcc/pic32mx/4.5.2/../../../../pic32mx/lib/libm.a(fptoul.o)
 .reginfo       0x00000000       0x18 /opt/microchip/xc32/v1.34/bin/bin/../../lib/gcc/pic32mx/4.5.2/../../../../pic32mx/lib/libm.a(fptoul.o)
 .text          0x00000000        0x0 /opt/microchip/xc32/v1.34/bin/bin/../../lib/gcc/pic32mx/4.5.2/../../../../pic32mx/lib/libm.a(sincof32.o)
 .bss           0x00000000        0x0 /opt/microchip/xc32/v1.34/bin/bin/../../lib/gcc/pic32mx/4.5.2/../../../../pic32mx/lib/libm.a(sincof32.o)
 .reginfo       0x00000000       0x18 /opt/microchip/xc32/v1.34/bin/bin/../../lib/gcc/pic32mx/4.5.2/../../../../pic32mx/lib/libm.a(sincof32.o)
 .text          0x00000000        0x0 /opt/microchip/xc32/v1.34/bin/bin/../../lib/gcc/pic32mx/4.5.2/../../../../pic32mx/lib/libm.a(sitofp.o)
 .data          0x00000000        0x0 /opt/microchip/xc32/v1.34/bin/bin/../../lib/gcc/pic32mx/4.5.2/../../../../pic32mx/lib/libm.a(sitofp.o)
 .bss           0x00000000        0x0 /opt/microchip/xc32/v1.34/bin/bin/../../lib/gcc/pic32mx/4.5.2/../../../../pic32mx/lib/libm.a(sitofp.o)
 .reginfo       0x00000000       0x18 /opt/microchip/xc32/v1.34/bin/bin/../../lib/gcc/pic32mx/4.5.2/../../../../pic32mx/lib/libm.a(sitofp.o)
 .text          0x00000000        0x0 /opt/microchip/xc32/v1.34/bin/bin/../../lib/gcc/pic32mx/4.5.2/../../../../pic32mx/lib/libm.a(w_atan2f.o)
 .data          0x00000000        0x0 /opt/microchip/xc32/v1.34/bin/bin/../../lib/gcc/pic32mx/4.5.2/../../../../pic32mx/lib/libm.a(w_atan2f.o)
 .bss           0x00000000        0x0 /opt/microchip/xc32/v1.34/bin/bin/../../lib/gcc/pic32mx/4.5.2/../../../../pic32mx/lib/libm.a(w_atan2f.o)
 .reginfo       0x00000000       0x18 /opt/microchip/xc32/v1.34/bin/bin/../../lib/gcc/pic32mx/4.5.2/../../../../pic32mx/lib/libm.a(w_atan2f.o)
 .text          0x00000000        0x0 /opt/microchip/xc32/v1.34/bin/bin/../../lib/gcc/pic32mx/4.5.2/../../../../pic32mx/lib/libm.a(w_sqrtf.o)
 .data          0x00000000        0x0 /opt/microchip/xc32/v1.34/bin/bin/../../lib/gcc/pic32mx/4.5.2/../../../../pic32mx/lib/libm.a(w_sqrtf.o)
 .bss           0x00000000        0x0 /opt/microchip/xc32/v1.34/bin/bin/../../lib/gcc/pic32mx/4.5.2/../../../../pic32mx/lib/libm.a(w_sqrtf.o)
 .reginfo       0x00000000       0x18 /opt/microchip/xc32/v1.34/bin/bin/../../lib/gcc/pic32mx/4.5.2/../../../../pic32mx/lib/libm.a(w_sqrtf.o)
 .text          0x00000000        0x0 /opt/microchip/xc32/v1.34/bin/bin/../../lib/gcc/pic32mx/4.5.2/../../../../pic32mx/lib/libm.a(support.o)
 .data          0x00000000        0x0 /opt/microchip/xc32/v1.34/bin/bin/../../lib/gcc/pic32mx/4.5.2/../../../../pic32mx/lib/libm.a(support.o)
 .bss           0x00000000        0x0 /opt/microchip/xc32/v1.34/bin/bin/../../lib/gcc/pic32mx/4.5.2/../../../../pic32mx/lib/libm.a(support.o)
 .reginfo       0x00000000       0x18 /opt/microchip/xc32/v1.34/bin/bin/../../lib/gcc/pic32mx/4.5.2/../../../../pic32mx/lib/libm.a(support.o)
 .text.copysignl
                0x00000000       0x34 /opt/microchip/xc32/v1.34/bin/bin/../../lib/gcc/pic32mx/4.5.2/../../../../pic32mx/lib/libm.a(support.o)
 .text.copysign
                0x00000000       0x60 /opt/microchip/xc32/v1.34/bin/bin/../../lib/gcc/pic32mx/4.5.2/../../../../pic32mx/lib/libm.a(support.o)
 .text.copysignf
                0x00000000       0x60 /opt/microchip/xc32/v1.34/bin/bin/../../lib/gcc/pic32mx/4.5.2/../../../../pic32mx/lib/libm.a(support.o)
 .text.logbl    0x00000000      0x120 /opt/microchip/xc32/v1.34/bin/bin/../../lib/gcc/pic32mx/4.5.2/../../../../pic32mx/lib/libm.a(support.o)
 .text.logb     0x00000000       0x28 /opt/microchip/xc32/v1.34/bin/bin/../../lib/gcc/pic32mx/4.5.2/../../../../pic32mx/lib/libm.a(support.o)
 .text.logbf    0x00000000       0x28 /opt/microchip/xc32/v1.34/bin/bin/../../lib/gcc/pic32mx/4.5.2/../../../../pic32mx/lib/libm.a(support.o)
 .text.finite   0x00000000       0x34 /opt/microchip/xc32/v1.34/bin/bin/../../lib/gcc/pic32mx/4.5.2/../../../../pic32mx/lib/libm.a(support.o)
 .text.finitef  0x00000000       0x34 /opt/microchip/xc32/v1.34/bin/bin/../../lib/gcc/pic32mx/4.5.2/../../../../pic32mx/lib/libm.a(support.o)
 .text.dreml    0x00000000      0x474 /opt/microchip/xc32/v1.34/bin/bin/../../lib/gcc/pic32mx/4.5.2/../../../../pic32mx/lib/libm.a(support.o)
 .text.drem     0x00000000       0x28 /opt/microchip/xc32/v1.34/bin/bin/../../lib/gcc/pic32mx/4.5.2/../../../../pic32mx/lib/libm.a(support.o)
 .text.dremf    0x00000000       0x28 /opt/microchip/xc32/v1.34/bin/bin/../../lib/gcc/pic32mx/4.5.2/../../../../pic32mx/lib/libm.a(support.o)
 .rodata        0x00000000       0x20 /opt/microchip/xc32/v1.34/bin/bin/../../lib/gcc/pic32mx/4.5.2/../../../../pic32mx/lib/libm.a(support.o)
 .text          0x00000000        0x0 /opt/microchip/xc32/v1.34/bin/bin/../../lib/gcc/pic32mx/4.5.2/../../../../pic32mx/lib/libm.a(dpldexp.o)
 .data          0x00000000        0x0 /opt/microchip/xc32/v1.34/bin/bin/../../lib/gcc/pic32mx/4.5.2/../../../../pic32mx/lib/libm.a(dpldexp.o)
 .bss           0x00000000        0x0 /opt/microchip/xc32/v1.34/bin/bin/../../lib/gcc/pic32mx/4.5.2/../../../../pic32mx/lib/libm.a(dpldexp.o)
 .reginfo       0x00000000       0x18 /opt/microchip/xc32/v1.34/bin/bin/../../lib/gcc/pic32mx/4.5.2/../../../../pic32mx/lib/libm.a(dpldexp.o)
 .text.libm     0x00000000      0x16c /opt/microchip/xc32/v1.34/bin/bin/../../lib/gcc/pic32mx/4.5.2/../../../../pic32mx/lib/libm.a(dpldexp.o)
 .text          0x00000000        0x0 /opt/microchip/xc32/v1.34/bin/bin/../../lib/gcc/pic32mx/4.5.2/../../../../pic32mx/lib/libm.a(dp32div.o)
 .data          0x00000000        0x0 /opt/microchip/xc32/v1.34/bin/bin/../../lib/gcc/pic32mx/4.5.2/../../../../pic32mx/lib/libm.a(dp32div.o)
 .bss           0x00000000        0x0 /opt/microchip/xc32/v1.34/bin/bin/../../lib/gcc/pic32mx/4.5.2/../../../../pic32mx/lib/libm.a(dp32div.o)
 .reginfo       0x00000000       0x18 /opt/microchip/xc32/v1.34/bin/bin/../../lib/gcc/pic32mx/4.5.2/../../../../pic32mx/lib/libm.a(dp32div.o)
 .text.dp32mul  0x00000000      0x4b8 /opt/microchip/xc32/v1.34/bin/bin/../../lib/gcc/pic32mx/4.5.2/../../../../pic32mx/lib/libm.a(dp32div.o)
 .text          0x00000000        0x0 /opt/microchip/xc32/v1.34/bin/bin/../../lib/gcc/pic32mx/4.5.2/../../../../pic32mx/lib/libm.a(dp32mul.o)
 .data          0x00000000        0x0 /opt/microchip/xc32/v1.34/bin/bin/../../lib/gcc/pic32mx/4.5.2/../../../../pic32mx/lib/libm.a(dp32mul.o)
 .bss           0x00000000        0x0 /opt/microchip/xc32/v1.34/bin/bin/../../lib/gcc/pic32mx/4.5.2/../../../../pic32mx/lib/libm.a(dp32mul.o)
 .reginfo       0x00000000       0x18 /opt/microchip/xc32/v1.34/bin/bin/../../lib/gcc/pic32mx/4.5.2/../../../../pic32mx/lib/libm.a(dp32mul.o)
 .text.dp32mul  0x00000000      0x32c /opt/microchip/xc32/v1.34/bin/bin/../../lib/gcc/pic32mx/4.5.2/../../../../pic32mx/lib/libm.a(dp32mul.o)
 .text          0x00000000        0x0 /opt/microchip/xc32/v1.34/bin/bin/../../lib/gcc/pic32mx/4.5.2/../../../../pic32mx/lib/libm.a(dp32subadd.o)
 .data          0x00000000        0x0 /opt/microchip/xc32/v1.34/bin/bin/../../lib/gcc/pic32mx/4.5.2/../../../../pic32mx/lib/libm.a(dp32subadd.o)
 .bss           0x00000000        0x0 /opt/microchip/xc32/v1.34/bin/bin/../../lib/gcc/pic32mx/4.5.2/../../../../pic32mx/lib/libm.a(dp32subadd.o)
 .reginfo       0x00000000       0x18 /opt/microchip/xc32/v1.34/bin/bin/../../lib/gcc/pic32mx/4.5.2/../../../../pic32mx/lib/libm.a(dp32subadd.o)
 .text.dp32subadd
                0x00000000      0x430 /opt/microchip/xc32/v1.34/bin/bin/../../lib/gcc/pic32mx/4.5.2/../../../../pic32mx/lib/libm.a(dp32subadd.o)
 .text          0x00000000        0x0 /opt/microchip/xc32/v1.34/bin/bin/../../lib/gcc/pic32mx/4.5.2/../../../../pic32mx/lib/libm.a(dpcmp.o)
 .data          0x00000000        0x0 /opt/microchip/xc32/v1.34/bin/bin/../../lib/gcc/pic32mx/4.5.2/../../../../pic32mx/lib/libm.a(dpcmp.o)
 .bss           0x00000000        0x0 /opt/microchip/xc32/v1.34/bin/bin/../../lib/gcc/pic32mx/4.5.2/../../../../pic32mx/lib/libm.a(dpcmp.o)
 .reginfo       0x00000000       0x18 /opt/microchip/xc32/v1.34/bin/bin/../../lib/gcc/pic32mx/4.5.2/../../../../pic32mx/lib/libm.a(dpcmp.o)
 .text          0x00000000        0x0 /opt/microchip/xc32/v1.34/bin/bin/../../lib/gcc/pic32mx/4.5.2/../../../../pic32mx/lib/libm.a(dptofp.o)
 .data          0x00000000        0x0 /opt/microchip/xc32/v1.34/bin/bin/../../lib/gcc/pic32mx/4.5.2/../../../../pic32mx/lib/libm.a(dptofp.o)
 .bss           0x00000000        0x0 /opt/microchip/xc32/v1.34/bin/bin/../../lib/gcc/pic32mx/4.5.2/../../../../pic32mx/lib/libm.a(dptofp.o)
 .reginfo       0x00000000       0x18 /opt/microchip/xc32/v1.34/bin/bin/../../lib/gcc/pic32mx/4.5.2/../../../../pic32mx/lib/libm.a(dptofp.o)
 .text          0x00000000        0x0 /opt/microchip/xc32/v1.34/bin/bin/../../lib/gcc/pic32mx/4.5.2/../../../../pic32mx/lib/libm.a(fpatan2.o)
 .data          0x00000000        0x0 /opt/microchip/xc32/v1.34/bin/bin/../../lib/gcc/pic32mx/4.5.2/../../../../pic32mx/lib/libm.a(fpatan2.o)
 .bss           0x00000000        0x0 /opt/microchip/xc32/v1.34/bin/bin/../../lib/gcc/pic32mx/4.5.2/../../../../pic32mx/lib/libm.a(fpatan2.o)
 .reginfo       0x00000000       0x18 /opt/microchip/xc32/v1.34/bin/bin/../../lib/gcc/pic32mx/4.5.2/../../../../pic32mx/lib/libm.a(fpatan2.o)
 .text          0x00000000        0x0 /opt/microchip/xc32/v1.34/bin/bin/../../lib/gcc/pic32mx/4.5.2/../../../../pic32mx/lib/libm.a(fpexatan.o)
 .bss           0x00000000        0x0 /opt/microchip/xc32/v1.34/bin/bin/../../lib/gcc/pic32mx/4.5.2/../../../../pic32mx/lib/libm.a(fpexatan.o)
 .reginfo       0x00000000       0x18 /opt/microchip/xc32/v1.34/bin/bin/../../lib/gcc/pic32mx/4.5.2/../../../../pic32mx/lib/libm.a(fpexatan.o)
 .text.fpexatan
                0x00000000        0x0 /opt/microchip/xc32/v1.34/bin/bin/../../lib/gcc/pic32mx/4.5.2/../../../../pic32mx/lib/libm.a(fpexatan.o)
 .text          0x00000000        0x0 /opt/microchip/xc32/v1.34/bin/bin/../../lib/gcc/pic32mx/4.5.2/../../../../pic32mx/lib/libm.a(fpexsqrt32.o)
 .data          0x00000000        0x0 /opt/microchip/xc32/v1.34/bin/bin/../../lib/gcc/pic32mx/4.5.2/../../../../pic32mx/lib/libm.a(fpexsqrt32.o)
 .bss           0x00000000        0x0 /opt/microchip/xc32/v1.34/bin/bin/../../lib/gcc/pic32mx/4.5.2/../../../../pic32mx/lib/libm.a(fpexsqrt32.o)
 .reginfo       0x00000000       0x18 /opt/microchip/xc32/v1.34/bin/bin/../../lib/gcc/pic32mx/4.5.2/../../../../pic32mx/lib/libm.a(fpexsqrt32.o)
 .text          0x00000000        0x0 /opt/microchip/xc32/v1.34/bin/bin/../../lib/gcc/pic32mx/4.5.2/../../../../pic32mx/lib/libm.a(fpsqrt32.o)
 .data          0x00000000        0x0 /opt/microchip/xc32/v1.34/bin/bin/../../lib/gcc/pic32mx/4.5.2/../../../../pic32mx/lib/libm.a(fpsqrt32.o)
 .bss           0x00000000        0x0 /opt/microchip/xc32/v1.34/bin/bin/../../lib/gcc/pic32mx/4.5.2/../../../../pic32mx/lib/libm.a(fpsqrt32.o)
 .reginfo       0x00000000       0x18 /opt/microchip/xc32/v1.34/bin/bin/../../lib/gcc/pic32mx/4.5.2/../../../../pic32mx/lib/libm.a(fpsqrt32.o)
 .text          0x00000000        0x0 /opt/microchip/xc32/v1.34/bin/bin/../../lib/gcc/pic32mx/4.5.2/../../../../pic32mx/lib/libm.a(fptodp.o)
 .data          0x00000000        0x0 /opt/microchip/xc32/v1.34/bin/bin/../../lib/gcc/pic32mx/4.5.2/../../../../pic32mx/lib/libm.a(fptodp.o)
 .bss           0x00000000        0x0 /opt/microchip/xc32/v1.34/bin/bin/../../lib/gcc/pic32mx/4.5.2/../../../../pic32mx/lib/libm.a(fptodp.o)
 .reginfo       0x00000000       0x18 /opt/microchip/xc32/v1.34/bin/bin/../../lib/gcc/pic32mx/4.5.2/../../../../pic32mx/lib/libm.a(fptodp.o)
 .text          0x00000000        0x0 /opt/microchip/xc32/v1.34/bin/bin/../../lib/gcc/pic32mx/4.5.2/../../../../pic32mx/lib/libm.a(litodp.o)
 .data          0x00000000        0x0 /opt/microchip/xc32/v1.34/bin/bin/../../lib/gcc/pic32mx/4.5.2/../../../../pic32mx/lib/libm.a(litodp.o)
 .bss           0x00000000        0x0 /opt/microchip/xc32/v1.34/bin/bin/../../lib/gcc/pic32mx/4.5.2/../../../../pic32mx/lib/libm.a(litodp.o)
 .reginfo       0x00000000       0x18 /opt/microchip/xc32/v1.34/bin/bin/../../lib/gcc/pic32mx/4.5.2/../../../../pic32mx/lib/libm.a(litodp.o)
 .text.litodp   0x00000000       0x78 /opt/microchip/xc32/v1.34/bin/bin/../../lib/gcc/pic32mx/4.5.2/../../../../pic32mx/lib/libm.a(litodp.o)
 .text          0x00000000        0x0 /opt/microchip/xc32/v1.34/bin/bin/../../lib/gcc/pic32mx/4.5.2/../../../../pic32mx/lib/libm.a(s_lib_ver.o)
 .data          0x00000000        0x0 /opt/microchip/xc32/v1.34/bin/bin/../../lib/gcc/pic32mx/4.5.2/../../../../pic32mx/lib/libm.a(s_lib_ver.o)
 .bss           0x00000000        0x0 /opt/microchip/xc32/v1.34/bin/bin/../../lib/gcc/pic32mx/4.5.2/../../../../pic32mx/lib/libm.a(s_lib_ver.o)
 .reginfo       0x00000000       0x18 /opt/microchip/xc32/v1.34/bin/bin/../../lib/gcc/pic32mx/4.5.2/../../../../pic32mx/lib/libm.a(s_lib_ver.o)
 .text          0x00000000        0x0 /opt/microchip/xc32/v1.34/bin/bin/../../lib/gcc/pic32mx/4.5.2/../../../../pic32mx/lib/libc.a(errno.o)
 .data          0x00000000        0x0 /opt/microchip/xc32/v1.34/bin/bin/../../lib/gcc/pic32mx/4.5.2/../../../../pic32mx/lib/libc.a(errno.o)
 .bss           0x00000000        0x0 /opt/microchip/xc32/v1.34/bin/bin/../../lib/gcc/pic32mx/4.5.2/../../../../pic32mx/lib/libc.a(errno.o)
 .reginfo       0x00000000       0x18 /opt/microchip/xc32/v1.34/bin/bin/../../lib/gcc/pic32mx/4.5.2/../../../../pic32mx/lib/libc.a(errno.o)

Memory Configuration

Name             Origin             Length             Attributes
kseg0_program_mem 0x9d000000         0x00100000         xr
kseg0_boot_mem   0x9fc004b0         0x00000000
kseg1_boot_mem   0xbfc00000         0x00000480
kseg1_boot_mem_4B0 0xbfc004b0         0x0000fa50
config_BFC0FF40  0xbfc0ff40         0x00000004
config_BFC0FF44  0xbfc0ff44         0x00000004
config_BFC0FF48  0xbfc0ff48         0x00000004
config_BFC0FF4C  0xbfc0ff4c         0x00000004
config_BFC0FF50  0xbfc0ff50         0x00000004
config_BFC0FF54  0xbfc0ff54         0x00000004
config_BFC0FF58  0xbfc0ff58         0x00000004
config_BFC0FF5C  0xbfc0ff5c         0x00000004
config_BFC0FF60  0xbfc0ff60         0x00000004
config_BFC0FF64  0xbfc0ff64         0x00000004
config_BFC0FF68  0xbfc0ff68         0x00000004
config_BFC0FF6C  0xbfc0ff6c         0x00000004
config_BFC0FF70  0xbfc0ff70         0x00000004
config_BFC0FF74  0xbfc0ff74         0x00000004
config_BFC0FF78  0xbfc0ff78         0x00000004
config_BFC0FF7C  0xbfc0ff7c         0x00000004
config_BFC0FFC0  0xbfc0ffc0         0x00000004
config_BFC0FFC4  0xbfc0ffc4         0x00000004
config_BFC0FFC8  0xbfc0ffc8         0x00000004
config_BFC0FFCC  0xbfc0ffcc         0x00000004
config_BFC0FFD0  0xbfc0ffd0         0x00000004
config_BFC0FFD4  0xbfc0ffd4         0x00000004
config_BFC0FFD8  0xbfc0ffd8         0x00000004
config_BFC0FFDC  0xbfc0ffdc         0x00000004
config_BFC0FFE0  0xbfc0ffe0         0x00000004
config_BFC0FFE4  0xbfc0ffe4         0x00000004
config_BFC0FFE8  0xbfc0ffe8         0x00000004
config_BFC0FFEC  0xbfc0ffec         0x00000004
config_BFC0FFF0  0xbfc0fff0         0x00000004
config_BFC0FFF4  0xbfc0fff4         0x00000004
config_BFC0FFF8  0xbfc0fff8         0x00000004
config_BFC0FFFC  0xbfc0fffc         0x00000004
lowerbootaliaslastpage 0xbfc10000         0x00004000
upperbootalias   0xbfc20000         0x00014000
boot1            0xbfc40000         0x0000ff00
config_BFC4FF40  0xbfc4ff40         0x00000004
config_BFC4FF44  0xbfc4ff44         0x00000004
config_BFC4FF48  0xbfc4ff48         0x00000004
config_BFC4FF4C  0xbfc4ff4c         0x00000004
config_BFC4FF50  0xbfc4ff50         0x00000004
config_BFC4FF54  0xbfc4ff54         0x00000004
config_BFC4FF58  0xbfc4ff58         0x00000004
config_BFC4FF5C  0xbfc4ff5c         0x00000004
config_BFC4FF60  0xbfc4ff60         0x00000004
config_BFC4FF64  0xbfc4ff64         0x00000004
config_BFC4FF68  0xbfc4ff68         0x00000004
config_BFC4FF6C  0xbfc4ff6c         0x00000004
config_BFC4FF70  0xbfc4ff70         0x00000004
config_BFC4FF74  0xbfc4ff74         0x00000004
config_BFC4FF78  0xbfc4ff78         0x00000004
config_BFC4FF7C  0xbfc4ff7c         0x00000004
config_BFC4FFC0  0xbfc4ffc0         0x00000004
config_BFC4FFC4  0xbfc4ffc4         0x00000004
config_BFC4FFC8  0xbfc4ffc8         0x00000004
config_BFC4FFCC  0xbfc4ffcc         0x00000004
config_BFC4FFD0  0xbfc4ffd0         0x00000004
config_BFC4FFD4  0xbfc4ffd4         0x00000004
config_BFC4FFD8  0xbfc4ffd8         0x00000004
config_BFC4FFDC  0xbfc4ffdc         0x00000004
config_BFC4FFE0  0xbfc4ffe0         0x00000004
config_BFC4FFE4  0xbfc4ffe4         0x00000004
config_BFC4FFE8  0xbfc4ffe8         0x00000004
config_BFC4FFEC  0xbfc4ffec         0x00000004
config_BFC4FFF0  0xbfc4fff0         0x00000004
config_BFC4FFF4  0xbfc4fff4         0x00000004
config_BFC4FFF8  0xbfc4fff8         0x00000004
config_BFC4FFFC  0xbfc4fffc         0x00000004
boot1lastpage    0xbfc50000         0x00004000
config_BFC54000  0xbfc54000         0x00000004
config_BFC54004  0xbfc54004         0x00000004
config_BFC54008  0xbfc54008         0x00000004
config_BFC5400C  0xbfc5400c         0x00000004
config_BFC54010  0xbfc54010         0x00000004
config_BFC54020  0xbfc54020         0x00000004
config_BFC54024  0xbfc54024         0x00000004
boot2            0xbfc60000         0x0000ff00
config_BFC6FF40  0xbfc6ff40         0x00000004
config_BFC6FF44  0xbfc6ff44         0x00000004
config_BFC6FF48  0xbfc6ff48         0x00000004
config_BFC6FF4C  0xbfc6ff4c         0x00000004
config_BFC6FF50  0xbfc6ff50         0x00000004
config_BFC6FF54  0xbfc6ff54         0x00000004
config_BFC6FF58  0xbfc6ff58         0x00000004
config_BFC6FF5C  0xbfc6ff5c         0x00000004
config_BFC6FF60  0xbfc6ff60         0x00000004
config_BFC6FF64  0xbfc6ff64         0x00000004
config_BFC6FF68  0xbfc6ff68         0x00000004
config_BFC6FF6C  0xbfc6ff6c         0x00000004
config_BFC6FF70  0xbfc6ff70         0x00000004
config_BFC6FF74  0xbfc6ff74         0x00000004
config_BFC6FF78  0xbfc6ff78         0x00000004
config_BFC6FF7C  0xbfc6ff7c         0x00000004
config_BFC6FFC0  0xbfc6ffc0         0x00000004
config_BFC6FFC4  0xbfc6ffc4         0x00000004
config_BFC6FFC8  0xbfc6ffc8         0x00000004
config_BFC6FFCC  0xbfc6ffcc         0x00000004
config_BFC6FFD0  0xbfc6ffd0         0x00000004
config_BFC6FFD4  0xbfc6ffd4         0x00000004
config_BFC6FFD8  0xbfc6ffd8         0x00000004
config_BFC6FFDC  0xbfc6ffdc         0x00000004
config_BFC6FFE0  0xbfc6ffe0         0x00000004
config_BFC6FFE4  0xbfc6ffe4         0x00000004
config_BFC6FFE8  0xbfc6ffe8         0x00000004
config_BFC6FFEC  0xbfc6ffec         0x00000004
config_BFC6FFF0  0xbfc6fff0         0x00000004
config_BFC6FFF4  0xbfc6fff4         0x00000004
config_BFC6FFF8  0xbfc6fff8         0x00000004
config_BFC6FFFC  0xbfc6fffc         0x00000004
boot2lastpage    0xbfc70000         0x00004000
kseg0_data_mem   0x80000000         0x00080000         w !x
sfrs             0xbf800000         0x00100000
configsfrs_BFC0FF40 0xbfc0ff40         0x00000040
configsfrs_BFC0FFC0 0xbfc0ffc0         0x00000040
configsfrs_BFC4FF40 0xbfc4ff40         0x00000040
configsfrs_BFC4FFC0 0xbfc4ffc0         0x00000040
configsfrs_BFC54000 0xbfc54000         0x00000014
configsfrs_BFC54020 0xbfc54020         0x00000008
configsfrs_BFC6FF40 0xbfc6ff40         0x00000040
configsfrs_BFC6FFC0 0xbfc6ffc0         0x00000040
kseg2_sqi_data_mem 0xd0000000         0x04000000
kseg3_sqi_data_mem 0xf0000000         0x04000000
*default*        0x00000000         0xffffffff

Linker script and memory map

LOAD /opt/microchip/xc32/v1.34/bin/bin/../../lib/gcc/pic32mx/4.5.2/../../../../pic32mx/lib/./proc/32MZ1024ECG064/crt0_mips32r2.o
LOAD /opt/microchip/xc32/v1.34/bin/bin/../../lib/gcc/pic32mx/4.5.2/../../../../pic32mx/lib/debug-exception-return.o
LOAD build/pic32mz1024ecg064/production/_ext/115108523/decoder.o
LOAD build/pic32mz1024ecg064/production/_ext/115108523/dots_localization.o
LOAD build/pic32mz1024ecg064/production/_ext/115108523/grid.o
LOAD build/pic32mz1024ecg064/production/_ext/115108523/imgproc.o
LOAD build/pic32mz1024ecg064/production/_ext/115108523/imgsegment.o
LOAD build/pic32mz1024ecg064/production/_ext/115108523/intgrid.o
LOAD build/pic32mz1024ecg064/production/_ext/115108523/gridprobability.o
LOAD build/pic32mz1024ecg064/production/_ext/115108523/intlist.o
LOAD build/pic32mz1024ecg064/production/_ext/63677053/drv_i2c_static.o
LOAD build/pic32mz1024ecg064/production/_ext/2001973653/drv_spi_static.o
LOAD build/pic32mz1024ecg064/production/_ext/1040884377/drv_usart_static.o
LOAD build/pic32mz1024ecg064/production/_ext/563981586/sys_clk_static.o
LOAD build/pic32mz1024ecg064/production/_ext/672157374/sys_ports_static.o
LOAD build/pic32mz1024ecg064/production/_ext/1055008133/system_init.o
LOAD build/pic32mz1024ecg064/production/_ext/1055008133/system_interrupt.o
LOAD build/pic32mz1024ecg064/production/_ext/1055008133/system_tasks.o
LOAD build/pic32mz1024ecg064/production/_ext/1360937237/main.o
LOAD build/pic32mz1024ecg064/production/_ext/1360937237/led.o
LOAD build/pic32mz1024ecg064/production/_ext/1360937237/i2c.o
LOAD build/pic32mz1024ecg064/production/_ext/1360937237/mt9v034.o
LOAD build/pic32mz1024ecg064/production/_ext/1360937237/cam.o
LOAD build/pic32mz1024ecg064/production/_ext/1360937237/bluetooth.o
LOAD build/pic32mz1024ecg064/production/_ext/1360937237/at42qt1070.o
LOAD build/pic32mz1024ecg064/production/_ext/1360937237/touch.o
LOAD build/pic32mz1024ecg064/production/_ext/1360937237/battery.o
LOAD build/pic32mz1024ecg064/production/_ext/1360937237/timer.o
LOAD build/pic32mz1024ecg064/production/_ext/1360937237/power.o
LOAD build/pic32mz1024ecg064/production/_ext/1360937237/watchdog.o
LOAD build/pic32mz1024ecg064/production/_ext/1360937237/motor.o
LOAD build/pic32mz1024ecg064/production/_ext/1360937237/motion.o
LOAD build/pic32mz1024ecg064/production/_ext/1360937237/localization.o
LOAD build/pic32mz1024ecg064/production/_ext/1360937237/pid.o
LOAD build/pic32mz1024ecg064/production/_ext/1360937237/gesture.o
LOAD build/pic32mz1024ecg064/production/_ext/1360937237/haptics.o
LOAD build/pic32mz1024ecg064/production/_ext/1360937237/bezier.o
LOAD build/pic32mz1024ecg064/production/_ext/431183094/sys_devcon.o
LOAD build/pic32mz1024ecg064/production/_ext/431183094/sys_devcon_pic32mz.o
LOAD build/pic32mz1024ecg064/production/_ext/431183094/sys_devcon_cache_pic32mz.o
LOAD build/pic32mz1024ecg064/production/_ext/754521456/sys_int_pic32.o
LOAD build/pic32mz1024ecg064/production/_ext/1419604243/sys_ports.o
LOAD /opt/microchip/harmony/v1_03/bin/framework/peripheral/PIC32MZ1024ECG064_peripherals.a
                0x00000001                __MPLAB_BUILD = 0x1
                0x00030d40                _min_heap_size = 0x30d40
LOAD /opt/microchip/xc32/v1.34/bin/bin/../../lib/gcc/pic32mx/4.5.2/../../../../pic32mx/lib/./proc/32MZ1024ECG064/default_isr_vectors.o
LOAD /opt/microchip/xc32/v1.34/bin/bin/../../lib/gcc/pic32mx/4.5.2/../../../../pic32mx/lib/pic32_software_reset.o
                0x00000400                PROVIDE (_min_stack_size, 0x400)
LOAD /opt/microchip/xc32/v1.34/bin/bin/../../lib/gcc/pic32mx/4.5.2/../../../../pic32mx/lib/./proc/32MZ1024ECG064/processor.o
START GROUP
LOAD /opt/microchip/xc32/v1.34/bin/bin/../../lib/gcc/pic32mx/4.5.2/../../../../pic32mx/lib/libmchp_peripheral.a
END GROUP
START GROUP
LOAD libmchp_peripheral_32MZ1024ECG064.a
END GROUP
START GROUP
LOAD /opt/microchip/xc32/v1.34/bin/bin/../../lib/gcc/pic32mx/4.5.2/../../../../pic32mx/lib/./proc/32MZ1024ECG064/vector_offset_init.o
END GROUP
                0x00000001                PROVIDE (_vector_spacing, 0x1)
                0x9d000000                PROVIDE (_ebase_address, 0x9d000000)
                0xbfc00000                _RESET_ADDR = 0xbfc00000
                0xbfc00380                _BEV_EXCPT_ADDR = 0xbfc00380
                0xbfc00480                _DBG_EXCPT_ADDR = 0xbfc00480
                0x9d000000                _SIMPLE_TLB_REFILL_EXCPT_ADDR = (_ebase_address + 0x0)
                0x9d000100                _CACHE_ERR_EXCPT_ADDR = (_ebase_address + 0x100)
                0x9d000180                _GEN_EXCPT_ADDR = (_ebase_address + 0x180)

.config_BFC0FF40
 *(.config_BFC0FF40)

.config_BFC0FF44
 *(.config_BFC0FF44)

.config_BFC0FF48
 *(.config_BFC0FF48)

.config_BFC0FF4C
 *(.config_BFC0FF4C)

.config_BFC0FF50
 *(.config_BFC0FF50)

.config_BFC0FF54
 *(.config_BFC0FF54)

.config_BFC0FF58
 *(.config_BFC0FF58)

.config_BFC0FF5C
 *(.config_BFC0FF5C)

.config_BFC0FF60
 *(.config_BFC0FF60)

.config_BFC0FF64
 *(.config_BFC0FF64)

.config_BFC0FF68
 *(.config_BFC0FF68)

.config_BFC0FF6C
 *(.config_BFC0FF6C)

.config_BFC0FF70
 *(.config_BFC0FF70)

.config_BFC0FF74
 *(.config_BFC0FF74)

.config_BFC0FF78
 *(.config_BFC0FF78)

.config_BFC0FF7C
 *(.config_BFC0FF7C)

.config_BFC0FFC0
                0xbfc0ffc0        0x4
 *(.config_BFC0FFC0)
 .config_BFC0FFC0
                0xbfc0ffc0        0x4 build/pic32mz1024ecg064/production/_ext/1055008133/system_init.o

.config_BFC0FFC4
                0xbfc0ffc4        0x4
 *(.config_BFC0FFC4)
 .config_BFC0FFC4
                0xbfc0ffc4        0x4 build/pic32mz1024ecg064/production/_ext/1055008133/system_init.o

.config_BFC0FFC8
                0xbfc0ffc8        0x4
 *(.config_BFC0FFC8)
 .config_BFC0FFC8
                0xbfc0ffc8        0x4 build/pic32mz1024ecg064/production/_ext/1055008133/system_init.o

.config_BFC0FFCC
                0xbfc0ffcc        0x4
 *(.config_BFC0FFCC)
 .config_BFC0FFCC
                0xbfc0ffcc        0x4 build/pic32mz1024ecg064/production/_ext/1055008133/system_init.o

.config_BFC0FFD0
 *(.config_BFC0FFD0)

.config_BFC0FFD4
 *(.config_BFC0FFD4)

.config_BFC0FFD8
 *(.config_BFC0FFD8)

.config_BFC0FFDC
                0xbfc0ffdc        0x4
 *(.config_BFC0FFDC)
 .config_BFC0FFDC
                0xbfc0ffdc        0x4 build/pic32mz1024ecg064/production/_ext/1055008133/system_init.o

.config_BFC0FFE0
 *(.config_BFC0FFE0)

.config_BFC0FFE4
 *(.config_BFC0FFE4)

.config_BFC0FFE8
 *(.config_BFC0FFE8)

.config_BFC0FFEC
 *(.config_BFC0FFEC)

.config_BFC0FFF0
 *(.config_BFC0FFF0)

.config_BFC0FFF4
 *(.config_BFC0FFF4)

.config_BFC0FFF8
 *(.config_BFC0FFF8)

.config_BFC0FFFC
                0xbfc0fffc        0x4
 *(.config_BFC0FFFC)
 .config_BFC0FFFC
                0xbfc0fffc        0x4 build/pic32mz1024ecg064/production/_ext/1055008133/system_init.o

.config_BFC4FF40
 *(.config_BFC4FF40)

.config_BFC4FF44
 *(.config_BFC4FF44)

.config_BFC4FF48
 *(.config_BFC4FF48)

.config_BFC4FF4C
 *(.config_BFC4FF4C)

.config_BFC4FF50
 *(.config_BFC4FF50)

.config_BFC4FF54
 *(.config_BFC4FF54)

.config_BFC4FF58
 *(.config_BFC4FF58)

.config_BFC4FF5C
 *(.config_BFC4FF5C)

.config_BFC4FF60
 *(.config_BFC4FF60)

.config_BFC4FF64
 *(.config_BFC4FF64)

.config_BFC4FF68
 *(.config_BFC4FF68)

.config_BFC4FF6C
 *(.config_BFC4FF6C)

.config_BFC4FF70
 *(.config_BFC4FF70)

.config_BFC4FF74
 *(.config_BFC4FF74)

.config_BFC4FF78
 *(.config_BFC4FF78)

.config_BFC4FF7C
 *(.config_BFC4FF7C)

.config_BFC4FFC0
 *(.config_BFC4FFC0)

.config_BFC4FFC4
 *(.config_BFC4FFC4)

.config_BFC4FFC8
 *(.config_BFC4FFC8)

.config_BFC4FFCC
 *(.config_BFC4FFCC)

.config_BFC4FFD0
 *(.config_BFC4FFD0)

.config_BFC4FFD4
 *(.config_BFC4FFD4)

.config_BFC4FFD8
 *(.config_BFC4FFD8)

.config_BFC4FFDC
 *(.config_BFC4FFDC)

.config_BFC4FFE0
 *(.config_BFC4FFE0)

.config_BFC4FFE4
 *(.config_BFC4FFE4)

.config_BFC4FFE8
 *(.config_BFC4FFE8)

.config_BFC4FFEC
 *(.config_BFC4FFEC)

.config_BFC4FFF0
 *(.config_BFC4FFF0)

.config_BFC4FFF4
 *(.config_BFC4FFF4)

.config_BFC4FFF8
 *(.config_BFC4FFF8)

.config_BFC4FFFC
 *(.config_BFC4FFFC)

.config_BFC54000
 *(.config_BFC54000)

.config_BFC54004
 *(.config_BFC54004)

.config_BFC54008
 *(.config_BFC54008)

.config_BFC5400C
 *(.config_BFC5400C)

.config_BFC54010
 *(.config_BFC54010)

.config_BFC54020
 *(.config_BFC54020)

.config_BFC54024
 *(.config_BFC54024)

.config_BFC6FF40
 *(.config_BFC6FF40)

.config_BFC6FF44
 *(.config_BFC6FF44)

.config_BFC6FF48
 *(.config_BFC6FF48)

.config_BFC6FF4C
 *(.config_BFC6FF4C)

.config_BFC6FF50
 *(.config_BFC6FF50)

.config_BFC6FF54
 *(.config_BFC6FF54)

.config_BFC6FF58
 *(.config_BFC6FF58)

.config_BFC6FF5C
 *(.config_BFC6FF5C)

.config_BFC6FF60
 *(.config_BFC6FF60)

.config_BFC6FF64
 *(.config_BFC6FF64)

.config_BFC6FF68
 *(.config_BFC6FF68)

.config_BFC6FF6C
 *(.config_BFC6FF6C)

.config_BFC6FF70
 *(.config_BFC6FF70)

.config_BFC6FF74
 *(.config_BFC6FF74)

.config_BFC6FF78
 *(.config_BFC6FF78)

.config_BFC6FF7C
 *(.config_BFC6FF7C)

.config_BFC6FFC0
 *(.config_BFC6FFC0)

.config_BFC6FFC4
 *(.config_BFC6FFC4)

.config_BFC6FFC8
 *(.config_BFC6FFC8)

.config_BFC6FFCC
 *(.config_BFC6FFCC)

.config_BFC6FFD0
 *(.config_BFC6FFD0)

.config_BFC6FFD4
 *(.config_BFC6FFD4)

.config_BFC6FFD8
 *(.config_BFC6FFD8)

.config_BFC6FFDC
 *(.config_BFC6FFDC)

.config_BFC6FFE0
 *(.config_BFC6FFE0)

.config_BFC6FFE4
 *(.config_BFC6FFE4)

.config_BFC6FFE8
 *(.config_BFC6FFE8)

.config_BFC6FFEC
 *(.config_BFC6FFEC)

.config_BFC6FFF0
 *(.config_BFC6FFF0)

.config_BFC6FFF4
 *(.config_BFC6FFF4)

.config_BFC6FFF8
 *(.config_BFC6FFF8)

.config_BFC6FFFC
 *(.config_BFC6FFFC)

.reset          0xbfc00000      0x1f8
 *(.reset)
 .reset         0xbfc00000       0x18 /opt/microchip/xc32/v1.34/bin/bin/../../lib/gcc/pic32mx/4.5.2/../../../../pic32mx/lib/./proc/32MZ1024ECG064/crt0_mips32r2.o
                0xbfc00000                _reset
 *(.reset.startup)
 .reset.startup
                0xbfc00018      0x1e0 /opt/microchip/xc32/v1.34/bin/bin/../../lib/gcc/pic32mx/4.5.2/../../../../pic32mx/lib/./proc/32MZ1024ECG064/crt0_mips32r2.o

.bev_excpt      0xbfc00380       0x10
 *(.bev_handler)
 .bev_handler   0xbfc00380       0x10 /opt/microchip/xc32/v1.34/bin/bin/../../lib/gcc/pic32mx/4.5.2/../../../../pic32mx/lib/./proc/32MZ1024ECG064/crt0_mips32r2.o

.cache_init     0xbfc004b0      0x184
 *(.cache_init)
 *(.cache_init.*)
 .cache_init.cache
                0xbfc004b0       0xc0 /opt/microchip/xc32/v1.34/bin/bin/../../lib/gcc/pic32mx/4.5.2/../../../../pic32mx/lib/libpic32.a(pic32_init_cache.o)
 .cache_init.pic32_init_cache
                0xbfc00570       0xc4 /opt/microchip/xc32/v1.34/bin/bin/../../lib/gcc/pic32mx/4.5.2/../../../../pic32mx/lib/libpic32.a(pic32_init_cache.o)
                0xbfc00570                __pic32_init_cache

.simple_tlb_refill_excpt
                0x9d000000       0x10
 *(.simple_tlb_refill_vector)
 .simple_tlb_refill_vector
                0x9d000000       0x10 /opt/microchip/xc32/v1.34/bin/bin/../../lib/gcc/pic32mx/4.5.2/../../../../pic32mx/lib/./proc/32MZ1024ECG064/crt0_mips32r2.o

.cache_err_excpt
                0x9d000100       0x10
 *(.cache_err_vector)
 .cache_err_vector
                0x9d000100       0x10 /opt/microchip/xc32/v1.34/bin/bin/../../lib/gcc/pic32mx/4.5.2/../../../../pic32mx/lib/./proc/32MZ1024ECG064/crt0_mips32r2.o

.app_excpt      0x9d000180       0x10
 *(.gen_handler)
 .gen_handler   0x9d000180       0x10 /opt/microchip/xc32/v1.34/bin/bin/../../lib/gcc/pic32mx/4.5.2/../../../../pic32mx/lib/./proc/32MZ1024ECG064/crt0_mips32r2.o

.vectors        0x9d000200       0xa0
                0x00000268                __vector_offset_0 = DEFINED (__vector_dispatch_0)?(. - _ebase_address):__vector_offset_default
 *(.vector_0)
                0x00000268                __vector_offset_1 = DEFINED (__vector_dispatch_1)?(. - _ebase_address):__vector_offset_default
 *(.vector_1)
                0x00000268                __vector_offset_2 = DEFINED (__vector_dispatch_2)?(. - _ebase_address):__vector_offset_default
 *(.vector_2)
                0x00000268                __vector_offset_3 = DEFINED (__vector_dispatch_3)?(. - _ebase_address):__vector_offset_default
 *(.vector_3)
                0x00000268                __vector_offset_4 = DEFINED (__vector_dispatch_4)?(. - _ebase_address):__vector_offset_default
 *(.vector_4)
                0x00000268                __vector_offset_5 = DEFINED (__vector_dispatch_5)?(. - _ebase_address):__vector_offset_default
 *(.vector_5)
                0x00000268                __vector_offset_6 = DEFINED (__vector_dispatch_6)?(. - _ebase_address):__vector_offset_default
 *(.vector_6)
                0x00000268                __vector_offset_7 = DEFINED (__vector_dispatch_7)?(. - _ebase_address):__vector_offset_default
 *(.vector_7)
                0x00000268                __vector_offset_8 = DEFINED (__vector_dispatch_8)?(. - _ebase_address):__vector_offset_default
 *(.vector_8)
                0x00000268                __vector_offset_9 = DEFINED (__vector_dispatch_9)?(. - _ebase_address):__vector_offset_default
 *(.vector_9)
                0x00000268                __vector_offset_10 = DEFINED (__vector_dispatch_10)?(. - _ebase_address):__vector_offset_default
 *(.vector_10)
                0x00000268                __vector_offset_11 = DEFINED (__vector_dispatch_11)?(. - _ebase_address):__vector_offset_default
 *(.vector_11)
                0x00000268                __vector_offset_12 = DEFINED (__vector_dispatch_12)?(. - _ebase_address):__vector_offset_default
 *(.vector_12)
                0x00000268                __vector_offset_13 = DEFINED (__vector_dispatch_13)?(. - _ebase_address):__vector_offset_default
 *(.vector_13)
                0x00000200                __vector_offset_14 = DEFINED (__vector_dispatch_14)?(. - _ebase_address):__vector_offset_default
 *(.vector_14)
 .vector_14     0x9d000200        0x8 build/pic32mz1024ecg064/production/_ext/1360937237/led.o
                0x9d000200                __vector_dispatch_14
                0x00000268                __vector_offset_15 = DEFINED (__vector_dispatch_15)?(. - _ebase_address):__vector_offset_default
 *(.vector_15)
                0x00000268                __vector_offset_16 = DEFINED (__vector_dispatch_16)?(. - _ebase_address):__vector_offset_default
 *(.vector_16)
                0x00000268                __vector_offset_17 = DEFINED (__vector_dispatch_17)?(. - _ebase_address):__vector_offset_default
 *(.vector_17)
                0x00000208                __vector_offset_18 = DEFINED (__vector_dispatch_18)?(. - _ebase_address):__vector_offset_default
 *(.vector_18)
 .vector_18     0x9d000208        0x8 build/pic32mz1024ecg064/production/_ext/1360937237/cam.o
                0x9d000208                __vector_dispatch_18
                0x00000210                __vector_offset_19 = DEFINED (__vector_dispatch_19)?(. - _ebase_address):__vector_offset_default
 *(.vector_19)
 .vector_19     0x9d000210        0x8 build/pic32mz1024ecg064/production/_ext/1360937237/led.o
                0x9d000210                __vector_dispatch_19
                0x00000268                __vector_offset_20 = DEFINED (__vector_dispatch_20)?(. - _ebase_address):__vector_offset_default
 *(.vector_20)
                0x00000268                __vector_offset_21 = DEFINED (__vector_dispatch_21)?(. - _ebase_address):__vector_offset_default
 *(.vector_21)
                0x00000268                __vector_offset_22 = DEFINED (__vector_dispatch_22)?(. - _ebase_address):__vector_offset_default
 *(.vector_22)
                0x00000218                __vector_offset_23 = DEFINED (__vector_dispatch_23)?(. - _ebase_address):__vector_offset_default
 *(.vector_23)
 .vector_23     0x9d000218        0x8 build/pic32mz1024ecg064/production/_ext/1360937237/cam.o
                0x9d000218                __vector_dispatch_23
                0x00000268                __vector_offset_24 = DEFINED (__vector_dispatch_24)?(. - _ebase_address):__vector_offset_default
 *(.vector_24)
                0x00000268                __vector_offset_25 = DEFINED (__vector_dispatch_25)?(. - _ebase_address):__vector_offset_default
 *(.vector_25)
                0x00000268                __vector_offset_26 = DEFINED (__vector_dispatch_26)?(. - _ebase_address):__vector_offset_default
 *(.vector_26)
                0x00000268                __vector_offset_27 = DEFINED (__vector_dispatch_27)?(. - _ebase_address):__vector_offset_default
 *(.vector_27)
                0x00000268                __vector_offset_28 = DEFINED (__vector_dispatch_28)?(. - _ebase_address):__vector_offset_default
 *(.vector_28)
                0x00000268                __vector_offset_29 = DEFINED (__vector_dispatch_29)?(. - _ebase_address):__vector_offset_default
 *(.vector_29)
                0x00000268                __vector_offset_30 = DEFINED (__vector_dispatch_30)?(. - _ebase_address):__vector_offset_default
 *(.vector_30)
                0x00000268                __vector_offset_31 = DEFINED (__vector_dispatch_31)?(. - _ebase_address):__vector_offset_default
 *(.vector_31)
                0x00000220                __vector_offset_32 = DEFINED (__vector_dispatch_32)?(. - _ebase_address):__vector_offset_default
 *(.vector_32)
 .vector_32     0x9d000220        0x8 build/pic32mz1024ecg064/production/_ext/1360937237/power.o
                0x9d000220                __vector_dispatch_32
                0x00000268                __vector_offset_33 = DEFINED (__vector_dispatch_33)?(. - _ebase_address):__vector_offset_default
 *(.vector_33)
                0x00000268                __vector_offset_34 = DEFINED (__vector_dispatch_34)?(. - _ebase_address):__vector_offset_default
 *(.vector_34)
                0x00000268                __vector_offset_35 = DEFINED (__vector_dispatch_35)?(. - _ebase_address):__vector_offset_default
 *(.vector_35)
                0x00000228                __vector_offset_36 = DEFINED (__vector_dispatch_36)?(. - _ebase_address):__vector_offset_default
 *(.vector_36)
 .vector_36     0x9d000228        0x8 build/pic32mz1024ecg064/production/_ext/1360937237/timer.o
                0x9d000228                __vector_dispatch_36
                0x00000268                __vector_offset_37 = DEFINED (__vector_dispatch_37)?(. - _ebase_address):__vector_offset_default
 *(.vector_37)
                0x00000268                __vector_offset_38 = DEFINED (__vector_dispatch_38)?(. - _ebase_address):__vector_offset_default
 *(.vector_38)
                0x00000268                __vector_offset_39 = DEFINED (__vector_dispatch_39)?(. - _ebase_address):__vector_offset_default
 *(.vector_39)
                0x00000268                __vector_offset_40 = DEFINED (__vector_dispatch_40)?(. - _ebase_address):__vector_offset_default
 *(.vector_40)
                0x00000268                __vector_offset_41 = DEFINED (__vector_dispatch_41)?(. - _ebase_address):__vector_offset_default
 *(.vector_41)
                0x00000268                __vector_offset_42 = DEFINED (__vector_dispatch_42)?(. - _ebase_address):__vector_offset_default
 *(.vector_42)
                0x00000268                __vector_offset_43 = DEFINED (__vector_dispatch_43)?(. - _ebase_address):__vector_offset_default
 *(.vector_43)
                0x00000268                __vector_offset_44 = DEFINED (__vector_dispatch_44)?(. - _ebase_address):__vector_offset_default
 *(.vector_44)
                0x00000268                __vector_offset_45 = DEFINED (__vector_dispatch_45)?(. - _ebase_address):__vector_offset_default
 *(.vector_45)
                0x00000268                __vector_offset_46 = DEFINED (__vector_dispatch_46)?(. - _ebase_address):__vector_offset_default
 *(.vector_46)
                0x00000268                __vector_offset_47 = DEFINED (__vector_dispatch_47)?(. - _ebase_address):__vector_offset_default
 *(.vector_47)
                0x00000268                __vector_offset_48 = DEFINED (__vector_dispatch_48)?(. - _ebase_address):__vector_offset_default
 *(.vector_48)
                0x00000268                __vector_offset_49 = DEFINED (__vector_dispatch_49)?(. - _ebase_address):__vector_offset_default
 *(.vector_49)
                0x00000268                __vector_offset_50 = DEFINED (__vector_dispatch_50)?(. - _ebase_address):__vector_offset_default
 *(.vector_50)
                0x00000268                __vector_offset_51 = DEFINED (__vector_dispatch_51)?(. - _ebase_address):__vector_offset_default
 *(.vector_51)
                0x00000268                __vector_offset_52 = DEFINED (__vector_dispatch_52)?(. - _ebase_address):__vector_offset_default
 *(.vector_52)
                0x00000268                __vector_offset_53 = DEFINED (__vector_dispatch_53)?(. - _ebase_address):__vector_offset_default
 *(.vector_53)
                0x00000268                __vector_offset_54 = DEFINED (__vector_dispatch_54)?(. - _ebase_address):__vector_offset_default
 *(.vector_54)
                0x00000268                __vector_offset_55 = DEFINED (__vector_dispatch_55)?(. - _ebase_address):__vector_offset_default
 *(.vector_55)
                0x00000268                __vector_offset_56 = DEFINED (__vector_dispatch_56)?(. - _ebase_address):__vector_offset_default
 *(.vector_56)
                0x00000268                __vector_offset_57 = DEFINED (__vector_dispatch_57)?(. - _ebase_address):__vector_offset_default
 *(.vector_57)
                0x00000268                __vector_offset_58 = DEFINED (__vector_dispatch_58)?(. - _ebase_address):__vector_offset_default
 *(.vector_58)
                0x00000268                __vector_offset_59 = DEFINED (__vector_dispatch_59)?(. - _ebase_address):__vector_offset_default
 *(.vector_59)
                0x00000268                __vector_offset_60 = DEFINED (__vector_dispatch_60)?(. - _ebase_address):__vector_offset_default
 *(.vector_60)
                0x00000268                __vector_offset_61 = DEFINED (__vector_dispatch_61)?(. - _ebase_address):__vector_offset_default
 *(.vector_61)
                0x00000268                __vector_offset_62 = DEFINED (__vector_dispatch_62)?(. - _ebase_address):__vector_offset_default
 *(.vector_62)
                0x00000268                __vector_offset_63 = DEFINED (__vector_dispatch_63)?(. - _ebase_address):__vector_offset_default
 *(.vector_63)
                0x00000268                __vector_offset_64 = DEFINED (__vector_dispatch_64)?(. - _ebase_address):__vector_offset_default
 *(.vector_64)
                0x00000268                __vector_offset_65 = DEFINED (__vector_dispatch_65)?(. - _ebase_address):__vector_offset_default
 *(.vector_65)
                0x00000268                __vector_offset_66 = DEFINED (__vector_dispatch_66)?(. - _ebase_address):__vector_offset_default
 *(.vector_66)
                0x00000268                __vector_offset_67 = DEFINED (__vector_dispatch_67)?(. - _ebase_address):__vector_offset_default
 *(.vector_67)
                0x00000268                __vector_offset_68 = DEFINED (__vector_dispatch_68)?(. - _ebase_address):__vector_offset_default
 *(.vector_68)
                0x00000268                __vector_offset_69 = DEFINED (__vector_dispatch_69)?(. - _ebase_address):__vector_offset_default
 *(.vector_69)
                0x00000268                __vector_offset_70 = DEFINED (__vector_dispatch_70)?(. - _ebase_address):__vector_offset_default
 *(.vector_70)
                0x00000268                __vector_offset_71 = DEFINED (__vector_dispatch_71)?(. - _ebase_address):__vector_offset_default
 *(.vector_71)
                0x00000268                __vector_offset_72 = DEFINED (__vector_dispatch_72)?(. - _ebase_address):__vector_offset_default
 *(.vector_72)
                0x00000268                __vector_offset_73 = DEFINED (__vector_dispatch_73)?(. - _ebase_address):__vector_offset_default
 *(.vector_73)
                0x00000268                __vector_offset_74 = DEFINED (__vector_dispatch_74)?(. - _ebase_address):__vector_offset_default
 *(.vector_74)
                0x00000268                __vector_offset_75 = DEFINED (__vector_dispatch_75)?(. - _ebase_address):__vector_offset_default
 *(.vector_75)
                0x00000268                __vector_offset_76 = DEFINED (__vector_dispatch_76)?(. - _ebase_address):__vector_offset_default
 *(.vector_76)
                0x00000268                __vector_offset_77 = DEFINED (__vector_dispatch_77)?(. - _ebase_address):__vector_offset_default
 *(.vector_77)
                0x00000268                __vector_offset_78 = DEFINED (__vector_dispatch_78)?(. - _ebase_address):__vector_offset_default
 *(.vector_78)
                0x00000268                __vector_offset_79 = DEFINED (__vector_dispatch_79)?(. - _ebase_address):__vector_offset_default
 *(.vector_79)
                0x00000268                __vector_offset_80 = DEFINED (__vector_dispatch_80)?(. - _ebase_address):__vector_offset_default
 *(.vector_80)
                0x00000268                __vector_offset_81 = DEFINED (__vector_dispatch_81)?(. - _ebase_address):__vector_offset_default
 *(.vector_81)
                0x00000268                __vector_offset_82 = DEFINED (__vector_dispatch_82)?(. - _ebase_address):__vector_offset_default
 *(.vector_82)
                0x00000268                __vector_offset_83 = DEFINED (__vector_dispatch_83)?(. - _ebase_address):__vector_offset_default
 *(.vector_83)
                0x00000268                __vector_offset_84 = DEFINED (__vector_dispatch_84)?(. - _ebase_address):__vector_offset_default
 *(.vector_84)
                0x00000268                __vector_offset_85 = DEFINED (__vector_dispatch_85)?(. - _ebase_address):__vector_offset_default
 *(.vector_85)
                0x00000268                __vector_offset_86 = DEFINED (__vector_dispatch_86)?(. - _ebase_address):__vector_offset_default
 *(.vector_86)
                0x00000268                __vector_offset_87 = DEFINED (__vector_dispatch_87)?(. - _ebase_address):__vector_offset_default
 *(.vector_87)
                0x00000268                __vector_offset_88 = DEFINED (__vector_dispatch_88)?(. - _ebase_address):__vector_offset_default
 *(.vector_88)
                0x00000268                __vector_offset_89 = DEFINED (__vector_dispatch_89)?(. - _ebase_address):__vector_offset_default
 *(.vector_89)
                0x00000268                __vector_offset_90 = DEFINED (__vector_dispatch_90)?(. - _ebase_address):__vector_offset_default
 *(.vector_90)
                0x00000268                __vector_offset_91 = DEFINED (__vector_dispatch_91)?(. - _ebase_address):__vector_offset_default
 *(.vector_91)
                0x00000268                __vector_offset_92 = DEFINED (__vector_dispatch_92)?(. - _ebase_address):__vector_offset_default
 *(.vector_92)
                0x00000268                __vector_offset_93 = DEFINED (__vector_dispatch_93)?(. - _ebase_address):__vector_offset_default
 *(.vector_93)
                0x00000268                __vector_offset_94 = DEFINED (__vector_dispatch_94)?(. - _ebase_address):__vector_offset_default
 *(.vector_94)
                0x00000268                __vector_offset_95 = DEFINED (__vector_dispatch_95)?(. - _ebase_address):__vector_offset_default
 *(.vector_95)
                0x00000268                __vector_offset_96 = DEFINED (__vector_dispatch_96)?(. - _ebase_address):__vector_offset_default
 *(.vector_96)
                0x00000268                __vector_offset_97 = DEFINED (__vector_dispatch_97)?(. - _ebase_address):__vector_offset_default
 *(.vector_97)
                0x00000268                __vector_offset_98 = DEFINED (__vector_dispatch_98)?(. - _ebase_address):__vector_offset_default
 *(.vector_98)
                0x00000268                __vector_offset_99 = DEFINED (__vector_dispatch_99)?(. - _ebase_address):__vector_offset_default
 *(.vector_99)
                0x00000268                __vector_offset_100 = DEFINED (__vector_dispatch_100)?(. - _ebase_address):__vector_offset_default
 *(.vector_100)
                0x00000268                __vector_offset_101 = DEFINED (__vector_dispatch_101)?(. - _ebase_address):__vector_offset_default
 *(.vector_101)
                0x00000268                __vector_offset_102 = DEFINED (__vector_dispatch_102)?(. - _ebase_address):__vector_offset_default
 *(.vector_102)
                0x00000268                __vector_offset_103 = DEFINED (__vector_dispatch_103)?(. - _ebase_address):__vector_offset_default
 *(.vector_103)
                0x00000268                __vector_offset_104 = DEFINED (__vector_dispatch_104)?(. - _ebase_address):__vector_offset_default
 *(.vector_104)
                0x00000268                __vector_offset_105 = DEFINED (__vector_dispatch_105)?(. - _ebase_address):__vector_offset_default
 *(.vector_105)
                0x00000268                __vector_offset_106 = DEFINED (__vector_dispatch_106)?(. - _ebase_address):__vector_offset_default
 *(.vector_106)
                0x00000268                __vector_offset_107 = DEFINED (__vector_dispatch_107)?(. - _ebase_address):__vector_offset_default
 *(.vector_107)
                0x00000268                __vector_offset_108 = DEFINED (__vector_dispatch_108)?(. - _ebase_address):__vector_offset_default
 *(.vector_108)
                0x00000268                __vector_offset_109 = DEFINED (__vector_dispatch_109)?(. - _ebase_address):__vector_offset_default
 *(.vector_109)
                0x00000268                __vector_offset_110 = DEFINED (__vector_dispatch_110)?(. - _ebase_address):__vector_offset_default
 *(.vector_110)
                0x00000230                __vector_offset_111 = DEFINED (__vector_dispatch_111)?(. - _ebase_address):__vector_offset_default
 *(.vector_111)
 .vector_111    0x9d000230        0x8 build/pic32mz1024ecg064/production/_ext/1360937237/led.o
                0x9d000230                __vector_dispatch_111
                0x00000268                __vector_offset_112 = DEFINED (__vector_dispatch_112)?(. - _ebase_address):__vector_offset_default
 *(.vector_112)
                0x00000268                __vector_offset_113 = DEFINED (__vector_dispatch_113)?(. - _ebase_address):__vector_offset_default
 *(.vector_113)
                0x00000268                __vector_offset_114 = DEFINED (__vector_dispatch_114)?(. - _ebase_address):__vector_offset_default
 *(.vector_114)
                0x00000268                __vector_offset_115 = DEFINED (__vector_dispatch_115)?(. - _ebase_address):__vector_offset_default
 *(.vector_115)
                0x00000268                __vector_offset_116 = DEFINED (__vector_dispatch_116)?(. - _ebase_address):__vector_offset_default
 *(.vector_116)
                0x00000268                __vector_offset_117 = DEFINED (__vector_dispatch_117)?(. - _ebase_address):__vector_offset_default
 *(.vector_117)
                0x00000268                __vector_offset_118 = DEFINED (__vector_dispatch_118)?(. - _ebase_address):__vector_offset_default
 *(.vector_118)
                0x00000268                __vector_offset_119 = DEFINED (__vector_dispatch_119)?(. - _ebase_address):__vector_offset_default
 *(.vector_119)
                0x00000268                __vector_offset_120 = DEFINED (__vector_dispatch_120)?(. - _ebase_address):__vector_offset_default
 *(.vector_120)
                0x00000238                __vector_offset_121 = DEFINED (__vector_dispatch_121)?(. - _ebase_address):__vector_offset_default
 *(.vector_121)
 .vector_121    0x9d000238        0x8 build/pic32mz1024ecg064/production/_ext/1360937237/power.o
                0x9d000238                __vector_dispatch_121
                0x00000268                __vector_offset_122 = DEFINED (__vector_dispatch_122)?(. - _ebase_address):__vector_offset_default
 *(.vector_122)
                0x00000268                __vector_offset_123 = DEFINED (__vector_dispatch_123)?(. - _ebase_address):__vector_offset_default
 *(.vector_123)
                0x00000268                __vector_offset_124 = DEFINED (__vector_dispatch_124)?(. - _ebase_address):__vector_offset_default
 *(.vector_124)
                0x00000268                __vector_offset_125 = DEFINED (__vector_dispatch_125)?(. - _ebase_address):__vector_offset_default
 *(.vector_125)
                0x00000268                __vector_offset_126 = DEFINED (__vector_dispatch_126)?(. - _ebase_address):__vector_offset_default
 *(.vector_126)
                0x00000268                __vector_offset_127 = DEFINED (__vector_dispatch_127)?(. - _ebase_address):__vector_offset_default
 *(.vector_127)
                0x00000268                __vector_offset_128 = DEFINED (__vector_dispatch_128)?(. - _ebase_address):__vector_offset_default
 *(.vector_128)
                0x00000268                __vector_offset_129 = DEFINED (__vector_dispatch_129)?(. - _ebase_address):__vector_offset_default
 *(.vector_129)
                0x00000268                __vector_offset_130 = DEFINED (__vector_dispatch_130)?(. - _ebase_address):__vector_offset_default
 *(.vector_130)
                0x00000268                __vector_offset_131 = DEFINED (__vector_dispatch_131)?(. - _ebase_address):__vector_offset_default
 *(.vector_131)
                0x00000268                __vector_offset_132 = DEFINED (__vector_dispatch_132)?(. - _ebase_address):__vector_offset_default
 *(.vector_132)
                0x00000268                __vector_offset_133 = DEFINED (__vector_dispatch_133)?(. - _ebase_address):__vector_offset_default
 *(.vector_133)
                0x00000240                __vector_offset_134 = DEFINED (__vector_dispatch_134)?(. - _ebase_address):__vector_offset_default
 *(.vector_134)
 .vector_134    0x9d000240        0x8 build/pic32mz1024ecg064/production/_ext/1360937237/cam.o
                0x9d000240                __vector_dispatch_134
                0x00000268                __vector_offset_135 = DEFINED (__vector_dispatch_135)?(. - _ebase_address):__vector_offset_default
 *(.vector_135)
                0x00000268                __vector_offset_136 = DEFINED (__vector_dispatch_136)?(. - _ebase_address):__vector_offset_default
 *(.vector_136)
                0x00000268                __vector_offset_137 = DEFINED (__vector_dispatch_137)?(. - _ebase_address):__vector_offset_default
 *(.vector_137)
                0x00000268                __vector_offset_138 = DEFINED (__vector_dispatch_138)?(. - _ebase_address):__vector_offset_default
 *(.vector_138)
                0x00000268                __vector_offset_139 = DEFINED (__vector_dispatch_139)?(. - _ebase_address):__vector_offset_default
 *(.vector_139)
                0x00000268                __vector_offset_140 = DEFINED (__vector_dispatch_140)?(. - _ebase_address):__vector_offset_default
 *(.vector_140)
                0x00000268                __vector_offset_141 = DEFINED (__vector_dispatch_141)?(. - _ebase_address):__vector_offset_default
 *(.vector_141)
                0x00000268                __vector_offset_142 = DEFINED (__vector_dispatch_142)?(. - _ebase_address):__vector_offset_default
 *(.vector_142)
                0x00000268                __vector_offset_143 = DEFINED (__vector_dispatch_143)?(. - _ebase_address):__vector_offset_default
 *(.vector_143)
                0x00000268                __vector_offset_144 = DEFINED (__vector_dispatch_144)?(. - _ebase_address):__vector_offset_default
 *(.vector_144)
                0x00000268                __vector_offset_145 = DEFINED (__vector_dispatch_145)?(. - _ebase_address):__vector_offset_default
 *(.vector_145)
                0x00000268                __vector_offset_146 = DEFINED (__vector_dispatch_146)?(. - _ebase_address):__vector_offset_default
 *(.vector_146)
                0x00000268                __vector_offset_147 = DEFINED (__vector_dispatch_147)?(. - _ebase_address):__vector_offset_default
 *(.vector_147)
                0x00000268                __vector_offset_148 = DEFINED (__vector_dispatch_148)?(. - _ebase_address):__vector_offset_default
 *(.vector_148)
                0x00000268                __vector_offset_149 = DEFINED (__vector_dispatch_149)?(. - _ebase_address):__vector_offset_default
 *(.vector_149)
                0x00000268                __vector_offset_150 = DEFINED (__vector_dispatch_150)?(. - _ebase_address):__vector_offset_default
 *(.vector_150)
                0x00000268                __vector_offset_151 = DEFINED (__vector_dispatch_151)?(. - _ebase_address):__vector_offset_default
 *(.vector_151)
                0x00000268                __vector_offset_152 = DEFINED (__vector_dispatch_152)?(. - _ebase_address):__vector_offset_default
 *(.vector_152)
                0x00000268                __vector_offset_153 = DEFINED (__vector_dispatch_153)?(. - _ebase_address):__vector_offset_default
 *(.vector_153)
                0x00000268                __vector_offset_154 = DEFINED (__vector_dispatch_154)?(. - _ebase_address):__vector_offset_default
 *(.vector_154)
                0x00000268                __vector_offset_155 = DEFINED (__vector_dispatch_155)?(. - _ebase_address):__vector_offset_default
 *(.vector_155)
                0x00000268                __vector_offset_156 = DEFINED (__vector_dispatch_156)?(. - _ebase_address):__vector_offset_default
 *(.vector_156)
                0x00000248                __vector_offset_157 = DEFINED (__vector_dispatch_157)?(. - _ebase_address):__vector_offset_default
 *(.vector_157)
 .vector_157    0x9d000248        0x8 build/pic32mz1024ecg064/production/_ext/1360937237/bluetooth.o
                0x9d000248                __vector_dispatch_157
                0x00000250                __vector_offset_158 = DEFINED (__vector_dispatch_158)?(. - _ebase_address):__vector_offset_default
 *(.vector_158)
 .vector_158    0x9d000250        0x8 build/pic32mz1024ecg064/production/_ext/1360937237/bluetooth.o
                0x9d000250                __vector_dispatch_158
                0x00000268                __vector_offset_159 = DEFINED (__vector_dispatch_159)?(. - _ebase_address):__vector_offset_default
 *(.vector_159)
                0x00000268                __vector_offset_160 = DEFINED (__vector_dispatch_160)?(. - _ebase_address):__vector_offset_default
 *(.vector_160)
                0x00000268                __vector_offset_161 = DEFINED (__vector_dispatch_161)?(. - _ebase_address):__vector_offset_default
 *(.vector_161)
                0x00000268                __vector_offset_162 = DEFINED (__vector_dispatch_162)?(. - _ebase_address):__vector_offset_default
 *(.vector_162)
                0x00000268                __vector_offset_163 = DEFINED (__vector_dispatch_163)?(. - _ebase_address):__vector_offset_default
 *(.vector_163)
                0x00000268                __vector_offset_164 = DEFINED (__vector_dispatch_164)?(. - _ebase_address):__vector_offset_default
 *(.vector_164)
                0x00000268                __vector_offset_165 = DEFINED (__vector_dispatch_165)?(. - _ebase_address):__vector_offset_default
 *(.vector_165)
                0x00000268                __vector_offset_166 = DEFINED (__vector_dispatch_166)?(. - _ebase_address):__vector_offset_default
 *(.vector_166)
                0x00000268                __vector_offset_167 = DEFINED (__vector_dispatch_167)?(. - _ebase_address):__vector_offset_default
 *(.vector_167)
                0x00000268                __vector_offset_168 = DEFINED (__vector_dispatch_168)?(. - _ebase_address):__vector_offset_default
 *(.vector_168)
                0x00000268                __vector_offset_169 = DEFINED (__vector_dispatch_169)?(. - _ebase_address):__vector_offset_default
 *(.vector_169)
                0x00000268                __vector_offset_170 = DEFINED (__vector_dispatch_170)?(. - _ebase_address):__vector_offset_default
 *(.vector_170)
                0x00000268                __vector_offset_171 = DEFINED (__vector_dispatch_171)?(. - _ebase_address):__vector_offset_default
 *(.vector_171)
                0x00000268                __vector_offset_172 = DEFINED (__vector_dispatch_172)?(. - _ebase_address):__vector_offset_default
 *(.vector_172)
                0x00000268                __vector_offset_173 = DEFINED (__vector_dispatch_173)?(. - _ebase_address):__vector_offset_default
 *(.vector_173)
                0x00000268                __vector_offset_174 = DEFINED (__vector_dispatch_174)?(. - _ebase_address):__vector_offset_default
 *(.vector_174)
                0x00000268                __vector_offset_175 = DEFINED (__vector_dispatch_175)?(. - _ebase_address):__vector_offset_default
 *(.vector_175)
                0x00000268                __vector_offset_176 = DEFINED (__vector_dispatch_176)?(. - _ebase_address):__vector_offset_default
 *(.vector_176)
                0x00000268                __vector_offset_177 = DEFINED (__vector_dispatch_177)?(. - _ebase_address):__vector_offset_default
 *(.vector_177)
                0x00000268                __vector_offset_178 = DEFINED (__vector_dispatch_178)?(. - _ebase_address):__vector_offset_default
 *(.vector_178)
                0x00000268                __vector_offset_179 = DEFINED (__vector_dispatch_179)?(. - _ebase_address):__vector_offset_default
 *(.vector_179)
                0x00000268                __vector_offset_180 = DEFINED (__vector_dispatch_180)?(. - _ebase_address):__vector_offset_default
 *(.vector_180)
                0x00000268                __vector_offset_181 = DEFINED (__vector_dispatch_181)?(. - _ebase_address):__vector_offset_default
 *(.vector_181)
                0x00000258                __vector_offset_182 = DEFINED (__vector_dispatch_182)?(. - _ebase_address):__vector_offset_default
 *(.vector_182)
 .vector_182    0x9d000258        0x8 build/pic32mz1024ecg064/production/_ext/1360937237/i2c.o
                0x9d000258                __vector_dispatch_182
                0x00000268                __vector_offset_183 = DEFINED (__vector_dispatch_183)?(. - _ebase_address):__vector_offset_default
 *(.vector_183)
                0x00000260                __vector_offset_184 = DEFINED (__vector_dispatch_184)?(. - _ebase_address):__vector_offset_default
 *(.vector_184)
 .vector_184    0x9d000260        0x8 build/pic32mz1024ecg064/production/_ext/1360937237/i2c.o
                0x9d000260                __vector_dispatch_184
                0x00000268                __vector_offset_185 = DEFINED (__vector_dispatch_185)?(. - _ebase_address):__vector_offset_default
 *(.vector_185)
                0x00000268                __vector_offset_186 = DEFINED (__vector_dispatch_186)?(. - _ebase_address):__vector_offset_default
 *(.vector_186)
                0x00000268                __vector_offset_187 = DEFINED (__vector_dispatch_187)?(. - _ebase_address):__vector_offset_default
 *(.vector_187)
                0x00000268                __vector_offset_188 = DEFINED (__vector_dispatch_188)?(. - _ebase_address):__vector_offset_default
 *(.vector_188)
                0x00000268                __vector_offset_189 = DEFINED (__vector_dispatch_189)?(. - _ebase_address):__vector_offset_default
 *(.vector_189)
                0x00000268                __vector_offset_190 = DEFINED (__vector_dispatch_190)?(. - _ebase_address):__vector_offset_default
 *(.vector_190)
                0x00000268                __vector_offset_191 = DEFINED (__vector_dispatch_191)?(. - _ebase_address):__vector_offset_default
 *(.vector_191)
                0x00000268                __vector_offset_192 = DEFINED (__vector_dispatch_192)?(. - _ebase_address):__vector_offset_default
 *(.vector_192)
                0x00000268                __vector_offset_193 = DEFINED (__vector_dispatch_193)?(. - _ebase_address):__vector_offset_default
 *(.vector_193)
                0x00000268                __vector_offset_194 = DEFINED (__vector_dispatch_194)?(. - _ebase_address):__vector_offset_default
 *(.vector_194)
                0x00000268                __vector_offset_195 = DEFINED (__vector_dispatch_195)?(. - _ebase_address):__vector_offset_default
 *(.vector_195)
                0x00000268                __vector_offset_196 = DEFINED (__vector_dispatch_196)?(. - _ebase_address):__vector_offset_default
 *(.vector_196)
                0x00000268                __vector_offset_197 = DEFINED (__vector_dispatch_197)?(. - _ebase_address):__vector_offset_default
 *(.vector_197)
                0x00000268                __vector_offset_198 = DEFINED (__vector_dispatch_198)?(. - _ebase_address):__vector_offset_default
 *(.vector_198)
                0x00000268                __vector_offset_199 = DEFINED (__vector_dispatch_199)?(. - _ebase_address):__vector_offset_default
 *(.vector_199)
                0x00000268                __vector_offset_200 = DEFINED (__vector_dispatch_200)?(. - _ebase_address):__vector_offset_default
 *(.vector_200)
                0x00000268                __vector_offset_201 = DEFINED (__vector_dispatch_201)?(. - _ebase_address):__vector_offset_default
 *(.vector_201)
                0x00000268                __vector_offset_202 = DEFINED (__vector_dispatch_202)?(. - _ebase_address):__vector_offset_default
 *(.vector_202)
                0x00000268                __vector_offset_203 = DEFINED (__vector_dispatch_203)?(. - _ebase_address):__vector_offset_default
 *(.vector_203)
                0x00000268                __vector_offset_204 = DEFINED (__vector_dispatch_204)?(. - _ebase_address):__vector_offset_default
 *(.vector_204)
                0x00000268                __vector_offset_205 = DEFINED (__vector_dispatch_205)?(. - _ebase_address):__vector_offset_default
 *(.vector_205)
                0x00000268                __vector_offset_206 = DEFINED (__vector_dispatch_206)?(. - _ebase_address):__vector_offset_default
 *(.vector_206)
                0x00000268                __vector_offset_207 = DEFINED (__vector_dispatch_207)?(. - _ebase_address):__vector_offset_default
 *(.vector_207)
                0x00000268                __vector_offset_208 = DEFINED (__vector_dispatch_208)?(. - _ebase_address):__vector_offset_default
 *(.vector_208)
                0x00000268                __vector_offset_209 = DEFINED (__vector_dispatch_209)?(. - _ebase_address):__vector_offset_default
 *(.vector_209)
                0x00000268                __vector_offset_210 = DEFINED (__vector_dispatch_210)?(. - _ebase_address):__vector_offset_default
 *(.vector_210)
                0x00000268                __vector_offset_211 = DEFINED (__vector_dispatch_211)?(. - _ebase_address):__vector_offset_default
 *(.vector_211)
                0x00000268                __vector_offset_212 = DEFINED (__vector_dispatch_212)?(. - _ebase_address):__vector_offset_default
 *(.vector_212)
                0x00000268                __vector_offset_213 = DEFINED (__vector_dispatch_213)?(. - _ebase_address):__vector_offset_default
 *(.vector_213)
                0x00000268                __vector_offset_214 = DEFINED (__vector_dispatch_214)?(. - _ebase_address):__vector_offset_default
 *(.vector_214)
                0x00000268                __vector_offset_215 = DEFINED (__vector_dispatch_215)?(. - _ebase_address):__vector_offset_default
 *(.vector_215)
                0x00000268                __vector_offset_216 = DEFINED (__vector_dispatch_216)?(. - _ebase_address):__vector_offset_default
 *(.vector_216)
                0x00000268                __vector_offset_217 = DEFINED (__vector_dispatch_217)?(. - _ebase_address):__vector_offset_default
 *(.vector_217)
                0x00000268                __vector_offset_218 = DEFINED (__vector_dispatch_218)?(. - _ebase_address):__vector_offset_default
 *(.vector_218)
                0x00000268                __vector_offset_219 = DEFINED (__vector_dispatch_219)?(. - _ebase_address):__vector_offset_default
 *(.vector_219)
                0x00000268                __vector_offset_220 = DEFINED (__vector_dispatch_220)?(. - _ebase_address):__vector_offset_default
 *(.vector_220)
                0x00000268                __vector_offset_221 = DEFINED (__vector_dispatch_221)?(. - _ebase_address):__vector_offset_default
 *(.vector_221)
                0x00000268                __vector_offset_222 = DEFINED (__vector_dispatch_222)?(. - _ebase_address):__vector_offset_default
 *(.vector_222)
                0x00000268                __vector_offset_223 = DEFINED (__vector_dispatch_223)?(. - _ebase_address):__vector_offset_default
 *(.vector_223)
                0x00000268                __vector_offset_224 = DEFINED (__vector_dispatch_224)?(. - _ebase_address):__vector_offset_default
 *(.vector_224)
                0x00000268                __vector_offset_225 = DEFINED (__vector_dispatch_225)?(. - _ebase_address):__vector_offset_default
 *(.vector_225)
                0x00000268                __vector_offset_226 = DEFINED (__vector_dispatch_226)?(. - _ebase_address):__vector_offset_default
 *(.vector_226)
                0x00000268                __vector_offset_227 = DEFINED (__vector_dispatch_227)?(. - _ebase_address):__vector_offset_default
 *(.vector_227)
                0x00000268                __vector_offset_228 = DEFINED (__vector_dispatch_228)?(. - _ebase_address):__vector_offset_default
 *(.vector_228)
                0x00000268                __vector_offset_229 = DEFINED (__vector_dispatch_229)?(. - _ebase_address):__vector_offset_default
 *(.vector_229)
                0x00000268                __vector_offset_230 = DEFINED (__vector_dispatch_230)?(. - _ebase_address):__vector_offset_default
 *(.vector_230)
                0x00000268                __vector_offset_231 = DEFINED (__vector_dispatch_231)?(. - _ebase_address):__vector_offset_default
 *(.vector_231)
                0x00000268                __vector_offset_232 = DEFINED (__vector_dispatch_232)?(. - _ebase_address):__vector_offset_default
 *(.vector_232)
                0x00000268                __vector_offset_233 = DEFINED (__vector_dispatch_233)?(. - _ebase_address):__vector_offset_default
 *(.vector_233)
                0x00000268                __vector_offset_234 = DEFINED (__vector_dispatch_234)?(. - _ebase_address):__vector_offset_default
 *(.vector_234)
                0x00000268                __vector_offset_235 = DEFINED (__vector_dispatch_235)?(. - _ebase_address):__vector_offset_default
 *(.vector_235)
                0x00000268                __vector_offset_236 = DEFINED (__vector_dispatch_236)?(. - _ebase_address):__vector_offset_default
 *(.vector_236)
                0x00000268                __vector_offset_237 = DEFINED (__vector_dispatch_237)?(. - _ebase_address):__vector_offset_default
 *(.vector_237)
                0x00000268                __vector_offset_238 = DEFINED (__vector_dispatch_238)?(. - _ebase_address):__vector_offset_default
 *(.vector_238)
                0x00000268                __vector_offset_239 = DEFINED (__vector_dispatch_239)?(. - _ebase_address):__vector_offset_default
 *(.vector_239)
                0x00000268                __vector_offset_240 = DEFINED (__vector_dispatch_240)?(. - _ebase_address):__vector_offset_default
 *(.vector_240)
                0x00000268                __vector_offset_241 = DEFINED (__vector_dispatch_241)?(. - _ebase_address):__vector_offset_default
 *(.vector_241)
                0x00000268                __vector_offset_242 = DEFINED (__vector_dispatch_242)?(. - _ebase_address):__vector_offset_default
 *(.vector_242)
                0x00000268                __vector_offset_243 = DEFINED (__vector_dispatch_243)?(. - _ebase_address):__vector_offset_default
 *(.vector_243)
                0x00000268                __vector_offset_244 = DEFINED (__vector_dispatch_244)?(. - _ebase_address):__vector_offset_default
 *(.vector_244)
                0x00000268                __vector_offset_245 = DEFINED (__vector_dispatch_245)?(. - _ebase_address):__vector_offset_default
 *(.vector_245)
                0x00000268                __vector_offset_246 = DEFINED (__vector_dispatch_246)?(. - _ebase_address):__vector_offset_default
 *(.vector_246)
                0x00000268                __vector_offset_247 = DEFINED (__vector_dispatch_247)?(. - _ebase_address):__vector_offset_default
 *(.vector_247)
                0x00000268                __vector_offset_248 = DEFINED (__vector_dispatch_248)?(. - _ebase_address):__vector_offset_default
 *(.vector_248)
                0x00000268                __vector_offset_249 = DEFINED (__vector_dispatch_249)?(. - _ebase_address):__vector_offset_default
 *(.vector_249)
                0x00000268                __vector_offset_250 = DEFINED (__vector_dispatch_250)?(. - _ebase_address):__vector_offset_default
 *(.vector_250)
                0x00000268                __vector_offset_251 = DEFINED (__vector_dispatch_251)?(. - _ebase_address):__vector_offset_default
 *(.vector_251)
                0x00000268                __vector_offset_252 = DEFINED (__vector_dispatch_252)?(. - _ebase_address):__vector_offset_default
 *(.vector_252)
                0x00000268                __vector_offset_253 = DEFINED (__vector_dispatch_253)?(. - _ebase_address):__vector_offset_default
 *(.vector_253)
                0x00000268                __vector_offset_254 = DEFINED (__vector_dispatch_254)?(. - _ebase_address):__vector_offset_default
 *(.vector_254)
                0x00000268                __vector_offset_255 = DEFINED (__vector_dispatch_255)?(. - _ebase_address):__vector_offset_default
 *(.vector_255)
                0x00000268                __vector_offset_default = (. - _ebase_address)
 *(.vector_default)
 .vector_default
                0x9d000268       0x38 /opt/microchip/xc32/v1.34/bin/bin/../../lib/gcc/pic32mx/4.5.2/../../../../pic32mx/lib/libpic32.a(defaultinterrupt.o)
                0x9d000268                _DefaultInterrupt

.startup
 *(.startup)

.text           0x9d0002a0        0x0
 *(.stub .gnu.linkonce.t.*)
 *(.text.*personality*)
 *(.mips16.fn.*)
 *(.mips16.call.*)
 *(.gnu.warning)
                0x9d0002a0                . = ALIGN (0x4)

.init           0x9d0002a0        0x0
 *crti.o(.init)
 *crtbegin.o(.init)
 *(EXCLUDE_FILE(*crtn.o *crtend?.o *crtend.o) .init)
 *crtend.o(.init)
 *crtn.o(.init)
                0x9d0002a0                . = ALIGN (0x4)

.fini           0x9d0002a0        0x0
 *(.fini)
                0x9d0002a0                . = ALIGN (0x4)

.preinit_array  0x9d0002a0        0x0
                0x9d0002a0                PROVIDE (__preinit_array_start, .)
 *(.preinit_array)
                0x9d0002a0                PROVIDE (__preinit_array_end, .)
                0x9d0002a0                . = ALIGN (0x4)

.init_array     0x9d0002a0        0x0
                0x9d0002a0                PROVIDE (__init_array_start, .)
 *(SORT(.init_array.*))
 *(.init_array)
                0x9d0002a0                PROVIDE (__init_array_end, .)
                0x9d0002a0                . = ALIGN (0x4)

.fini_array     0x9d0002a0        0x0
                0x9d0002a0                PROVIDE (__fini_array_start, .)
 *(SORT(.fini_array.*))
 *(.fini_array)
                0x9d0002a0                PROVIDE (__fini_array_end, .)
                0x9d0002a0                . = ALIGN (0x4)

.ctors          0x9d0002a0        0x0
 *crtbegin.o(.ctors)
 *crtbegin?.o(.ctors)
 *(EXCLUDE_FILE(*crtend?.o *crtend.o) .ctors)
 *(SORT(.ctors.*))
 *(.ctors)
                0x9d0002a0                . = ALIGN (0x4)

.dtors          0x9d0002a0        0x0
 *crtbegin.o(.dtors)
 *crtbegin?.o(.dtors)
 *(EXCLUDE_FILE(*crtend?.o *crtend.o) .dtors)
 *(SORT(.dtors.*))
 *(.dtors)
                0x9d0002a0                . = ALIGN (0x4)

.rodata         0x9d0002a0        0x0
 *(.gnu.linkonce.r.*)
 *(.rodata1)
                0x9d0002a0                . = ALIGN (0x4)

.sdata2         0x9fc004b0        0x0
 *(.sdata2 .sdata2.* .gnu.linkonce.s2.*)
                0x9fc004b0                . = ALIGN (0x4)

.sbss2          0x9fc004b0        0x0
 *(.sbss2 .sbss2.* .gnu.linkonce.sb2.*)
                0x9fc004b0                . = ALIGN (0x4)

.eh_frame_hdr
 *(.eh_frame_hdr)
                0x9fc004b0                . = ALIGN (0x4)

.eh_frame
 *(.eh_frame)
                0x9fc004b0                . = ALIGN (0x4)

.gcc_except_table
 *(.gcc_except_table .gcc_except_table.*)
                0x9fc004b0                . = ALIGN (0x4)

.dbg_data       0x80000000        0x0
                0x80000000                . = (. + DEFINED (_DEBUGGER)?0x200:0x0)
                0x80000000                . = (. + DEFINED (_DEBUGGER)?0x80:0x0)

.jcr            0x80000000        0x0
 *(.jcr)
                0x80000000                . = ALIGN (0x4)

.eh_frame       0x80000000       0x34
 *(.eh_frame)
 .eh_frame      0x80000000       0x20 /opt/microchip/xc32/v1.34/bin/bin/../../lib/gcc/pic32mx/4.5.2/libgcc.a(_divdi3.o)
 .eh_frame      0x80000020       0x14 /opt/microchip/xc32/v1.34/bin/bin/../../lib/gcc/pic32mx/4.5.2/libgcc.a(_moddi3.o)
                0x80000034                . = ALIGN (0x4)

.gcc_except_table
 *(.gcc_except_table .gcc_except_table.*)
                0x80000034                . = ALIGN (0x4)

.persist        0x80000034        0x0
                0x80000034                _persist_begin = .
 *(.persist .persist.*)
 *(.pbss .pbss.*)
                0x80000034                . = ALIGN (0x4)
                0x80000034                _persist_end = .

.data           0x80000034        0x0
 *(.gnu.linkonce.d.*)
 *(.data1)
                0x80000034                . = ALIGN (0x4)
                0x80000034                . = .
                0x80008030                _gp = (ALIGN (0x10) + 0x7ff0)

.got            0x80000034        0x0
 *(.got.plt)
 *(.got)
                0x80000034                . = ALIGN (0x4)

.sdata          0x80000034       0x5c
                0x80000034                _sdata_begin = .
 *(.sdata .sdata.* .gnu.linkonce.s.*)
 .sdata         0x80000034        0x8 build/pic32mz1024ecg064/production/_ext/1360937237/cam.o
                0x80000034                currentExposurePixels
                0x80000038                currentCamState
 .sdata         0x8000003c        0x8 build/pic32mz1024ecg064/production/_ext/1360937237/bluetooth.o
                0x8000003c                currentBtCmd
                0x80000040                receiveBytesRemaining
 .sdata         0x80000044        0xc build/pic32mz1024ecg064/production/_ext/1360937237/touch.o
                0x80000044                threeFinger024TouchBeginTime
                0x80000048                threeFinger135TouchBeginTime
                0x8000004c                fourOrMoreFingerTouchBeginTime
 .sdata         0x80000050        0x8 build/pic32mz1024ecg064/production/_ext/1360937237/battery.o
                0x80000050                batteryState
                0x80000054                lowBatteryTime
 .sdata         0x80000058        0x4 build/pic32mz1024ecg064/production/_ext/1360937237/power.o
                0x80000058                bootState
 .sdata         0x8000005c        0xc build/pic32mz1024ecg064/production/_ext/1360937237/localization.o
                0x8000005c                poseDecodingError
                0x80000060                kidnapped
                0x80000064                bcastPeriod
 .sdata         0x80000068        0x4 build/pic32mz1024ecg064/production/_ext/1360937237/bezier.o
                0x80000068                polyBezierTrackerState
 .sdata         0x8000006c       0x24 /opt/microchip/xc32/v1.34/bin/bin/../../lib/gcc/pic32mx/4.5.2/../../../../pic32mx/lib/libpic32.a(pic32_init_cache.o)
                0x8000006c                __pic32_icache_size
                0x80000070                __pic32_icache_linesize
                0x80000074                __pic32_icache_ways
                0x80000078                __pic32_dcache_size
                0x8000007c                __pic32_dcache_linesize
                0x80000080                __pic32_dcache_ways
                0x80000084                __pic32_scache_size
                0x80000088                __pic32_scache_linesize
                0x8000008c                __pic32_scache_ways
                0x80000090                . = ALIGN (0x4)
                0x80000090                _sdata_end = .

.lit8
 *(.lit8)

.lit4
 *(.lit4)
                0x80000090                . = ALIGN (0x4)
                0x80000090                _data_end = .
                0x80000090                _bss_begin = .

.sbss           0x80000090      0x1ec
                0x80000090                _sbss_begin = .
 *(.dynsbss)
 *(.sbss .sbss.* .gnu.linkonce.sb.*)
 .sbss          0x80000090        0x8 build/pic32mz1024ecg064/production/_ext/1360937237/main.o
 .sbss          0x80000098        0xc build/pic32mz1024ecg064/production/_ext/1360937237/cam.o
                0x80000098                currentRow
                0x8000009c                camImgMean
                0x800000a0                prevExposurePixels
 .sbss          0x800000a4        0x8 build/pic32mz1024ecg064/production/_ext/1360937237/bluetooth.o
                0x800000a4                receiveStatus
                0x800000a8                currentUnloadIndex
 .sbss          0x800000ac       0x10 build/pic32mz1024ecg064/production/_ext/1360937237/touch.o
                0x800000ac                keyTouchStates
                0x800000b4                keyTouchLong
                0x800000ba                sleepRequestedTouch
 .sbss          0x800000bc       0x78 build/pic32mz1024ecg064/production/_ext/1360937237/motion.o
                0x800000bc                currentMotionTracker
                0x800000c0                locomotionInteractivityMode
                0x800000c4                goalPoseX
                0x800000c8                goalPoseY
                0x800000cc                goalPoseTheta
                0x800000d0                goalPoseMaxV
                0x800000d4                goalPoseMaxW
                0x800000d8                polyBezierAlignedTheta
                0x800000dc                xGoalReached
                0x800000dd                yGoalReached
                0x800000de                thetaGoalReached
                0x800000df                polyBezierGoalReached
                0x800000e0                relevantGoalsReached
                0x800000e2                motor1Target
                0x800000e4                motor2Target
                0x800000e6                motor3Target
                0x800000e8                vxGlobalMeasured
                0x800000ec                vyGlobalMeasured
                0x800000f0                vxLocalMeasured
                0x800000f4                vyLocalMeasured
                0x800000f8                wrMeasured
                0x800000fc                wMeasured
                0x80000100                v1Measured
                0x80000104                v2Measured
                0x80000108                v3Measured
                0x8000010c                vxGlobalMeasuredSmoothed
                0x80000110                vyGlobalMeasuredSmoothed
                0x80000114                wMeasuredSmoothed
                0x80000118                vxGlobalGoalTracker
                0x8000011c                vyGlobalGoalTracker
                0x80000120                wGlobalGoalTracker
                0x80000124                prevPoseX
                0x80000128                prevPoseY
                0x8000012c                prevPoseThetaRad
                0x80000130                prevPoseTimestamp
 .sbss          0x80000134       0x38 build/pic32mz1024ecg064/production/_ext/1360937237/localization.o
                0x80000134                poseX
                0x80000138                poseY
                0x8000013c                poseTheta
                0x80000140                poseThetaRad
                0x80000144                poseTimestamp
                0x80000148                timestamping
                0x8000014c                poseXOld
                0x80000150                poseYOld
                0x80000154                poseThetaOld
                0x80000158                i
                0x8000015c                emptyFrames
                0x80000160                lastPoseUpdate
                0x80000164                lastPoseBcast
                0x80000168                idling
 .sbss          0x8000016c        0xc build/pic32mz1024ecg064/production/_ext/1360937237/gesture.o
                0x8000016c                gestureEnabled
                0x80000170                lastSignalSampleTime
                0x80000174                currentGesture
 .sbss          0x80000178       0x74 build/pic32mz1024ecg064/production/_ext/1360937237/haptics.o
                0x80000178                vxGlobalGoalHaptics
                0x8000017c                vyGlobalGoalHaptics
                0x80000180                wGlobalGoalHaptics
                0x80000184                casualBdrvAssistEnabled
                0x80000185                hapticBdrvAssistEnabled
                0x80000188                bdrvAssistVxyHysteresisFrames
                0x8000018c                bdrvAssistWHysteresisFrames
                0x80000190                bdrvAssistVxyHysteresisMobile
                0x80000191                bdrvAssistWHysteresisMobile
                0x80000194                vxGlobalGoalCasualBdrvAssist
                0x80000198                vyGlobalGoalCasualBdrvAssist
                0x8000019c                wGlobalGoalCasualBdrvAssist
                0x800001a0                hapticBdrvAssistXCoeff
                0x800001a4                hapticBdrvAssistYCoeff
                0x800001a8                hapticBdrvAssistThetaCoeff
                0x800001ac                vxGlobalGoalHapticBdrvAssist
                0x800001b0                vyGlobalGoalHapticBdrvAssist
                0x800001b4                wGlobalGoalHapticBdrvAssist
                0x800001b8                simpleVibrationEnabled
                0x800001ba                simpleVibrationPeriod
                0x800001bc                simpleVibrationEndTime
                0x800001c0                simpleVibrationInvertTime
                0x800001c4                vxGlobalGoalSimpleVibration
                0x800001c8                vyGlobalGoalSimpleVibration
                0x800001cc                wGlobalGoalSimpleVibration
                0x800001d0                vibrationOnMotionEnabled
                0x800001d2                vibrationOnMotionPeriod
                0x800001d4                vibrationOnMotionInvertTime
                0x800001d8                vibrationOnMotionPositive
                0x800001dc                vibrationOnMotionIntensityCoeff
                0x800001e0                vxGlobalGoalVibrationOnMotion
                0x800001e4                vyGlobalGoalVibrationOnMotion
                0x800001e8                wGlobalGoalVibrationOnMotion
 .sbss          0x800001ec       0x14 build/pic32mz1024ecg064/production/_ext/1360937237/bezier.o
                0x800001ec                currentT
                0x800001f0                currentX
                0x800001f4                currentY
                0x800001f8                currentDist
                0x800001fc                numSegments
 .sbss          0x80000200        0x4 /opt/microchip/xc32/v1.34/bin/bin/../../lib/gcc/pic32mx/4.5.2/../../../../pic32mx/lib/libc.a(errno.o)
                0x80000200                errno
 *(.scommon)
 .scommon       0x80000204        0x4 build/pic32mz1024ecg064/production/_ext/1055008133/system_init.o
                0x80000204                sysObj
 .scommon       0x80000208       0x30 build/pic32mz1024ecg064/production/_ext/1360937237/led.o
                0x80000208                effectCounter2
                0x8000020c                effectCounter1
                0x80000210                currentLEDNumber
                0x80000214                previousVisualEffect
                0x80000218                previousEffectValue
                0x8000021c                updateRequested
                0x8000021d                latched
                0x80000220                visualEffect
                0x80000224                ledResponseMode
                0x80000228                effectTransition
                0x8000022c                currentEffectValue
                0x80000230                prevGesture
                0x80000234                currentBufferIndex
 .scommon       0x80000238        0x4 build/pic32mz1024ecg064/production/_ext/1360937237/cam.o
                0x80000238                autoexposure
                0x80000239                frameConsumed
                0x8000023a                frameRequest
                0x8000023b                camSleepReady
 .scommon       0x8000023c       0x10 build/pic32mz1024ecg064/production/_ext/1360937237/bluetooth.o
                0x8000023c                btRxQueueWriteIndex
                0x80000240                btRxCmdIndex
                0x80000244                cTemp
                0x80000248                btRxQueueReadIndex
 .scommon       0x8000024c        0x6 build/pic32mz1024ecg064/production/_ext/1360937237/at42qt1070.o
                0x8000024c                keyState
                0x80000250                keyStateBuf
 *fill*         0x80000252        0x2 
 .scommon       0x80000254        0x6 build/pic32mz1024ecg064/production/_ext/1360937237/touch.o
                0x80000254                keyTouchStatesNew
 .scommon       0x8000025a        0x3 build/pic32mz1024ecg064/production/_ext/1360937237/battery.o
                0x8000025a                BAT_PG_BAR
                0x8000025b                BAT_STAT2
                0x8000025c                BAT_STAT1_LBO
 *fill*         0x8000025d        0x3 
 .scommon       0x80000260        0x8 build/pic32mz1024ecg064/production/_ext/1360937237/timer.o
                0x80000260                lastActivity
                0x80000264                systemMillis
 .scommon       0x80000268        0x3 build/pic32mz1024ecg064/production/_ext/1360937237/power.o
                0x80000268                exitIdleByTimer
                0x80000269                sleepRequested
                0x8000026a                idleRequested
 *fill*         0x8000026b        0x1 
 .scommon       0x8000026c        0x4 build/pic32mz1024ecg064/production/_ext/1360937237/localization.o
                0x8000026c                posInfo
 .scommon       0x80000270        0x8 build/pic32mz1024ecg064/production/_ext/431183094/sys_devcon.o
                0x80000270                sysDevconObj
 .scommon       0x80000278        0x4 /opt/microchip/harmony/v1_03/bin/framework/peripheral/PIC32MZ1024ECG064_peripherals.a(peripheral.o)
                0x80000278                modeSeljunk
                0x8000027c                _sbss_end = .
                0x8000027c                . = ALIGN (0x4)

.bss            0x8000027c     0x6668
 *(.dynbss)
 *(COMMON)
 COMMON         0x8000027c       0xc4 build/pic32mz1024ecg064/production/_ext/1360937237/led.o
                0x8000027c                currentLEDColorGoals
                0x800002a0                previousLEDColors
                0x800002c4                previousLEDColorGoals
                0x800002e8                effectColor
                0x800002f4                currentLEDColors
                0x80000318                previousEffectColor
                0x80000324                leds
 COMMON         0x80000340     0x5a00 build/pic32mz1024ecg064/production/_ext/1360937237/cam.o
                0x80000340                pixels
                0x80005b60                lines_phy
 COMMON         0x80005d40      0x200 build/pic32mz1024ecg064/production/_ext/1360937237/bluetooth.o
                0x80005d40                btRxCmd
                0x80005e40                btRxQueue
 COMMON         0x80005f40       0x18 build/pic32mz1024ecg064/production/_ext/1360937237/touch.o
                0x80005f40                keyEvent
 COMMON         0x80005f58       0x24 build/pic32mz1024ecg064/production/_ext/1360937237/gesture.o
                0x80005f58                keyRawOffsets
                0x80005f64                keyReferences
                0x80005f70                keySignals
 COMMON         0x80005f7c      0x968 build/pic32mz1024ecg064/production/_ext/1360937237/bezier.o
                0x80005f7c                bezierControlPointsY
                0x80006430                bezierControlPointsX
                0x800068e4                . = ALIGN ((. != 0x0)?0x4:0x1)
                0x800068e4                . = ALIGN (0x4)
                0x800068e4                _end = .
                0x800068e4                _bss_end = .
                0x00080000                _bmxdudba_address = 0x80000
                0x00080000                _bmxdupba_address = 0x80000

/DISCARD/
 *(.pdr)
 *(.rel.dyn)
 *(.note.GNU-stack)
 *(.note.GNU-stack)
 *(.gnu_debuglink)
 *(.gnu.lto_*)
 *(.discard)

.gptab.sdata
 *(.gptab.data)
 *(.gptab.sdata)

.gptab.sbss
 *(.gptab.bss)
 *(.gptab.sbss)

.mdebug.abi32   0x800068e4        0x0
 *(.mdebug.abi32)
 .mdebug.abi32  0x800068e4        0x0 build/pic32mz1024ecg064/production/_ext/115108523/decoder.o
 .mdebug.abi32  0x800068e4        0x0 build/pic32mz1024ecg064/production/_ext/115108523/dots_localization.o
 .mdebug.abi32  0x800068e4        0x0 build/pic32mz1024ecg064/production/_ext/115108523/grid.o
 .mdebug.abi32  0x800068e4        0x0 build/pic32mz1024ecg064/production/_ext/115108523/imgproc.o
 .mdebug.abi32  0x800068e4        0x0 build/pic32mz1024ecg064/production/_ext/115108523/imgsegment.o
 .mdebug.abi32  0x800068e4        0x0 build/pic32mz1024ecg064/production/_ext/115108523/intgrid.o
 .mdebug.abi32  0x800068e4        0x0 build/pic32mz1024ecg064/production/_ext/115108523/gridprobability.o
 .mdebug.abi32  0x800068e4        0x0 build/pic32mz1024ecg064/production/_ext/115108523/intlist.o
 .mdebug.abi32  0x800068e4        0x0 build/pic32mz1024ecg064/production/_ext/63677053/drv_i2c_static.o
 .mdebug.abi32  0x800068e4        0x0 build/pic32mz1024ecg064/production/_ext/2001973653/drv_spi_static.o
 .mdebug.abi32  0x800068e4        0x0 build/pic32mz1024ecg064/production/_ext/1040884377/drv_usart_static.o
 .mdebug.abi32  0x800068e4        0x0 build/pic32mz1024ecg064/production/_ext/563981586/sys_clk_static.o
 .mdebug.abi32  0x800068e4        0x0 build/pic32mz1024ecg064/production/_ext/672157374/sys_ports_static.o
 .mdebug.abi32  0x800068e4        0x0 build/pic32mz1024ecg064/production/_ext/1055008133/system_init.o
 .mdebug.abi32  0x800068e4        0x0 build/pic32mz1024ecg064/production/_ext/1055008133/system_interrupt.o
 .mdebug.abi32  0x800068e4        0x0 build/pic32mz1024ecg064/production/_ext/1055008133/system_tasks.o
 .mdebug.abi32  0x800068e4        0x0 build/pic32mz1024ecg064/production/_ext/1360937237/main.o
 .mdebug.abi32  0x800068e4        0x0 build/pic32mz1024ecg064/production/_ext/1360937237/led.o
 .mdebug.abi32  0x800068e4        0x0 build/pic32mz1024ecg064/production/_ext/1360937237/i2c.o
 .mdebug.abi32  0x800068e4        0x0 build/pic32mz1024ecg064/production/_ext/1360937237/mt9v034.o
 .mdebug.abi32  0x800068e4        0x0 build/pic32mz1024ecg064/production/_ext/1360937237/cam.o
 .mdebug.abi32  0x800068e4        0x0 build/pic32mz1024ecg064/production/_ext/1360937237/bluetooth.o
 .mdebug.abi32  0x800068e4        0x0 build/pic32mz1024ecg064/production/_ext/1360937237/at42qt1070.o
 .mdebug.abi32  0x800068e4        0x0 build/pic32mz1024ecg064/production/_ext/1360937237/touch.o
 .mdebug.abi32  0x800068e4        0x0 build/pic32mz1024ecg064/production/_ext/1360937237/battery.o
 .mdebug.abi32  0x800068e4        0x0 build/pic32mz1024ecg064/production/_ext/1360937237/timer.o
 .mdebug.abi32  0x800068e4        0x0 build/pic32mz1024ecg064/production/_ext/1360937237/power.o
 .mdebug.abi32  0x800068e4        0x0 build/pic32mz1024ecg064/production/_ext/1360937237/watchdog.o
 .mdebug.abi32  0x800068e4        0x0 build/pic32mz1024ecg064/production/_ext/1360937237/motor.o
 .mdebug.abi32  0x800068e4        0x0 build/pic32mz1024ecg064/production/_ext/1360937237/motion.o
 .mdebug.abi32  0x800068e4        0x0 build/pic32mz1024ecg064/production/_ext/1360937237/localization.o
 .mdebug.abi32  0x800068e4        0x0 build/pic32mz1024ecg064/production/_ext/1360937237/pid.o
 .mdebug.abi32  0x800068e4        0x0 build/pic32mz1024ecg064/production/_ext/1360937237/gesture.o
 .mdebug.abi32  0x800068e4        0x0 build/pic32mz1024ecg064/production/_ext/1360937237/haptics.o
 .mdebug.abi32  0x800068e4        0x0 build/pic32mz1024ecg064/production/_ext/1360937237/bezier.o
 .mdebug.abi32  0x800068e4        0x0 build/pic32mz1024ecg064/production/_ext/431183094/sys_devcon.o
 .mdebug.abi32  0x800068e4        0x0 build/pic32mz1024ecg064/production/_ext/431183094/sys_devcon_pic32mz.o
 .mdebug.abi32  0x800068e4        0x0 build/pic32mz1024ecg064/production/_ext/754521456/sys_int_pic32.o
 .mdebug.abi32  0x800068e4        0x0 build/pic32mz1024ecg064/production/_ext/1419604243/sys_ports.o
 .mdebug.abi32  0x800068e4        0x0 /opt/microchip/harmony/v1_03/bin/framework/peripheral/PIC32MZ1024ECG064_peripherals.a(peripheral.o)
 .mdebug.abi32  0x800068e4        0x0 /opt/microchip/xc32/v1.34/bin/bin/../../lib/gcc/pic32mx/4.5.2/libgcc.a(_divdi3.o)
 .mdebug.abi32  0x800068e4        0x0 /opt/microchip/xc32/v1.34/bin/bin/../../lib/gcc/pic32mx/4.5.2/libgcc.a(_moddi3.o)
 .mdebug.abi32  0x800068e4        0x0 /opt/microchip/xc32/v1.34/bin/bin/../../lib/gcc/pic32mx/4.5.2/libgcc.a(floatunsisf.o)
 .mdebug.abi32  0x800068e4        0x0 /opt/microchip/xc32/v1.34/bin/bin/../../lib/gcc/pic32mx/4.5.2/../../../../pic32mx/lib/libpic32.a(default-bootstrap-exception-handler.o)
 .mdebug.abi32  0x800068e4        0x0 /opt/microchip/xc32/v1.34/bin/bin/../../lib/gcc/pic32mx/4.5.2/../../../../pic32mx/lib/libpic32.a(default-on-reset.o)
 .mdebug.abi32  0x800068e4        0x0 /opt/microchip/xc32/v1.34/bin/bin/../../lib/gcc/pic32mx/4.5.2/../../../../pic32mx/lib/libpic32.a(default-on-bootstrap.o)
 .mdebug.abi32  0x800068e4        0x0 /opt/microchip/xc32/v1.34/bin/bin/../../lib/gcc/pic32mx/4.5.2/../../../../pic32mx/lib/libpic32.a(defaultinterrupt.o)
 .mdebug.abi32  0x800068e4        0x0 /opt/microchip/xc32/v1.34/bin/bin/../../lib/gcc/pic32mx/4.5.2/../../../../pic32mx/lib/libm.a(w_atan2f.o)
 .mdebug.abi32  0x800068e4        0x0 /opt/microchip/xc32/v1.34/bin/bin/../../lib/gcc/pic32mx/4.5.2/../../../../pic32mx/lib/libm.a(w_sqrtf.o)
 .mdebug.abi32  0x800068e4        0x0 /opt/microchip/xc32/v1.34/bin/bin/../../lib/gcc/pic32mx/4.5.2/../../../../pic32mx/lib/libm.a(support.o)
 .mdebug.abi32  0x800068e4        0x0 /opt/microchip/xc32/v1.34/bin/bin/../../lib/gcc/pic32mx/4.5.2/../../../../pic32mx/lib/libm.a(s_lib_ver.o)
 .mdebug.abi32  0x800068e4        0x0 /opt/microchip/xc32/v1.34/bin/bin/../../lib/gcc/pic32mx/4.5.2/../../../../pic32mx/lib/libc.a(errno.o)

.mdebug.abiN32
 *(.mdebug.abiN32)

.mdebug.abi64
 *(.mdebug.abi64)

.mdebug.abiO64
 *(.mdebug.abiO64)

.mdebug.eabi32
 *(.mdebug.eabi32)

.mdebug.eabi64
 *(.mdebug.eabi64)

.gcc_compiled_long32
 *(.gcc_compiled_long32)

.gcc_compiled_long64
 *(.gcc_compiled_long64)

.stab
 *(.stab)

.stabstr
 *(.stabstr)

.stab.excl
 *(.stab.excl)

.stab.exclstr
 *(.stab.exclstr)

.stab.index
 *(.stab.index)

.stab.indexstr
 *(.stab.indexstr)

.comment        0x00000000       0x3c
 *(.comment)
 .comment       0x00000000       0x3c build/pic32mz1024ecg064/production/_ext/115108523/decoder.o
                                 0x3d (size before relaxing)
 .comment       0x00000000       0x3d build/pic32mz1024ecg064/production/_ext/115108523/dots_localization.o
 .comment       0x00000000       0x3d build/pic32mz1024ecg064/production/_ext/115108523/grid.o
 .comment       0x00000000       0x3d build/pic32mz1024ecg064/production/_ext/115108523/imgproc.o
 .comment       0x00000000       0x3d build/pic32mz1024ecg064/production/_ext/115108523/imgsegment.o
 .comment       0x00000000       0x3d build/pic32mz1024ecg064/production/_ext/115108523/intgrid.o
 .comment       0x00000000       0x3d build/pic32mz1024ecg064/production/_ext/115108523/gridprobability.o
 .comment       0x00000000       0x3d build/pic32mz1024ecg064/production/_ext/115108523/intlist.o
 .comment       0x00000000       0x3d build/pic32mz1024ecg064/production/_ext/63677053/drv_i2c_static.o
 .comment       0x00000000       0x3d build/pic32mz1024ecg064/production/_ext/2001973653/drv_spi_static.o
 .comment       0x00000000       0x3d build/pic32mz1024ecg064/production/_ext/1040884377/drv_usart_static.o
 .comment       0x00000000       0x3d build/pic32mz1024ecg064/production/_ext/563981586/sys_clk_static.o
 .comment       0x00000000       0x3d build/pic32mz1024ecg064/production/_ext/672157374/sys_ports_static.o
 .comment       0x00000000       0x3d build/pic32mz1024ecg064/production/_ext/1055008133/system_init.o
 .comment       0x00000000       0x3d build/pic32mz1024ecg064/production/_ext/1055008133/system_interrupt.o
 .comment       0x00000000       0x3d build/pic32mz1024ecg064/production/_ext/1055008133/system_tasks.o
 .comment       0x00000000       0x3d build/pic32mz1024ecg064/production/_ext/1360937237/main.o
 .comment       0x00000000       0x3d build/pic32mz1024ecg064/production/_ext/1360937237/led.o
 .comment       0x00000000       0x3d build/pic32mz1024ecg064/production/_ext/1360937237/i2c.o
 .comment       0x00000000       0x3d build/pic32mz1024ecg064/production/_ext/1360937237/mt9v034.o
 .comment       0x00000000       0x3d build/pic32mz1024ecg064/production/_ext/1360937237/cam.o
 .comment       0x00000000       0x3d build/pic32mz1024ecg064/production/_ext/1360937237/bluetooth.o
 .comment       0x00000000       0x3d build/pic32mz1024ecg064/production/_ext/1360937237/at42qt1070.o
 .comment       0x00000000       0x3d build/pic32mz1024ecg064/production/_ext/1360937237/touch.o
 .comment       0x00000000       0x3d build/pic32mz1024ecg064/production/_ext/1360937237/battery.o
 .comment       0x00000000       0x3d build/pic32mz1024ecg064/production/_ext/1360937237/timer.o
 .comment       0x00000000       0x3d build/pic32mz1024ecg064/production/_ext/1360937237/power.o
 .comment       0x00000000       0x3d build/pic32mz1024ecg064/production/_ext/1360937237/watchdog.o
 .comment       0x00000000       0x3d build/pic32mz1024ecg064/production/_ext/1360937237/motor.o
 .comment       0x00000000       0x3d build/pic32mz1024ecg064/production/_ext/1360937237/motion.o
 .comment       0x00000000       0x3d build/pic32mz1024ecg064/production/_ext/1360937237/localization.o
 .comment       0x00000000       0x3d build/pic32mz1024ecg064/production/_ext/1360937237/pid.o
 .comment       0x00000000       0x3d build/pic32mz1024ecg064/production/_ext/1360937237/gesture.o
 .comment       0x00000000       0x3d build/pic32mz1024ecg064/production/_ext/1360937237/haptics.o
 .comment       0x00000000       0x3d build/pic32mz1024ecg064/production/_ext/1360937237/bezier.o
 .comment       0x00000000       0x3d build/pic32mz1024ecg064/production/_ext/431183094/sys_devcon.o
 .comment       0x00000000       0x3d build/pic32mz1024ecg064/production/_ext/431183094/sys_devcon_pic32mz.o
 .comment       0x00000000       0x3d build/pic32mz1024ecg064/production/_ext/754521456/sys_int_pic32.o
 .comment       0x00000000       0x3d build/pic32mz1024ecg064/production/_ext/1419604243/sys_ports.o
 .comment       0x00000000       0x3d /opt/microchip/harmony/v1_03/bin/framework/peripheral/PIC32MZ1024ECG064_peripherals.a(peripheral.o)
 .comment       0x00000000       0x3d /opt/microchip/xc32/v1.34/bin/bin/../../lib/gcc/pic32mx/4.5.2/libgcc.a(_divdi3.o)
 .comment       0x00000000       0x3d /opt/microchip/xc32/v1.34/bin/bin/../../lib/gcc/pic32mx/4.5.2/libgcc.a(_moddi3.o)
 .comment       0x00000000       0x3d /opt/microchip/xc32/v1.34/bin/bin/../../lib/gcc/pic32mx/4.5.2/libgcc.a(floatunsisf.o)
 .comment       0x00000000       0x3d /opt/microchip/xc32/v1.34/bin/bin/../../lib/gcc/pic32mx/4.5.2/../../../../pic32mx/lib/libpic32.a(default-bootstrap-exception-handler.o)
 .comment       0x00000000       0x3d /opt/microchip/xc32/v1.34/bin/bin/../../lib/gcc/pic32mx/4.5.2/../../../../pic32mx/lib/libpic32.a(default-on-reset.o)
 .comment       0x00000000       0x3d /opt/microchip/xc32/v1.34/bin/bin/../../lib/gcc/pic32mx/4.5.2/../../../../pic32mx/lib/libpic32.a(default-on-bootstrap.o)
 .comment       0x00000000       0x3d /opt/microchip/xc32/v1.34/bin/bin/../../lib/gcc/pic32mx/4.5.2/../../../../pic32mx/lib/libpic32.a(defaultinterrupt.o)
 .comment       0x00000000       0x3d /opt/microchip/xc32/v1.34/bin/bin/../../lib/gcc/pic32mx/4.5.2/../../../../pic32mx/lib/libm.a(w_atan2f.o)
 .comment       0x00000000       0x3d /opt/microchip/xc32/v1.34/bin/bin/../../lib/gcc/pic32mx/4.5.2/../../../../pic32mx/lib/libm.a(w_sqrtf.o)
 .comment       0x00000000       0x3d /opt/microchip/xc32/v1.34/bin/bin/../../lib/gcc/pic32mx/4.5.2/../../../../pic32mx/lib/libm.a(support.o)
 .comment       0x00000000       0x3d /opt/microchip/xc32/v1.34/bin/bin/../../lib/gcc/pic32mx/4.5.2/../../../../pic32mx/lib/libm.a(s_lib_ver.o)
 .comment       0x00000000       0x3d /opt/microchip/xc32/v1.34/bin/bin/../../lib/gcc/pic32mx/4.5.2/../../../../pic32mx/lib/libc.a(errno.o)

.debug
 *(.debug)

.line
 *(.line)

.debug_srcinfo
 *(.debug_srcinfo)

.debug_sfnames
 *(.debug_sfnames)

.debug_aranges  0x00000000     0x1168
 *(.debug_aranges)
 .debug_aranges
                0x00000000       0xb0 build/pic32mz1024ecg064/production/_ext/115108523/decoder.o
 .debug_aranges
                0x000000b0       0x88 build/pic32mz1024ecg064/production/_ext/115108523/dots_localization.o
 .debug_aranges
                0x00000138       0x68 build/pic32mz1024ecg064/production/_ext/115108523/grid.o
 .debug_aranges
                0x000001a0       0x40 build/pic32mz1024ecg064/production/_ext/115108523/imgproc.o
 .debug_aranges
                0x000001e0       0x30 build/pic32mz1024ecg064/production/_ext/115108523/imgsegment.o
 .debug_aranges
                0x00000210       0x68 build/pic32mz1024ecg064/production/_ext/115108523/intgrid.o
 .debug_aranges
                0x00000278       0x60 build/pic32mz1024ecg064/production/_ext/115108523/gridprobability.o
 .debug_aranges
                0x000002d8       0x30 build/pic32mz1024ecg064/production/_ext/115108523/intlist.o
 .debug_aranges
                0x00000308       0xa8 build/pic32mz1024ecg064/production/_ext/63677053/drv_i2c_static.o
 .debug_aranges
                0x000003b0       0x40 build/pic32mz1024ecg064/production/_ext/2001973653/drv_spi_static.o
 .debug_aranges
                0x000003f0       0x58 build/pic32mz1024ecg064/production/_ext/1040884377/drv_usart_static.o
 .debug_aranges
                0x00000448       0x38 build/pic32mz1024ecg064/production/_ext/563981586/sys_clk_static.o
 .debug_aranges
                0x00000480       0x20 build/pic32mz1024ecg064/production/_ext/672157374/sys_ports_static.o
 .debug_aranges
                0x000004a0       0x20 build/pic32mz1024ecg064/production/_ext/1055008133/system_init.o
 .debug_aranges
                0x000004c0       0x20 build/pic32mz1024ecg064/production/_ext/1055008133/system_tasks.o
 .debug_aranges
                0x000004e0       0x38 build/pic32mz1024ecg064/production/_ext/1360937237/main.o
 .debug_aranges
                0x00000518       0xe0 build/pic32mz1024ecg064/production/_ext/1360937237/led.o
 .debug_aranges
                0x000005f8       0x40 build/pic32mz1024ecg064/production/_ext/1360937237/i2c.o
 .debug_aranges
                0x00000638       0x60 build/pic32mz1024ecg064/production/_ext/1360937237/mt9v034.o
 .debug_aranges
                0x00000698       0x70 build/pic32mz1024ecg064/production/_ext/1360937237/cam.o
 .debug_aranges
                0x00000708      0x198 build/pic32mz1024ecg064/production/_ext/1360937237/bluetooth.o
 .debug_aranges
                0x000008a0       0x78 build/pic32mz1024ecg064/production/_ext/1360937237/at42qt1070.o
 .debug_aranges
                0x00000918       0x60 build/pic32mz1024ecg064/production/_ext/1360937237/touch.o
 .debug_aranges
                0x00000978       0x48 build/pic32mz1024ecg064/production/_ext/1360937237/battery.o
 .debug_aranges
                0x000009c0       0x50 build/pic32mz1024ecg064/production/_ext/1360937237/timer.o
 .debug_aranges
                0x00000a10       0x80 build/pic32mz1024ecg064/production/_ext/1360937237/power.o
 .debug_aranges
                0x00000a90       0x40 build/pic32mz1024ecg064/production/_ext/1360937237/watchdog.o
 .debug_aranges
                0x00000ad0       0x48 build/pic32mz1024ecg064/production/_ext/1360937237/motor.o
 .debug_aranges
                0x00000b18       0xd8 build/pic32mz1024ecg064/production/_ext/1360937237/motion.o
 .debug_aranges
                0x00000bf0       0x40 build/pic32mz1024ecg064/production/_ext/1360937237/localization.o
 .debug_aranges
                0x00000c30       0x30 build/pic32mz1024ecg064/production/_ext/1360937237/pid.o
 .debug_aranges
                0x00000c60       0x38 build/pic32mz1024ecg064/production/_ext/1360937237/gesture.o
 .debug_aranges
                0x00000c98       0x68 build/pic32mz1024ecg064/production/_ext/1360937237/haptics.o
 .debug_aranges
                0x00000d00       0x60 build/pic32mz1024ecg064/production/_ext/1360937237/bezier.o
 .debug_aranges
                0x00000d60       0x78 build/pic32mz1024ecg064/production/_ext/431183094/sys_devcon.o
 .debug_aranges
                0x00000dd8       0xc8 build/pic32mz1024ecg064/production/_ext/431183094/sys_devcon_pic32mz.o
 .debug_aranges
                0x00000ea0       0x38 build/pic32mz1024ecg064/production/_ext/754521456/sys_int_pic32.o
 .debug_aranges
                0x00000ed8       0xf8 build/pic32mz1024ecg064/production/_ext/1419604243/sys_ports.o
 .debug_aranges
                0x00000fd0       0x20 /opt/microchip/xc32/v1.34/bin/bin/../../lib/gcc/pic32mx/4.5.2/libgcc.a(_divdi3.o)
 .debug_aranges
                0x00000ff0       0x20 /opt/microchip/xc32/v1.34/bin/bin/../../lib/gcc/pic32mx/4.5.2/libgcc.a(_moddi3.o)
 .debug_aranges
                0x00001010       0x20 /opt/microchip/xc32/v1.34/bin/bin/../../lib/gcc/pic32mx/4.5.2/libgcc.a(floatunsisf.o)
 .debug_aranges
                0x00001030       0x20 /opt/microchip/xc32/v1.34/bin/bin/../../lib/gcc/pic32mx/4.5.2/../../../../pic32mx/lib/libpic32.a(default-bootstrap-exception-handler.o)
 .debug_aranges
                0x00001050       0x20 /opt/microchip/xc32/v1.34/bin/bin/../../lib/gcc/pic32mx/4.5.2/../../../../pic32mx/lib/libpic32.a(default-on-reset.o)
 .debug_aranges
                0x00001070       0x20 /opt/microchip/xc32/v1.34/bin/bin/../../lib/gcc/pic32mx/4.5.2/../../../../pic32mx/lib/libpic32.a(default-on-bootstrap.o)
 .debug_aranges
                0x00001090       0x20 /opt/microchip/xc32/v1.34/bin/bin/../../lib/gcc/pic32mx/4.5.2/../../../../pic32mx/lib/libpic32.a(defaultinterrupt.o)
 .debug_aranges
                0x000010b0       0x20 /opt/microchip/xc32/v1.34/bin/bin/../../lib/gcc/pic32mx/4.5.2/../../../../pic32mx/lib/libm.a(w_atan2f.o)
 .debug_aranges
                0x000010d0       0x20 /opt/microchip/xc32/v1.34/bin/bin/../../lib/gcc/pic32mx/4.5.2/../../../../pic32mx/lib/libm.a(w_sqrtf.o)
 .debug_aranges
                0x000010f0       0x78 /opt/microchip/xc32/v1.34/bin/bin/../../lib/gcc/pic32mx/4.5.2/../../../../pic32mx/lib/libm.a(support.o)

.debug_pubnames
                0x00000000     0x36b9
 *(.debug_pubnames)
 .debug_pubnames
                0x00000000      0x198 build/pic32mz1024ecg064/production/_ext/115108523/decoder.o
 .debug_pubnames
                0x00000198      0x111 build/pic32mz1024ecg064/production/_ext/115108523/dots_localization.o
 .debug_pubnames
                0x000002a9       0x8e build/pic32mz1024ecg064/production/_ext/115108523/grid.o
 .debug_pubnames
                0x00000337       0x54 build/pic32mz1024ecg064/production/_ext/115108523/imgproc.o
 .debug_pubnames
                0x0000038b       0x50 build/pic32mz1024ecg064/production/_ext/115108523/imgsegment.o
 .debug_pubnames
                0x000003db       0xd6 build/pic32mz1024ecg064/production/_ext/115108523/intgrid.o
 .debug_pubnames
                0x000004b1       0xa0 build/pic32mz1024ecg064/production/_ext/115108523/gridprobability.o
 .debug_pubnames
                0x00000551       0x47 build/pic32mz1024ecg064/production/_ext/115108523/intlist.o
 .debug_pubnames
                0x00000598      0x21d build/pic32mz1024ecg064/production/_ext/63677053/drv_i2c_static.o
 .debug_pubnames
                0x000007b5       0xab build/pic32mz1024ecg064/production/_ext/2001973653/drv_spi_static.o
 .debug_pubnames
                0x00000860       0xf2 build/pic32mz1024ecg064/production/_ext/1040884377/drv_usart_static.o
 .debug_pubnames
                0x00000952       0x92 build/pic32mz1024ecg064/production/_ext/563981586/sys_clk_static.o
 .debug_pubnames
                0x000009e4       0x2b build/pic32mz1024ecg064/production/_ext/672157374/sys_ports_static.o
 .debug_pubnames
                0x00000a0f       0x42 build/pic32mz1024ecg064/production/_ext/1055008133/system_init.o
 .debug_pubnames
                0x00000a51       0x20 build/pic32mz1024ecg064/production/_ext/1055008133/system_tasks.o
 .debug_pubnames
                0x00000a71       0x84 build/pic32mz1024ecg064/production/_ext/1360937237/main.o
 .debug_pubnames
                0x00000af5      0x366 build/pic32mz1024ecg064/production/_ext/1360937237/led.o
 .debug_pubnames
                0x00000e5b       0x90 build/pic32mz1024ecg064/production/_ext/1360937237/i2c.o
 .debug_pubnames
                0x00000eeb       0xfc build/pic32mz1024ecg064/production/_ext/1360937237/mt9v034.o
 .debug_pubnames
                0x00000fe7      0x1b1 build/pic32mz1024ecg064/production/_ext/1360937237/cam.o
 .debug_pubnames
                0x00001198      0x548 build/pic32mz1024ecg064/production/_ext/1360937237/bluetooth.o
 .debug_pubnames
                0x000016e0      0x161 build/pic32mz1024ecg064/production/_ext/1360937237/at42qt1070.o
 .debug_pubnames
                0x00001841      0x1b9 build/pic32mz1024ecg064/production/_ext/1360937237/touch.o
 .debug_pubnames
                0x000019fa       0xe6 build/pic32mz1024ecg064/production/_ext/1360937237/battery.o
 .debug_pubnames
                0x00001ae0       0xb9 build/pic32mz1024ecg064/production/_ext/1360937237/timer.o
 .debug_pubnames
                0x00001b99      0x16c build/pic32mz1024ecg064/production/_ext/1360937237/power.o
 .debug_pubnames
                0x00001d05       0x7d build/pic32mz1024ecg064/production/_ext/1360937237/watchdog.o
 .debug_pubnames
                0x00001d82       0x81 build/pic32mz1024ecg064/production/_ext/1360937237/motor.o
 .debug_pubnames
                0x00001e03      0x583 build/pic32mz1024ecg064/production/_ext/1360937237/motion.o
 .debug_pubnames
                0x00002386      0x17f build/pic32mz1024ecg064/production/_ext/1360937237/localization.o
 .debug_pubnames
                0x00002505       0x39 build/pic32mz1024ecg064/production/_ext/1360937237/pid.o
 .debug_pubnames
                0x0000253e       0xdd build/pic32mz1024ecg064/production/_ext/1360937237/gesture.o
 .debug_pubnames
                0x0000261b      0x50a build/pic32mz1024ecg064/production/_ext/1360937237/haptics.o
 .debug_pubnames
                0x00002b25      0x15f build/pic32mz1024ecg064/production/_ext/1360937237/bezier.o
 .debug_pubnames
                0x00002c84      0x160 build/pic32mz1024ecg064/production/_ext/431183094/sys_devcon.o
 .debug_pubnames
                0x00002de4      0x30e build/pic32mz1024ecg064/production/_ext/431183094/sys_devcon_pic32mz.o
 .debug_pubnames
                0x000030f2       0x7f build/pic32mz1024ecg064/production/_ext/754521456/sys_int_pic32.o
 .debug_pubnames
                0x00003171      0x376 build/pic32mz1024ecg064/production/_ext/1419604243/sys_ports.o
 .debug_pubnames
                0x000034e7       0x1f /opt/microchip/xc32/v1.34/bin/bin/../../lib/gcc/pic32mx/4.5.2/libgcc.a(_divdi3.o)
 .debug_pubnames
                0x00003506       0x1f /opt/microchip/xc32/v1.34/bin/bin/../../lib/gcc/pic32mx/4.5.2/libgcc.a(_moddi3.o)
 .debug_pubnames
                0x00003525       0x24 /opt/microchip/xc32/v1.34/bin/bin/../../lib/gcc/pic32mx/4.5.2/libgcc.a(floatunsisf.o)
 .debug_pubnames
                0x00003549       0x33 /opt/microchip/xc32/v1.34/bin/bin/../../lib/gcc/pic32mx/4.5.2/../../../../pic32mx/lib/libpic32.a(default-bootstrap-exception-handler.o)
 .debug_pubnames
                0x0000357c       0x20 /opt/microchip/xc32/v1.34/bin/bin/../../lib/gcc/pic32mx/4.5.2/../../../../pic32mx/lib/libpic32.a(default-on-reset.o)
 .debug_pubnames
                0x0000359c       0x24 /opt/microchip/xc32/v1.34/bin/bin/../../lib/gcc/pic32mx/4.5.2/../../../../pic32mx/lib/libpic32.a(default-on-bootstrap.o)
 .debug_pubnames
                0x000035c0       0x28 /opt/microchip/xc32/v1.34/bin/bin/../../lib/gcc/pic32mx/4.5.2/../../../../pic32mx/lib/libpic32.a(defaultinterrupt.o)
 .debug_pubnames
                0x000035e8       0x1d /opt/microchip/xc32/v1.34/bin/bin/../../lib/gcc/pic32mx/4.5.2/../../../../pic32mx/lib/libm.a(w_atan2f.o)
 .debug_pubnames
                0x00003605       0x1c /opt/microchip/xc32/v1.34/bin/bin/../../lib/gcc/pic32mx/4.5.2/../../../../pic32mx/lib/libm.a(w_sqrtf.o)
 .debug_pubnames
                0x00003621       0x98 /opt/microchip/xc32/v1.34/bin/bin/../../lib/gcc/pic32mx/4.5.2/../../../../pic32mx/lib/libm.a(support.o)

.debug_info     0x00000000    0x5d87c
 *(.debug_info .gnu.linkonce.wi.*)
 .debug_info    0x00000000     0x103a build/pic32mz1024ecg064/production/_ext/115108523/decoder.o
 .debug_info    0x0000103a      0x999 build/pic32mz1024ecg064/production/_ext/115108523/dots_localization.o
 .debug_info    0x000019d3      0xd5a build/pic32mz1024ecg064/production/_ext/115108523/grid.o
 .debug_info    0x0000272d      0x65a build/pic32mz1024ecg064/production/_ext/115108523/imgproc.o
 .debug_info    0x00002d87      0x239 build/pic32mz1024ecg064/production/_ext/115108523/imgsegment.o
 .debug_info    0x00002fc0      0x6c1 build/pic32mz1024ecg064/production/_ext/115108523/intgrid.o
 .debug_info    0x00003681      0x906 build/pic32mz1024ecg064/production/_ext/115108523/gridprobability.o
 .debug_info    0x00003f87      0x27d build/pic32mz1024ecg064/production/_ext/115108523/intlist.o
 .debug_info    0x00004204     0x2fe0 build/pic32mz1024ecg064/production/_ext/63677053/drv_i2c_static.o
 .debug_info    0x000071e4     0x4677 build/pic32mz1024ecg064/production/_ext/2001973653/drv_spi_static.o
 .debug_info    0x0000b85b     0x46f2 build/pic32mz1024ecg064/production/_ext/1040884377/drv_usart_static.o
 .debug_info    0x0000ff4d     0x2749 build/pic32mz1024ecg064/production/_ext/563981586/sys_clk_static.o
 .debug_info    0x00012696     0x2454 build/pic32mz1024ecg064/production/_ext/672157374/sys_ports_static.o
 .debug_info    0x00014aea     0x5a2d build/pic32mz1024ecg064/production/_ext/1055008133/system_init.o
 .debug_info    0x0001a517     0x201b build/pic32mz1024ecg064/production/_ext/1055008133/system_interrupt.o
 .debug_info    0x0001c532     0x20b0 build/pic32mz1024ecg064/production/_ext/1055008133/system_tasks.o
 .debug_info    0x0001e5e2     0x3336 build/pic32mz1024ecg064/production/_ext/1360937237/main.o
 .debug_info    0x00021918     0x5878 build/pic32mz1024ecg064/production/_ext/1360937237/led.o
 .debug_info    0x00027190     0x3170 build/pic32mz1024ecg064/production/_ext/1360937237/i2c.o
 .debug_info    0x0002a300     0x27a9 build/pic32mz1024ecg064/production/_ext/1360937237/mt9v034.o
 .debug_info    0x0002caa9     0x37f7 build/pic32mz1024ecg064/production/_ext/1360937237/cam.o
 .debug_info    0x000302a0     0x40a4 build/pic32mz1024ecg064/production/_ext/1360937237/bluetooth.o
 .debug_info    0x00034344     0x2495 build/pic32mz1024ecg064/production/_ext/1360937237/at42qt1070.o
 .debug_info    0x000367d9     0x25a6 build/pic32mz1024ecg064/production/_ext/1360937237/touch.o
 .debug_info    0x00038d7f     0x2791 build/pic32mz1024ecg064/production/_ext/1360937237/battery.o
 .debug_info    0x0003b510     0x44cc build/pic32mz1024ecg064/production/_ext/1360937237/timer.o
 .debug_info    0x0003f9dc     0x4e9e build/pic32mz1024ecg064/production/_ext/1360937237/power.o
 .debug_info    0x0004487a     0x23c4 build/pic32mz1024ecg064/production/_ext/1360937237/watchdog.o
 .debug_info    0x00046c3e     0x2d77 build/pic32mz1024ecg064/production/_ext/1360937237/motor.o
 .debug_info    0x000499b5     0x30ea build/pic32mz1024ecg064/production/_ext/1360937237/motion.o
 .debug_info    0x0004ca9f     0x266a build/pic32mz1024ecg064/production/_ext/1360937237/localization.o
 .debug_info    0x0004f109      0x24a build/pic32mz1024ecg064/production/_ext/1360937237/pid.o
 .debug_info    0x0004f353     0x242e build/pic32mz1024ecg064/production/_ext/1360937237/gesture.o
 .debug_info    0x00051781     0x27d0 build/pic32mz1024ecg064/production/_ext/1360937237/haptics.o
 .debug_info    0x00053f51     0x25e5 build/pic32mz1024ecg064/production/_ext/1360937237/bezier.o
 .debug_info    0x00056536      0xbb6 build/pic32mz1024ecg064/production/_ext/431183094/sys_devcon.o
 .debug_info    0x000570ec      0xaeb build/pic32mz1024ecg064/production/_ext/431183094/sys_devcon_pic32mz.o
 .debug_info    0x00057bd7     0x1532 build/pic32mz1024ecg064/production/_ext/754521456/sys_int_pic32.o
 .debug_info    0x00059109     0x3058 build/pic32mz1024ecg064/production/_ext/1419604243/sys_ports.o
 .debug_info    0x0005c161      0x7bb /opt/microchip/xc32/v1.34/bin/bin/../../lib/gcc/pic32mx/4.5.2/libgcc.a(_divdi3.o)
 .debug_info    0x0005c91c      0x7e4 /opt/microchip/xc32/v1.34/bin/bin/../../lib/gcc/pic32mx/4.5.2/libgcc.a(_moddi3.o)
 .debug_info    0x0005d100      0x12c /opt/microchip/xc32/v1.34/bin/bin/../../lib/gcc/pic32mx/4.5.2/libgcc.a(floatunsisf.o)
 .debug_info    0x0005d22c       0xe2 /opt/microchip/xc32/v1.34/bin/bin/../../lib/gcc/pic32mx/4.5.2/../../../../pic32mx/lib/libpic32.a(default-bootstrap-exception-handler.o)
 .debug_info    0x0005d30e       0xbc /opt/microchip/xc32/v1.34/bin/bin/../../lib/gcc/pic32mx/4.5.2/../../../../pic32mx/lib/libpic32.a(default-on-reset.o)
 .debug_info    0x0005d3ca       0xc4 /opt/microchip/xc32/v1.34/bin/bin/../../lib/gcc/pic32mx/4.5.2/../../../../pic32mx/lib/libpic32.a(default-on-bootstrap.o)
 .debug_info    0x0005d48e       0xd6 /opt/microchip/xc32/v1.34/bin/bin/../../lib/gcc/pic32mx/4.5.2/../../../../pic32mx/lib/libpic32.a(defaultinterrupt.o)
 .debug_info    0x0005d564       0xca /opt/microchip/xc32/v1.34/bin/bin/../../lib/gcc/pic32mx/4.5.2/../../../../pic32mx/lib/libm.a(w_atan2f.o)
 .debug_info    0x0005d62e       0xac /opt/microchip/xc32/v1.34/bin/bin/../../lib/gcc/pic32mx/4.5.2/../../../../pic32mx/lib/libm.a(w_sqrtf.o)
 .debug_info    0x0005d6da      0x1a2 /opt/microchip/xc32/v1.34/bin/bin/../../lib/gcc/pic32mx/4.5.2/../../../../pic32mx/lib/libm.a(support.o)
 .debug_info    0x0005d87c        0x0 /opt/microchip/xc32/v1.34/bin/bin/../../lib/gcc/pic32mx/4.5.2/../../../../pic32mx/lib/libm.a(s_lib_ver.o)
 .debug_info    0x0005d87c        0x0 /opt/microchip/xc32/v1.34/bin/bin/../../lib/gcc/pic32mx/4.5.2/../../../../pic32mx/lib/libc.a(errno.o)

.debug_abbrev   0x00000000     0x3486
 *(.debug_abbrev)
 .debug_abbrev  0x00000000      0x19e build/pic32mz1024ecg064/production/_ext/115108523/decoder.o
 .debug_abbrev  0x0000019e      0x11a build/pic32mz1024ecg064/production/_ext/115108523/dots_localization.o
 .debug_abbrev  0x000002b8      0x1be build/pic32mz1024ecg064/production/_ext/115108523/grid.o
 .debug_abbrev  0x00000476      0x128 build/pic32mz1024ecg064/production/_ext/115108523/imgproc.o
 .debug_abbrev  0x0000059e       0xb6 build/pic32mz1024ecg064/production/_ext/115108523/imgsegment.o
 .debug_abbrev  0x00000654      0x107 build/pic32mz1024ecg064/production/_ext/115108523/intgrid.o
 .debug_abbrev  0x0000075b      0x13e build/pic32mz1024ecg064/production/_ext/115108523/gridprobability.o
 .debug_abbrev  0x00000899       0xca build/pic32mz1024ecg064/production/_ext/115108523/intlist.o
 .debug_abbrev  0x00000963      0x13c build/pic32mz1024ecg064/production/_ext/63677053/drv_i2c_static.o
 .debug_abbrev  0x00000a9f       0xfd build/pic32mz1024ecg064/production/_ext/2001973653/drv_spi_static.o
 .debug_abbrev  0x00000b9c       0xd7 build/pic32mz1024ecg064/production/_ext/1040884377/drv_usart_static.o
 .debug_abbrev  0x00000c73      0x196 build/pic32mz1024ecg064/production/_ext/563981586/sys_clk_static.o
 .debug_abbrev  0x00000e09       0xd9 build/pic32mz1024ecg064/production/_ext/672157374/sys_ports_static.o
 .debug_abbrev  0x00000ee2      0x17e build/pic32mz1024ecg064/production/_ext/1055008133/system_init.o
 .debug_abbrev  0x00001060       0x59 build/pic32mz1024ecg064/production/_ext/1055008133/system_interrupt.o
 .debug_abbrev  0x000010b9       0x99 build/pic32mz1024ecg064/production/_ext/1055008133/system_tasks.o
 .debug_abbrev  0x00001152       0xae build/pic32mz1024ecg064/production/_ext/1360937237/main.o
 .debug_abbrev  0x00001200      0x2b7 build/pic32mz1024ecg064/production/_ext/1360937237/led.o
 .debug_abbrev  0x000014b7       0xd5 build/pic32mz1024ecg064/production/_ext/1360937237/i2c.o
 .debug_abbrev  0x0000158c      0x18d build/pic32mz1024ecg064/production/_ext/1360937237/mt9v034.o
 .debug_abbrev  0x00001719      0x1ac build/pic32mz1024ecg064/production/_ext/1360937237/cam.o
 .debug_abbrev  0x000018c5      0x238 build/pic32mz1024ecg064/production/_ext/1360937237/bluetooth.o
 .debug_abbrev  0x00001afd      0x140 build/pic32mz1024ecg064/production/_ext/1360937237/at42qt1070.o
 .debug_abbrev  0x00001c3d      0x170 build/pic32mz1024ecg064/production/_ext/1360937237/touch.o
 .debug_abbrev  0x00001dad      0x154 build/pic32mz1024ecg064/production/_ext/1360937237/battery.o
 .debug_abbrev  0x00001f01      0x112 build/pic32mz1024ecg064/production/_ext/1360937237/timer.o
 .debug_abbrev  0x00002013      0x15f build/pic32mz1024ecg064/production/_ext/1360937237/power.o
 .debug_abbrev  0x00002172       0xc5 build/pic32mz1024ecg064/production/_ext/1360937237/watchdog.o
 .debug_abbrev  0x00002237      0x124 build/pic32mz1024ecg064/production/_ext/1360937237/motor.o
 .debug_abbrev  0x0000235b      0x206 build/pic32mz1024ecg064/production/_ext/1360937237/motion.o
 .debug_abbrev  0x00002561      0x15b build/pic32mz1024ecg064/production/_ext/1360937237/localization.o
 .debug_abbrev  0x000026bc       0x9f build/pic32mz1024ecg064/production/_ext/1360937237/pid.o
 .debug_abbrev  0x0000275b      0x109 build/pic32mz1024ecg064/production/_ext/1360937237/gesture.o
 .debug_abbrev  0x00002864      0x117 build/pic32mz1024ecg064/production/_ext/1360937237/haptics.o
 .debug_abbrev  0x0000297b      0x14e build/pic32mz1024ecg064/production/_ext/1360937237/bezier.o
 .debug_abbrev  0x00002ac9      0x1fe build/pic32mz1024ecg064/production/_ext/431183094/sys_devcon.o
 .debug_abbrev  0x00002cc7      0x15d build/pic32mz1024ecg064/production/_ext/431183094/sys_devcon_pic32mz.o
 .debug_abbrev  0x00002e24       0xf2 build/pic32mz1024ecg064/production/_ext/754521456/sys_int_pic32.o
 .debug_abbrev  0x00002f16      0x132 build/pic32mz1024ecg064/production/_ext/1419604243/sys_ports.o
 .debug_abbrev  0x00003048      0x14c /opt/microchip/xc32/v1.34/bin/bin/../../lib/gcc/pic32mx/4.5.2/libgcc.a(_divdi3.o)
 .debug_abbrev  0x00003194      0x143 /opt/microchip/xc32/v1.34/bin/bin/../../lib/gcc/pic32mx/4.5.2/libgcc.a(_moddi3.o)
 .debug_abbrev  0x000032d7       0x5f /opt/microchip/xc32/v1.34/bin/bin/../../lib/gcc/pic32mx/4.5.2/libgcc.a(floatunsisf.o)
 .debug_abbrev  0x00003336       0x25 /opt/microchip/xc32/v1.34/bin/bin/../../lib/gcc/pic32mx/4.5.2/../../../../pic32mx/lib/libpic32.a(default-bootstrap-exception-handler.o)
 .debug_abbrev  0x0000335b       0x25 /opt/microchip/xc32/v1.34/bin/bin/../../lib/gcc/pic32mx/4.5.2/../../../../pic32mx/lib/libpic32.a(default-on-reset.o)
 .debug_abbrev  0x00003380       0x25 /opt/microchip/xc32/v1.34/bin/bin/../../lib/gcc/pic32mx/4.5.2/../../../../pic32mx/lib/libpic32.a(default-on-bootstrap.o)
 .debug_abbrev  0x000033a5       0x25 /opt/microchip/xc32/v1.34/bin/bin/../../lib/gcc/pic32mx/4.5.2/../../../../pic32mx/lib/libpic32.a(defaultinterrupt.o)
 .debug_abbrev  0x000033ca       0x41 /opt/microchip/xc32/v1.34/bin/bin/../../lib/gcc/pic32mx/4.5.2/../../../../pic32mx/lib/libm.a(w_atan2f.o)
 .debug_abbrev  0x0000340b       0x25 /opt/microchip/xc32/v1.34/bin/bin/../../lib/gcc/pic32mx/4.5.2/../../../../pic32mx/lib/libm.a(w_sqrtf.o)
 .debug_abbrev  0x00003430       0x54 /opt/microchip/xc32/v1.34/bin/bin/../../lib/gcc/pic32mx/4.5.2/../../../../pic32mx/lib/libm.a(support.o)
 .debug_abbrev  0x00003484        0x1 /opt/microchip/xc32/v1.34/bin/bin/../../lib/gcc/pic32mx/4.5.2/../../../../pic32mx/lib/libm.a(s_lib_ver.o)
 .debug_abbrev  0x00003485        0x1 /opt/microchip/xc32/v1.34/bin/bin/../../lib/gcc/pic32mx/4.5.2/../../../../pic32mx/lib/libc.a(errno.o)

.debug_line     0x00000000     0x6bb2
 *(.debug_line)
 .debug_line    0x00000000      0x3cb build/pic32mz1024ecg064/production/_ext/115108523/decoder.o
 .debug_line    0x000003cb      0x222 build/pic32mz1024ecg064/production/_ext/115108523/dots_localization.o
 .debug_line    0x000005ed      0x319 build/pic32mz1024ecg064/production/_ext/115108523/grid.o
 .debug_line    0x00000906      0x1e1 build/pic32mz1024ecg064/production/_ext/115108523/imgproc.o
 .debug_line    0x00000ae7       0xb4 build/pic32mz1024ecg064/production/_ext/115108523/imgsegment.o
 .debug_line    0x00000b9b      0x200 build/pic32mz1024ecg064/production/_ext/115108523/intgrid.o
 .debug_line    0x00000d9b      0x213 build/pic32mz1024ecg064/production/_ext/115108523/gridprobability.o
 .debug_line    0x00000fae       0xcf build/pic32mz1024ecg064/production/_ext/115108523/intlist.o
 .debug_line    0x0000107d      0x410 build/pic32mz1024ecg064/production/_ext/63677053/drv_i2c_static.o
 .debug_line    0x0000148d      0x2a6 build/pic32mz1024ecg064/production/_ext/2001973653/drv_spi_static.o
 .debug_line    0x00001733      0x2d7 build/pic32mz1024ecg064/production/_ext/1040884377/drv_usart_static.o
 .debug_line    0x00001a0a      0x291 build/pic32mz1024ecg064/production/_ext/563981586/sys_clk_static.o
 .debug_line    0x00001c9b      0x1cb build/pic32mz1024ecg064/production/_ext/672157374/sys_ports_static.o
 .debug_line    0x00001e66      0x34f build/pic32mz1024ecg064/production/_ext/1055008133/system_init.o
 .debug_line    0x000021b5       0x61 build/pic32mz1024ecg064/production/_ext/1055008133/system_interrupt.o
 .debug_line    0x00002216      0x17b build/pic32mz1024ecg064/production/_ext/1055008133/system_tasks.o
 .debug_line    0x00002391      0x162 build/pic32mz1024ecg064/production/_ext/1360937237/main.o
 .debug_line    0x000024f3      0x7a7 build/pic32mz1024ecg064/production/_ext/1360937237/led.o
 .debug_line    0x00002c9a      0x1ea build/pic32mz1024ecg064/production/_ext/1360937237/i2c.o
 .debug_line    0x00002e84      0x2a6 build/pic32mz1024ecg064/production/_ext/1360937237/mt9v034.o
 .debug_line    0x0000312a      0x328 build/pic32mz1024ecg064/production/_ext/1360937237/cam.o
 .debug_line    0x00003452      0x759 build/pic32mz1024ecg064/production/_ext/1360937237/bluetooth.o
 .debug_line    0x00003bab      0x20c build/pic32mz1024ecg064/production/_ext/1360937237/at42qt1070.o
 .debug_line    0x00003db7      0x274 build/pic32mz1024ecg064/production/_ext/1360937237/touch.o
 .debug_line    0x0000402b      0x1cb build/pic32mz1024ecg064/production/_ext/1360937237/battery.o
 .debug_line    0x000041f6      0x19c build/pic32mz1024ecg064/production/_ext/1360937237/timer.o
 .debug_line    0x00004392      0x29a build/pic32mz1024ecg064/production/_ext/1360937237/power.o
 .debug_line    0x0000462c       0xff build/pic32mz1024ecg064/production/_ext/1360937237/watchdog.o
 .debug_line    0x0000472b      0x15e build/pic32mz1024ecg064/production/_ext/1360937237/motor.o
 .debug_line    0x00004889      0x4ce build/pic32mz1024ecg064/production/_ext/1360937237/motion.o
 .debug_line    0x00004d57      0x204 build/pic32mz1024ecg064/production/_ext/1360937237/localization.o
 .debug_line    0x00004f5b       0xbc build/pic32mz1024ecg064/production/_ext/1360937237/pid.o
 .debug_line    0x00005017      0x13e build/pic32mz1024ecg064/production/_ext/1360937237/gesture.o
 .debug_line    0x00005155      0x29f build/pic32mz1024ecg064/production/_ext/1360937237/haptics.o
 .debug_line    0x000053f4      0x1ee build/pic32mz1024ecg064/production/_ext/1360937237/bezier.o
 .debug_line    0x000055e2      0x3f5 build/pic32mz1024ecg064/production/_ext/431183094/sys_devcon.o
 .debug_line    0x000059d7      0x443 build/pic32mz1024ecg064/production/_ext/431183094/sys_devcon_pic32mz.o
 .debug_line    0x00005e1a      0x1f1 build/pic32mz1024ecg064/production/_ext/754521456/sys_int_pic32.o
 .debug_line    0x0000600b      0x4b3 build/pic32mz1024ecg064/production/_ext/1419604243/sys_ports.o
 .debug_line    0x000064be      0x15e /opt/microchip/xc32/v1.34/bin/bin/../../lib/gcc/pic32mx/4.5.2/libgcc.a(_divdi3.o)
 .debug_line    0x0000661c      0x168 /opt/microchip/xc32/v1.34/bin/bin/../../lib/gcc/pic32mx/4.5.2/libgcc.a(_moddi3.o)
 .debug_line    0x00006784       0x8e /opt/microchip/xc32/v1.34/bin/bin/../../lib/gcc/pic32mx/4.5.2/libgcc.a(floatunsisf.o)
 .debug_line    0x00006812       0x97 /opt/microchip/xc32/v1.34/bin/bin/../../lib/gcc/pic32mx/4.5.2/../../../../pic32mx/lib/libpic32.a(default-bootstrap-exception-handler.o)
 .debug_line    0x000068a9       0x84 /opt/microchip/xc32/v1.34/bin/bin/../../lib/gcc/pic32mx/4.5.2/../../../../pic32mx/lib/libpic32.a(default-on-reset.o)
 .debug_line    0x0000692d       0x88 /opt/microchip/xc32/v1.34/bin/bin/../../lib/gcc/pic32mx/4.5.2/../../../../pic32mx/lib/libpic32.a(default-on-bootstrap.o)
 .debug_line    0x000069b5       0x96 /opt/microchip/xc32/v1.34/bin/bin/../../lib/gcc/pic32mx/4.5.2/../../../../pic32mx/lib/libpic32.a(defaultinterrupt.o)
 .debug_line    0x00006a4b       0x79 /opt/microchip/xc32/v1.34/bin/bin/../../lib/gcc/pic32mx/4.5.2/../../../../pic32mx/lib/libm.a(w_atan2f.o)
 .debug_line    0x00006ac4       0x78 /opt/microchip/xc32/v1.34/bin/bin/../../lib/gcc/pic32mx/4.5.2/../../../../pic32mx/lib/libm.a(w_sqrtf.o)
 .debug_line    0x00006b3c       0x76 /opt/microchip/xc32/v1.34/bin/bin/../../lib/gcc/pic32mx/4.5.2/../../../../pic32mx/lib/libm.a(support.o)
 .debug_line    0x00006bb2        0x0 /opt/microchip/xc32/v1.34/bin/bin/../../lib/gcc/pic32mx/4.5.2/../../../../pic32mx/lib/libm.a(s_lib_ver.o)
 .debug_line    0x00006bb2        0x0 /opt/microchip/xc32/v1.34/bin/bin/../../lib/gcc/pic32mx/4.5.2/../../../../pic32mx/lib/libc.a(errno.o)

.debug_frame    0x00000000     0x31e4
 *(.debug_frame)
 .debug_frame   0x00000000      0x1dc build/pic32mz1024ecg064/production/_ext/115108523/decoder.o
 .debug_frame   0x000001dc      0x134 build/pic32mz1024ecg064/production/_ext/115108523/dots_localization.o
 .debug_frame   0x00000310      0x120 build/pic32mz1024ecg064/production/_ext/115108523/grid.o
 .debug_frame   0x00000430       0x94 build/pic32mz1024ecg064/production/_ext/115108523/imgproc.o
 .debug_frame   0x000004c4       0x40 build/pic32mz1024ecg064/production/_ext/115108523/imgsegment.o
 .debug_frame   0x00000504       0xf0 build/pic32mz1024ecg064/production/_ext/115108523/intgrid.o
 .debug_frame   0x000005f4       0xf4 build/pic32mz1024ecg064/production/_ext/115108523/gridprobability.o
 .debug_frame   0x000006e8       0x58 build/pic32mz1024ecg064/production/_ext/115108523/intlist.o
 .debug_frame   0x00000740      0x208 build/pic32mz1024ecg064/production/_ext/63677053/drv_i2c_static.o
 .debug_frame   0x00000948       0xa0 build/pic32mz1024ecg064/production/_ext/2001973653/drv_spi_static.o
 .debug_frame   0x000009e8       0xf0 build/pic32mz1024ecg064/production/_ext/1040884377/drv_usart_static.o
 .debug_frame   0x00000ad8       0x80 build/pic32mz1024ecg064/production/_ext/563981586/sys_clk_static.o
 .debug_frame   0x00000b58       0x2c build/pic32mz1024ecg064/production/_ext/672157374/sys_ports_static.o
 .debug_frame   0x00000b84       0x2c build/pic32mz1024ecg064/production/_ext/1055008133/system_init.o
 .debug_frame   0x00000bb0       0x2c build/pic32mz1024ecg064/production/_ext/1055008133/system_tasks.o
 .debug_frame   0x00000bdc       0x80 build/pic32mz1024ecg064/production/_ext/1360937237/main.o
 .debug_frame   0x00000c5c      0x3a4 build/pic32mz1024ecg064/production/_ext/1360937237/led.o
 .debug_frame   0x00001000      0x12c build/pic32mz1024ecg064/production/_ext/1360937237/i2c.o
 .debug_frame   0x0000112c      0x10c build/pic32mz1024ecg064/production/_ext/1360937237/mt9v034.o
 .debug_frame   0x00001238      0x19c build/pic32mz1024ecg064/production/_ext/1360937237/cam.o
 .debug_frame   0x000013d4      0x5ec build/pic32mz1024ecg064/production/_ext/1360937237/bluetooth.o
 .debug_frame   0x000019c0      0x160 build/pic32mz1024ecg064/production/_ext/1360937237/at42qt1070.o
 .debug_frame   0x00001b20      0x10c build/pic32mz1024ecg064/production/_ext/1360937237/touch.o
 .debug_frame   0x00001c2c       0xb8 build/pic32mz1024ecg064/production/_ext/1360937237/battery.o
 .debug_frame   0x00001ce4      0x11c build/pic32mz1024ecg064/production/_ext/1360937237/timer.o
 .debug_frame   0x00001e00      0x20c build/pic32mz1024ecg064/production/_ext/1360937237/power.o
 .debug_frame   0x0000200c       0x9c build/pic32mz1024ecg064/production/_ext/1360937237/watchdog.o
 .debug_frame   0x000020a8       0xb8 build/pic32mz1024ecg064/production/_ext/1360937237/motor.o
 .debug_frame   0x00002160      0x2c8 build/pic32mz1024ecg064/production/_ext/1360937237/motion.o
 .debug_frame   0x00002428       0x9c build/pic32mz1024ecg064/production/_ext/1360937237/localization.o
 .debug_frame   0x000024c4       0x68 build/pic32mz1024ecg064/production/_ext/1360937237/pid.o
 .debug_frame   0x0000252c       0x80 build/pic32mz1024ecg064/production/_ext/1360937237/gesture.o
 .debug_frame   0x000025ac      0x138 build/pic32mz1024ecg064/production/_ext/1360937237/haptics.o
 .debug_frame   0x000026e4       0xf4 build/pic32mz1024ecg064/production/_ext/1360937237/bezier.o
 .debug_frame   0x000027d8      0x160 build/pic32mz1024ecg064/production/_ext/431183094/sys_devcon.o
 .debug_frame   0x00002938      0x278 build/pic32mz1024ecg064/production/_ext/431183094/sys_devcon_pic32mz.o
 .debug_frame   0x00002bb0       0x80 build/pic32mz1024ecg064/production/_ext/754521456/sys_int_pic32.o
 .debug_frame   0x00002c30      0x320 build/pic32mz1024ecg064/production/_ext/1419604243/sys_ports.o
 .debug_frame   0x00002f50       0x20 /opt/microchip/xc32/v1.34/bin/bin/../../lib/gcc/pic32mx/4.5.2/libgcc.a(_divdi3.o)
 .debug_frame   0x00002f70       0x24 /opt/microchip/xc32/v1.34/bin/bin/../../lib/gcc/pic32mx/4.5.2/libgcc.a(_moddi3.o)
 .debug_frame   0x00002f94       0x28 /opt/microchip/xc32/v1.34/bin/bin/../../lib/gcc/pic32mx/4.5.2/libgcc.a(floatunsisf.o)
 .debug_frame   0x00002fbc       0x28 /opt/microchip/xc32/v1.34/bin/bin/../../lib/gcc/pic32mx/4.5.2/../../../../pic32mx/lib/libpic32.a(default-bootstrap-exception-handler.o)
 .debug_frame   0x00002fe4       0x20 /opt/microchip/xc32/v1.34/bin/bin/../../lib/gcc/pic32mx/4.5.2/../../../../pic32mx/lib/libpic32.a(default-on-reset.o)
 .debug_frame   0x00003004       0x20 /opt/microchip/xc32/v1.34/bin/bin/../../lib/gcc/pic32mx/4.5.2/../../../../pic32mx/lib/libpic32.a(default-on-bootstrap.o)
 .debug_frame   0x00003024       0x20 /opt/microchip/xc32/v1.34/bin/bin/../../lib/gcc/pic32mx/4.5.2/../../../../pic32mx/lib/libpic32.a(defaultinterrupt.o)
 .debug_frame   0x00003044       0x3c /opt/microchip/xc32/v1.34/bin/bin/../../lib/gcc/pic32mx/4.5.2/../../../../pic32mx/lib/libm.a(w_atan2f.o)
 .debug_frame   0x00003080       0x28 /opt/microchip/xc32/v1.34/bin/bin/../../lib/gcc/pic32mx/4.5.2/../../../../pic32mx/lib/libm.a(w_sqrtf.o)
 .debug_frame   0x000030a8      0x13c /opt/microchip/xc32/v1.34/bin/bin/../../lib/gcc/pic32mx/4.5.2/../../../../pic32mx/lib/libm.a(support.o)

.debug_str      0x00000000     0x272c
 *(.debug_str)
 .debug_str     0x00000000       0x7d build/pic32mz1024ecg064/production/_ext/115108523/decoder.o
 .debug_str     0x0000007d       0x11 build/pic32mz1024ecg064/production/_ext/115108523/dots_localization.o
 .debug_str     0x0000008e       0x1e build/pic32mz1024ecg064/production/_ext/115108523/grid.o
 .debug_str     0x000000ac       0x17 build/pic32mz1024ecg064/production/_ext/115108523/imgproc.o
 .debug_str     0x000000c3        0x0 build/pic32mz1024ecg064/production/_ext/115108523/imgsegment.o
 .debug_str     0x000000c3       0x11 build/pic32mz1024ecg064/production/_ext/115108523/intgrid.o
 .debug_str     0x000000d4       0x46 build/pic32mz1024ecg064/production/_ext/115108523/gridprobability.o
 .debug_str     0x0000011a        0xb build/pic32mz1024ecg064/production/_ext/115108523/intlist.o
 .debug_str     0x00000125       0x70 build/pic32mz1024ecg064/production/_ext/63677053/drv_i2c_static.o
 .debug_str     0x00000195       0xc2 build/pic32mz1024ecg064/production/_ext/2001973653/drv_spi_static.o
 .debug_str     0x00000257       0xc2 build/pic32mz1024ecg064/production/_ext/1040884377/drv_usart_static.o
 .debug_str     0x00000319       0xd9 build/pic32mz1024ecg064/production/_ext/563981586/sys_clk_static.o
 .debug_str     0x000003f2       0x1c build/pic32mz1024ecg064/production/_ext/672157374/sys_ports_static.o
 .debug_str     0x0000040e      0x12d build/pic32mz1024ecg064/production/_ext/1055008133/system_init.o
 .debug_str     0x0000053b       0xc2 build/pic32mz1024ecg064/production/_ext/1055008133/system_interrupt.o
 .debug_str     0x000005fd       0xc2 build/pic32mz1024ecg064/production/_ext/1055008133/system_tasks.o
 .debug_str     0x000006bf      0x10a build/pic32mz1024ecg064/production/_ext/1360937237/main.o
 .debug_str     0x000007c9      0x2c0 build/pic32mz1024ecg064/production/_ext/1360937237/led.o
 .debug_str     0x00000a89       0xd9 build/pic32mz1024ecg064/production/_ext/1360937237/i2c.o
 .debug_str     0x00000b62       0xe4 build/pic32mz1024ecg064/production/_ext/1360937237/mt9v034.o
 .debug_str     0x00000c46      0x1de build/pic32mz1024ecg064/production/_ext/1360937237/cam.o
 .debug_str     0x00000e24      0x28a build/pic32mz1024ecg064/production/_ext/1360937237/bluetooth.o
 .debug_str     0x000010ae       0xf2 build/pic32mz1024ecg064/production/_ext/1360937237/at42qt1070.o
 .debug_str     0x000011a0      0x19f build/pic32mz1024ecg064/production/_ext/1360937237/touch.o
 .debug_str     0x0000133f      0x16c build/pic32mz1024ecg064/production/_ext/1360937237/battery.o
 .debug_str     0x000014ab       0xe6 build/pic32mz1024ecg064/production/_ext/1360937237/timer.o
 .debug_str     0x00001591      0x1ac build/pic32mz1024ecg064/production/_ext/1360937237/power.o
 .debug_str     0x0000173d       0xcd build/pic32mz1024ecg064/production/_ext/1360937237/watchdog.o
 .debug_str     0x0000180a      0x183 build/pic32mz1024ecg064/production/_ext/1360937237/motor.o
 .debug_str     0x0000198d      0x414 build/pic32mz1024ecg064/production/_ext/1360937237/motion.o
 .debug_str     0x00001da1      0x19a build/pic32mz1024ecg064/production/_ext/1360937237/localization.o
 .debug_str     0x00001f3b        0x0 build/pic32mz1024ecg064/production/_ext/1360937237/pid.o
 .debug_str     0x00001f3b      0x171 build/pic32mz1024ecg064/production/_ext/1360937237/gesture.o
 .debug_str     0x000020ac      0x4be build/pic32mz1024ecg064/production/_ext/1360937237/haptics.o
 .debug_str     0x0000256a      0x101 build/pic32mz1024ecg064/production/_ext/1360937237/bezier.o
 .debug_str     0x0000266b       0x6f build/pic32mz1024ecg064/production/_ext/431183094/sys_devcon.o
 .debug_str     0x000026da       0x14 build/pic32mz1024ecg064/production/_ext/431183094/sys_devcon_pic32mz.o
 .debug_str     0x000026ee        0x0 build/pic32mz1024ecg064/production/_ext/754521456/sys_int_pic32.o
 .debug_str     0x000026ee       0x3e build/pic32mz1024ecg064/production/_ext/1419604243/sys_ports.o
 .debug_str     0x0000272c        0x0 /opt/microchip/xc32/v1.34/bin/bin/../../lib/gcc/pic32mx/4.5.2/libgcc.a(_divdi3.o)
 .debug_str     0x0000272c        0x0 /opt/microchip/xc32/v1.34/bin/bin/../../lib/gcc/pic32mx/4.5.2/libgcc.a(_moddi3.o)
 .debug_str     0x0000272c        0x0 /opt/microchip/xc32/v1.34/bin/bin/../../lib/gcc/pic32mx/4.5.2/libgcc.a(floatunsisf.o)
 .debug_str     0x0000272c        0x0 /opt/microchip/xc32/v1.34/bin/bin/../../lib/gcc/pic32mx/4.5.2/../../../../pic32mx/lib/libpic32.a(default-bootstrap-exception-handler.o)
 .debug_str     0x0000272c        0x0 /opt/microchip/xc32/v1.34/bin/bin/../../lib/gcc/pic32mx/4.5.2/../../../../pic32mx/lib/libpic32.a(default-on-reset.o)
 .debug_str     0x0000272c        0x0 /opt/microchip/xc32/v1.34/bin/bin/../../lib/gcc/pic32mx/4.5.2/../../../../pic32mx/lib/libpic32.a(default-on-bootstrap.o)
 .debug_str     0x0000272c        0x0 /opt/microchip/xc32/v1.34/bin/bin/../../lib/gcc/pic32mx/4.5.2/../../../../pic32mx/lib/libpic32.a(defaultinterrupt.o)
 .debug_str     0x0000272c        0x0 /opt/microchip/xc32/v1.34/bin/bin/../../lib/gcc/pic32mx/4.5.2/../../../../pic32mx/lib/libm.a(w_atan2f.o)
 .debug_str     0x0000272c        0x0 /opt/microchip/xc32/v1.34/bin/bin/../../lib/gcc/pic32mx/4.5.2/../../../../pic32mx/lib/libm.a(w_sqrtf.o)
 .debug_str     0x0000272c        0x0 /opt/microchip/xc32/v1.34/bin/bin/../../lib/gcc/pic32mx/4.5.2/../../../../pic32mx/lib/libm.a(support.o)
 .debug_str     0x0000272c        0x0 /opt/microchip/xc32/v1.34/bin/bin/../../lib/gcc/pic32mx/4.5.2/../../../../pic32mx/lib/libm.a(s_lib_ver.o)
 .debug_str     0x0000272c        0x0 /opt/microchip/xc32/v1.34/bin/bin/../../lib/gcc/pic32mx/4.5.2/../../../../pic32mx/lib/libc.a(errno.o)

.debug_loc      0x00000000     0x148f
 *(.debug_loc)
 .debug_loc     0x00000000      0xa6e /opt/microchip/xc32/v1.34/bin/bin/../../lib/gcc/pic32mx/4.5.2/libgcc.a(_divdi3.o)
 .debug_loc     0x00000a6e      0x9b9 /opt/microchip/xc32/v1.34/bin/bin/../../lib/gcc/pic32mx/4.5.2/libgcc.a(_moddi3.o)
 .debug_loc     0x00001427       0x68 /opt/microchip/xc32/v1.34/bin/bin/../../lib/gcc/pic32mx/4.5.2/libgcc.a(floatunsisf.o)

.debug_macinfo
 *(.debug_macinfo)

.debug_weaknames
 *(.debug_weaknames)

.debug_funcnames
 *(.debug_funcnames)

.debug_typenames
 *(.debug_typenames)

.debug_varnames
 *(.debug_varnames)

.debug_pubtypes
                0x00000000     0x1143
 *(.debug_pubtypes)
 .debug_pubtypes
                0x00000000       0xdd build/pic32mz1024ecg064/production/_ext/115108523/decoder.o
 .debug_pubtypes
                0x000000dd      0x11d build/pic32mz1024ecg064/production/_ext/115108523/dots_localization.o
 .debug_pubtypes
                0x000001fa       0x90 build/pic32mz1024ecg064/production/_ext/115108523/grid.o
 .debug_pubtypes
                0x0000028a       0x5f build/pic32mz1024ecg064/production/_ext/115108523/imgproc.o
 .debug_pubtypes
                0x000002e9       0x31 build/pic32mz1024ecg064/production/_ext/115108523/imgsegment.o
 .debug_pubtypes
                0x0000031a       0x2b build/pic32mz1024ecg064/production/_ext/115108523/intgrid.o
 .debug_pubtypes
                0x00000345       0xb2 build/pic32mz1024ecg064/production/_ext/115108523/gridprobability.o
 .debug_pubtypes
                0x000003f7       0x1e build/pic32mz1024ecg064/production/_ext/115108523/intlist.o
 .debug_pubtypes
                0x00000415       0x41 build/pic32mz1024ecg064/production/_ext/63677053/drv_i2c_static.o
 .debug_pubtypes
                0x00000456       0x3d build/pic32mz1024ecg064/production/_ext/2001973653/drv_spi_static.o
 .debug_pubtypes
                0x00000493       0x20 build/pic32mz1024ecg064/production/_ext/1040884377/drv_usart_static.o
 .debug_pubtypes
                0x000004b3       0xcb build/pic32mz1024ecg064/production/_ext/563981586/sys_clk_static.o
 .debug_pubtypes
                0x0000057e       0x34 build/pic32mz1024ecg064/production/_ext/672157374/sys_ports_static.o
 .debug_pubtypes
                0x000005b2       0xb3 build/pic32mz1024ecg064/production/_ext/1055008133/system_init.o
 .debug_pubtypes
                0x00000665       0x12 build/pic32mz1024ecg064/production/_ext/1055008133/system_interrupt.o
 .debug_pubtypes
                0x00000677       0x48 build/pic32mz1024ecg064/production/_ext/1055008133/system_tasks.o
 .debug_pubtypes
                0x000006bf       0x12 build/pic32mz1024ecg064/production/_ext/1360937237/main.o
 .debug_pubtypes
                0x000006d1       0xb5 build/pic32mz1024ecg064/production/_ext/1360937237/led.o
 .debug_pubtypes
                0x00000786       0x12 build/pic32mz1024ecg064/production/_ext/1360937237/i2c.o
 .debug_pubtypes
                0x00000798       0x4d build/pic32mz1024ecg064/production/_ext/1360937237/mt9v034.o
 .debug_pubtypes
                0x000007e5       0x46 build/pic32mz1024ecg064/production/_ext/1360937237/cam.o
 .debug_pubtypes
                0x0000082b      0x169 build/pic32mz1024ecg064/production/_ext/1360937237/bluetooth.o
 .debug_pubtypes
                0x00000994       0x12 build/pic32mz1024ecg064/production/_ext/1360937237/at42qt1070.o
 .debug_pubtypes
                0x000009a6       0x20 build/pic32mz1024ecg064/production/_ext/1360937237/touch.o
 .debug_pubtypes
                0x000009c6       0x45 build/pic32mz1024ecg064/production/_ext/1360937237/battery.o
 .debug_pubtypes
                0x00000a0b       0x24 build/pic32mz1024ecg064/production/_ext/1360937237/timer.o
 .debug_pubtypes
                0x00000a2f       0x8b build/pic32mz1024ecg064/production/_ext/1360937237/power.o
 .debug_pubtypes
                0x00000aba       0x25 build/pic32mz1024ecg064/production/_ext/1360937237/watchdog.o
 .debug_pubtypes
                0x00000adf       0x96 build/pic32mz1024ecg064/production/_ext/1360937237/motor.o
 .debug_pubtypes
                0x00000b75       0x94 build/pic32mz1024ecg064/production/_ext/1360937237/motion.o
 .debug_pubtypes
                0x00000c09       0x8c build/pic32mz1024ecg064/production/_ext/1360937237/localization.o
 .debug_pubtypes
                0x00000c95       0x1c build/pic32mz1024ecg064/production/_ext/1360937237/pid.o
 .debug_pubtypes
                0x00000cb1       0x2a build/pic32mz1024ecg064/production/_ext/1360937237/gesture.o
 .debug_pubtypes
                0x00000cdb       0x2a build/pic32mz1024ecg064/production/_ext/1360937237/haptics.o
 .debug_pubtypes
                0x00000d05       0x29 build/pic32mz1024ecg064/production/_ext/1360937237/bezier.o
 .debug_pubtypes
                0x00000d2e       0xe6 build/pic32mz1024ecg064/production/_ext/431183094/sys_devcon.o
 .debug_pubtypes
                0x00000e14       0x56 build/pic32mz1024ecg064/production/_ext/431183094/sys_devcon_pic32mz.o
 .debug_pubtypes
                0x00000e6a       0x6a build/pic32mz1024ecg064/production/_ext/754521456/sys_int_pic32.o
 .debug_pubtypes
                0x00000ed4      0x189 build/pic32mz1024ecg064/production/_ext/1419604243/sys_ports.o
 .debug_pubtypes
                0x0000105d       0x59 /opt/microchip/xc32/v1.34/bin/bin/../../lib/gcc/pic32mx/4.5.2/libgcc.a(_divdi3.o)
 .debug_pubtypes
                0x000010b6       0x59 /opt/microchip/xc32/v1.34/bin/bin/../../lib/gcc/pic32mx/4.5.2/libgcc.a(_moddi3.o)
 .debug_pubtypes
                0x0000110f       0x34 /opt/microchip/xc32/v1.34/bin/bin/../../lib/gcc/pic32mx/4.5.2/libgcc.a(floatunsisf.o)

.debug_ranges   0x00000000     0x1030
 *(.debug_ranges)
 .debug_ranges  0x00000000       0xb8 build/pic32mz1024ecg064/production/_ext/115108523/decoder.o
 .debug_ranges  0x000000b8       0x78 build/pic32mz1024ecg064/production/_ext/115108523/dots_localization.o
 .debug_ranges  0x00000130       0xa0 build/pic32mz1024ecg064/production/_ext/115108523/grid.o
 .debug_ranges  0x000001d0       0x48 build/pic32mz1024ecg064/production/_ext/115108523/imgproc.o
 .debug_ranges  0x00000218       0x20 build/pic32mz1024ecg064/production/_ext/115108523/imgsegment.o
 .debug_ranges  0x00000238       0x58 build/pic32mz1024ecg064/production/_ext/115108523/intgrid.o
 .debug_ranges  0x00000290       0x50 build/pic32mz1024ecg064/production/_ext/115108523/gridprobability.o
 .debug_ranges  0x000002e0       0x20 build/pic32mz1024ecg064/production/_ext/115108523/intlist.o
 .debug_ranges  0x00000300       0x98 build/pic32mz1024ecg064/production/_ext/63677053/drv_i2c_static.o
 .debug_ranges  0x00000398       0x30 build/pic32mz1024ecg064/production/_ext/2001973653/drv_spi_static.o
 .debug_ranges  0x000003c8       0x48 build/pic32mz1024ecg064/production/_ext/1040884377/drv_usart_static.o
 .debug_ranges  0x00000410       0x28 build/pic32mz1024ecg064/production/_ext/563981586/sys_clk_static.o
 .debug_ranges  0x00000438       0x10 build/pic32mz1024ecg064/production/_ext/672157374/sys_ports_static.o
 .debug_ranges  0x00000448       0x10 build/pic32mz1024ecg064/production/_ext/1055008133/system_init.o
 .debug_ranges  0x00000458       0x10 build/pic32mz1024ecg064/production/_ext/1055008133/system_tasks.o
 .debug_ranges  0x00000468       0x28 build/pic32mz1024ecg064/production/_ext/1360937237/main.o
 .debug_ranges  0x00000490       0xd0 build/pic32mz1024ecg064/production/_ext/1360937237/led.o
 .debug_ranges  0x00000560       0x30 build/pic32mz1024ecg064/production/_ext/1360937237/i2c.o
 .debug_ranges  0x00000590       0x50 build/pic32mz1024ecg064/production/_ext/1360937237/mt9v034.o
 .debug_ranges  0x000005e0       0x60 build/pic32mz1024ecg064/production/_ext/1360937237/cam.o
 .debug_ranges  0x00000640      0x188 build/pic32mz1024ecg064/production/_ext/1360937237/bluetooth.o
 .debug_ranges  0x000007c8       0x68 build/pic32mz1024ecg064/production/_ext/1360937237/at42qt1070.o
 .debug_ranges  0x00000830       0x50 build/pic32mz1024ecg064/production/_ext/1360937237/touch.o
 .debug_ranges  0x00000880       0x38 build/pic32mz1024ecg064/production/_ext/1360937237/battery.o
 .debug_ranges  0x000008b8       0x40 build/pic32mz1024ecg064/production/_ext/1360937237/timer.o
 .debug_ranges  0x000008f8       0x70 build/pic32mz1024ecg064/production/_ext/1360937237/power.o
 .debug_ranges  0x00000968       0x30 build/pic32mz1024ecg064/production/_ext/1360937237/watchdog.o
 .debug_ranges  0x00000998       0x38 build/pic32mz1024ecg064/production/_ext/1360937237/motor.o
 .debug_ranges  0x000009d0       0xc8 build/pic32mz1024ecg064/production/_ext/1360937237/motion.o
 .debug_ranges  0x00000a98       0x30 build/pic32mz1024ecg064/production/_ext/1360937237/localization.o
 .debug_ranges  0x00000ac8       0x20 build/pic32mz1024ecg064/production/_ext/1360937237/pid.o
 .debug_ranges  0x00000ae8       0x28 build/pic32mz1024ecg064/production/_ext/1360937237/gesture.o
 .debug_ranges  0x00000b10       0x58 build/pic32mz1024ecg064/production/_ext/1360937237/haptics.o
 .debug_ranges  0x00000b68       0x50 build/pic32mz1024ecg064/production/_ext/1360937237/bezier.o
 .debug_ranges  0x00000bb8       0x68 build/pic32mz1024ecg064/production/_ext/431183094/sys_devcon.o
 .debug_ranges  0x00000c20       0xb8 build/pic32mz1024ecg064/production/_ext/431183094/sys_devcon_pic32mz.o
 .debug_ranges  0x00000cd8       0x28 build/pic32mz1024ecg064/production/_ext/754521456/sys_int_pic32.o
 .debug_ranges  0x00000d00       0xe8 build/pic32mz1024ecg064/production/_ext/1419604243/sys_ports.o
 .debug_ranges  0x00000de8       0xb0 /opt/microchip/xc32/v1.34/bin/bin/../../lib/gcc/pic32mx/4.5.2/libgcc.a(_divdi3.o)
 .debug_ranges  0x00000e98       0xd0 /opt/microchip/xc32/v1.34/bin/bin/../../lib/gcc/pic32mx/4.5.2/libgcc.a(_moddi3.o)
 .debug_ranges  0x00000f68       0x10 /opt/microchip/xc32/v1.34/bin/bin/../../lib/gcc/pic32mx/4.5.2/../../../../pic32mx/lib/libpic32.a(default-bootstrap-exception-handler.o)
 .debug_ranges  0x00000f78       0x10 /opt/microchip/xc32/v1.34/bin/bin/../../lib/gcc/pic32mx/4.5.2/../../../../pic32mx/lib/libpic32.a(default-on-reset.o)
 .debug_ranges  0x00000f88       0x10 /opt/microchip/xc32/v1.34/bin/bin/../../lib/gcc/pic32mx/4.5.2/../../../../pic32mx/lib/libpic32.a(default-on-bootstrap.o)
 .debug_ranges  0x00000f98       0x10 /opt/microchip/xc32/v1.34/bin/bin/../../lib/gcc/pic32mx/4.5.2/../../../../pic32mx/lib/libpic32.a(defaultinterrupt.o)
 .debug_ranges  0x00000fa8       0x10 /opt/microchip/xc32/v1.34/bin/bin/../../lib/gcc/pic32mx/4.5.2/../../../../pic32mx/lib/libm.a(w_atan2f.o)
 .debug_ranges  0x00000fb8       0x10 /opt/microchip/xc32/v1.34/bin/bin/../../lib/gcc/pic32mx/4.5.2/../../../../pic32mx/lib/libm.a(w_sqrtf.o)
 .debug_ranges  0x00000fc8       0x68 /opt/microchip/xc32/v1.34/bin/bin/../../lib/gcc/pic32mx/4.5.2/../../../../pic32mx/lib/libm.a(support.o)

.gnu.attributes
                0x00000000       0x10
 *(.gnu.attributes)
 .gnu.attributes
                0x00000000       0x10 build/pic32mz1024ecg064/production/_ext/115108523/decoder.o
 .gnu.attributes
                0x00000010       0x10 build/pic32mz1024ecg064/production/_ext/115108523/dots_localization.o
 .gnu.attributes
                0x00000020       0x10 build/pic32mz1024ecg064/production/_ext/115108523/grid.o
 .gnu.attributes
                0x00000030       0x10 build/pic32mz1024ecg064/production/_ext/115108523/imgproc.o
 .gnu.attributes
                0x00000040       0x10 build/pic32mz1024ecg064/production/_ext/115108523/imgsegment.o
 .gnu.attributes
                0x00000050       0x10 build/pic32mz1024ecg064/production/_ext/115108523/intgrid.o
 .gnu.attributes
                0x00000060       0x10 build/pic32mz1024ecg064/production/_ext/115108523/gridprobability.o
 .gnu.attributes
                0x00000070       0x10 build/pic32mz1024ecg064/production/_ext/115108523/intlist.o
 .gnu.attributes
                0x00000080       0x10 build/pic32mz1024ecg064/production/_ext/63677053/drv_i2c_static.o
 .gnu.attributes
                0x00000090       0x10 build/pic32mz1024ecg064/production/_ext/2001973653/drv_spi_static.o
 .gnu.attributes
                0x000000a0       0x10 build/pic32mz1024ecg064/production/_ext/1040884377/drv_usart_static.o
 .gnu.attributes
                0x000000b0       0x10 build/pic32mz1024ecg064/production/_ext/563981586/sys_clk_static.o
 .gnu.attributes
                0x000000c0       0x10 build/pic32mz1024ecg064/production/_ext/672157374/sys_ports_static.o
 .gnu.attributes
                0x000000d0       0x10 build/pic32mz1024ecg064/production/_ext/1055008133/system_init.o
 .gnu.attributes
                0x000000e0       0x10 build/pic32mz1024ecg064/production/_ext/1055008133/system_interrupt.o
 .gnu.attributes
                0x000000f0       0x10 build/pic32mz1024ecg064/production/_ext/1055008133/system_tasks.o
 .gnu.attributes
                0x00000100       0x10 build/pic32mz1024ecg064/production/_ext/1360937237/main.o
 .gnu.attributes
                0x00000110       0x10 build/pic32mz1024ecg064/production/_ext/1360937237/led.o
 .gnu.attributes
                0x00000120       0x10 build/pic32mz1024ecg064/production/_ext/1360937237/i2c.o
 .gnu.attributes
                0x00000130       0x10 build/pic32mz1024ecg064/production/_ext/1360937237/mt9v034.o
 .gnu.attributes
                0x00000140       0x10 build/pic32mz1024ecg064/production/_ext/1360937237/cam.o
 .gnu.attributes
                0x00000150       0x10 build/pic32mz1024ecg064/production/_ext/1360937237/bluetooth.o
 .gnu.attributes
                0x00000160       0x10 build/pic32mz1024ecg064/production/_ext/1360937237/at42qt1070.o
 .gnu.attributes
                0x00000170       0x10 build/pic32mz1024ecg064/production/_ext/1360937237/touch.o
 .gnu.attributes
                0x00000180       0x10 build/pic32mz1024ecg064/production/_ext/1360937237/battery.o
 .gnu.attributes
                0x00000190       0x10 build/pic32mz1024ecg064/production/_ext/1360937237/timer.o
 .gnu.attributes
                0x000001a0       0x10 build/pic32mz1024ecg064/production/_ext/1360937237/power.o
 .gnu.attributes
                0x000001b0       0x10 build/pic32mz1024ecg064/production/_ext/1360937237/watchdog.o
 .gnu.attributes
                0x000001c0       0x10 build/pic32mz1024ecg064/production/_ext/1360937237/motor.o
 .gnu.attributes
                0x000001d0       0x10 build/pic32mz1024ecg064/production/_ext/1360937237/motion.o
 .gnu.attributes
                0x000001e0       0x10 build/pic32mz1024ecg064/production/_ext/1360937237/localization.o
 .gnu.attributes
                0x000001f0       0x10 build/pic32mz1024ecg064/production/_ext/1360937237/pid.o
 .gnu.attributes
                0x00000200       0x10 build/pic32mz1024ecg064/production/_ext/1360937237/gesture.o
 .gnu.attributes
                0x00000210       0x10 build/pic32mz1024ecg064/production/_ext/1360937237/haptics.o
 .gnu.attributes
                0x00000220       0x10 build/pic32mz1024ecg064/production/_ext/1360937237/bezier.o
 .gnu.attributes
                0x00000230       0x10 build/pic32mz1024ecg064/production/_ext/431183094/sys_devcon.o
 .gnu.attributes
                0x00000240       0x10 build/pic32mz1024ecg064/production/_ext/431183094/sys_devcon_pic32mz.o
 .gnu.attributes
                0x00000250       0x10 build/pic32mz1024ecg064/production/_ext/754521456/sys_int_pic32.o
 .gnu.attributes
                0x00000260       0x10 build/pic32mz1024ecg064/production/_ext/1419604243/sys_ports.o
 .gnu.attributes
                0x00000270       0x10 /opt/microchip/harmony/v1_03/bin/framework/peripheral/PIC32MZ1024ECG064_peripherals.a(peripheral.o)
 .gnu.attributes
                0x00000280       0x10 /opt/microchip/xc32/v1.34/bin/bin/../../lib/gcc/pic32mx/4.5.2/libgcc.a(_divdi3.o)
 .gnu.attributes
                0x00000290       0x10 /opt/microchip/xc32/v1.34/bin/bin/../../lib/gcc/pic32mx/4.5.2/libgcc.a(_moddi3.o)
 .gnu.attributes
                0x000002a0       0x10 /opt/microchip/xc32/v1.34/bin/bin/../../lib/gcc/pic32mx/4.5.2/libgcc.a(floatunsisf.o)
 .gnu.attributes
                0x000002b0       0x10 /opt/microchip/xc32/v1.34/bin/bin/../../lib/gcc/pic32mx/4.5.2/../../../../pic32mx/lib/libpic32.a(default-bootstrap-exception-handler.o)
 .gnu.attributes
                0x000002c0       0x10 /opt/microchip/xc32/v1.34/bin/bin/../../lib/gcc/pic32mx/4.5.2/../../../../pic32mx/lib/libpic32.a(default-on-reset.o)
 .gnu.attributes
                0x000002d0       0x10 /opt/microchip/xc32/v1.34/bin/bin/../../lib/gcc/pic32mx/4.5.2/../../../../pic32mx/lib/libpic32.a(default-on-bootstrap.o)
 .gnu.attributes
                0x000002e0       0x10 /opt/microchip/xc32/v1.34/bin/bin/../../lib/gcc/pic32mx/4.5.2/../../../../pic32mx/lib/libpic32.a(defaultinterrupt.o)
 .gnu.attributes
                0x000002f0       0x10 /opt/microchip/xc32/v1.34/bin/bin/../../lib/gcc/pic32mx/4.5.2/../../../../pic32mx/lib/libm.a(w_atan2f.o)
 .gnu.attributes
                0x00000300       0x10 /opt/microchip/xc32/v1.34/bin/bin/../../lib/gcc/pic32mx/4.5.2/../../../../pic32mx/lib/libm.a(w_sqrtf.o)
 .gnu.attributes
                0x00000310       0x10 /opt/microchip/xc32/v1.34/bin/bin/../../lib/gcc/pic32mx/4.5.2/../../../../pic32mx/lib/libm.a(support.o)
 .gnu.attributes
                0x00000320       0x10 /opt/microchip/xc32/v1.34/bin/bin/../../lib/gcc/pic32mx/4.5.2/../../../../pic32mx/lib/libm.a(s_lib_ver.o)
 .gnu.attributes
                0x00000330       0x10 /opt/microchip/xc32/v1.34/bin/bin/../../lib/gcc/pic32mx/4.5.2/../../../../pic32mx/lib/libc.a(errno.o)
                0x9d000000                PROVIDE (__pic32_init_cache_program_base_addr, 0x9d000000)
                0x80000000                PROVIDE (__pic32_init_cache_data_base_addr, 0x80000000)
                0xd0000000                PROVIDE (__pic32_init_sqi_kseg2_virtual_base_addr, 0xd0000000)
                0x30000000                PROVIDE (__pic32_init_sqi_kseg2_physical_base_addr, 0x30000000)
                0x0000001f                PROVIDE (__pic32_init_sqi_kseg2_entrylo0_bitset, 0x1f)
                0xd0000000                __pic32_tlb_0_entryhi = __pic32_init_sqi_kseg2_virtual_base_addr
                0x00c0001f                __pic32_tlb_0_entrylo0 = ((__pic32_init_sqi_kseg2_physical_base_addr >> 0x6) | __pic32_init_sqi_kseg2_entrylo0_bitset)
                0x00c4001f                __pic32_tlb_0_entrylo1 = (__pic32_tlb_0_entrylo0 | ((__pic32_init_sqi_kseg2_physical_base_addr + 0x1000000) >> 0x6))
                0xd2000000                __pic32_tlb_1_entryhi = (__pic32_init_sqi_kseg2_virtual_base_addr + 0x2000000)
                0x00c8001f                __pic32_tlb_1_entrylo0 = (((__pic32_init_sqi_kseg2_physical_base_addr + 0x2000000) >> 0x6) | __pic32_init_sqi_kseg2_entrylo0_bitset)
                0x00cc001f                __pic32_tlb_1_entrylo1 = (__pic32_tlb_1_entrylo0 | 0x40000)
                0xf0000000                PROVIDE (__pic32_init_sqi_kseg3_virtual_base_addr, 0xf0000000)
                0x30000000                PROVIDE (__pic32_init_sqi_kseg3_physical_base_addr, 0x30000000)
                0x00000017                PROVIDE (__pic32_init_sqi_kseg3_entrylo0_bitset, 0x17)
                0xf0000000                __pic32_tlb_2_entryhi = __pic32_init_sqi_kseg3_virtual_base_addr
                0x00c00017                __pic32_tlb_2_entrylo0 = ((__pic32_init_sqi_kseg3_physical_base_addr >> 0x6) | __pic32_init_sqi_kseg3_entrylo0_bitset)
                0x00c40017                __pic32_tlb_2_entrylo1 = (__pic32_tlb_2_entrylo0 | ((__pic32_init_sqi_kseg3_physical_base_addr + 0x1000000) >> 0x6))
                0xf2000000                __pic32_tlb_3_entryhi = (__pic32_init_sqi_kseg3_virtual_base_addr + 0x2000000)
                0x00c80017                __pic32_tlb_3_entrylo0 = (((__pic32_init_sqi_kseg3_physical_base_addr + 0x2000000) >> 0x6) | __pic32_init_sqi_kseg3_entrylo0_bitset)
                0x00cc0017                __pic32_tlb_3_entrylo1 = (__pic32_tlb_3_entrylo0 | 0x40000)

.tlb_init_values
                0xbfc00634       0x30
                0xbfc00634                . = ALIGN (0x4)
                0xbfc00634                __pic32_tlb_init_values_begin = ABSOLUTE (.)
                0xbfc00634        0x4 LONG 0xd0000000 __pic32_tlb_0_entryhi
                0xbfc00638        0x4 LONG 0xc0001f __pic32_tlb_0_entrylo0
                0xbfc0063c        0x4 LONG 0xc4001f __pic32_tlb_0_entrylo1
                0xbfc00640        0x4 LONG 0xd2000000 __pic32_tlb_1_entryhi
                0xbfc00644        0x4 LONG 0xc8001f __pic32_tlb_1_entrylo0
                0xbfc00648        0x4 LONG 0xcc001f __pic32_tlb_1_entrylo1
                0xbfc0064c        0x4 LONG 0xf0000000 __pic32_tlb_2_entryhi
                0xbfc00650        0x4 LONG 0xc00017 __pic32_tlb_2_entrylo0
                0xbfc00654        0x4 LONG 0xc40017 __pic32_tlb_2_entrylo1
                0xbfc00658        0x4 LONG 0xf2000000 __pic32_tlb_3_entryhi
                0xbfc0065c        0x4 LONG 0xc80017 __pic32_tlb_3_entrylo0
                0xbfc00660        0x4 LONG 0xcc0017 __pic32_tlb_3_entrylo1
                0xbfc00664                __pic32_tlb_init_values_end = ABSOLUTE (.)
                0x00000004                __pic32_tlb_init_values_count = 0x4
LOAD /opt/microchip/xc32/v1.34/bin/bin/../../lib/gcc/pic32mx/4.5.2/libgcc.a
START GROUP
LOAD /opt/microchip/xc32/v1.34/bin/bin/../../lib/gcc/pic32mx/4.5.2/../../../../pic32mx/lib/libpic32.a
LOAD /opt/microchip/xc32/v1.34/bin/bin/../../lib/gcc/pic32mx/4.5.2/../../../../pic32mx/lib/libdebug.a
LOAD /opt/microchip/xc32/v1.34/bin/bin/../../lib/gcc/pic32mx/4.5.2/../../../../pic32mx/lib/libpic32.a
LOAD /opt/microchip/xc32/v1.34/bin/bin/../../lib/gcc/pic32mx/4.5.2/../../../../pic32mx/lib/libm.a
LOAD /opt/microchip/xc32/v1.34/bin/bin/../../lib/gcc/pic32mx/4.5.2/../../../../pic32mx/lib/libe.a
LOAD /opt/microchip/xc32/v1.34/bin/bin/../../lib/gcc/pic32mx/4.5.2/../../../../pic32mx/lib/libdspr2.a
LOAD /opt/microchip/xc32/v1.34/bin/bin/../../lib/gcc/pic32mx/4.5.2/libgcc.a
LOAD /opt/microchip/xc32/v1.34/bin/bin/../../lib/gcc/pic32mx/4.5.2/../../../../pic32mx/lib/libc.a
LOAD /opt/microchip/xc32/v1.34/bin/bin/../../lib/gcc/pic32mx/4.5.2/../../../../pic32mx/lib/libpic32.a
END GROUP
LOAD /opt/microchip/xc32/v1.34/bin/bin/../../lib/gcc/pic32mx/4.5.2/libgcc.a
OUTPUT(dist/pic32mz1024ecg064/production/cellulo-firmware.X.production.elf elf32-tradlittlemips)
LOAD stack
LOAD data_init

.reginfo        0x00000000       0x18
 .reginfo       0x00000000       0x18 /opt/microchip/xc32/v1.34/bin/bin/../../lib/gcc/pic32mx/4.5.2/../../../../pic32mx/lib/./proc/32MZ1024ECG064/crt0_mips32r2.o

.stack          0x80068b70      0x400
 .stack         0x80068b70      0x400 stack

.__vector_offset_BF810540_data
                0xbf810540       0xb4
 .__vector_offset_BF810540_data
                0xbf810540       0xb4 /opt/microchip/xc32/v1.34/bin/bin/../../lib/gcc/pic32mx/4.5.2/../../../../pic32mx/lib/./proc/32MZ1024ECG064/vector_offset_init.o

.__vector_offset_BF8107A4_data
                0xbf8107a4       0x5c
 .__vector_offset_BF8107A4_data
                0xbf8107a4       0x5c /opt/microchip/xc32/v1.34/bin/bin/../../lib/gcc/pic32mx/4.5.2/../../../../pic32mx/lib/./proc/32MZ1024ECG064/vector_offset_init.o

.__vector_offset_BF810740_data
                0xbf810740       0x50
 .__vector_offset_BF810740_data
                0xbf810740       0x50 /opt/microchip/xc32/v1.34/bin/bin/../../lib/gcc/pic32mx/4.5.2/../../../../pic32mx/lib/./proc/32MZ1024ECG064/vector_offset_init.o

.__vector_offset_BF81062C_data
                0xbf81062c       0x4c
 .__vector_offset_BF81062C_data
                0xbf81062c       0x4c /opt/microchip/xc32/v1.34/bin/bin/../../lib/gcc/pic32mx/4.5.2/../../../../pic32mx/lib/./proc/32MZ1024ECG064/vector_offset_init.o

.__vector_offset_BF8105F8_data
                0xbf8105f8       0x30
 .__vector_offset_BF8105F8_data
                0xbf8105f8       0x30 /opt/microchip/xc32/v1.34/bin/bin/../../lib/gcc/pic32mx/4.5.2/../../../../pic32mx/lib/./proc/32MZ1024ECG064/vector_offset_init.o

.__vector_offset_BF8106F4_data
                0xbf8106f4       0x24
 .__vector_offset_BF8106F4_data
                0xbf8106f4       0x24 /opt/microchip/xc32/v1.34/bin/bin/../../lib/gcc/pic32mx/4.5.2/../../../../pic32mx/lib/./proc/32MZ1024ECG064/vector_offset_init.o

.__vector_offset_BF81071C_data
                0xbf81071c       0x18
 .__vector_offset_BF81071C_data
                0xbf81071c       0x18 /opt/microchip/xc32/v1.34/bin/bin/../../lib/gcc/pic32mx/4.5.2/../../../../pic32mx/lib/./proc/32MZ1024ECG064/vector_offset_init.o

.__vector_offset_BF81080C_data
                0xbf81080c       0x18
 .__vector_offset_BF81080C_data
                0xbf81080c       0x18 /opt/microchip/xc32/v1.34/bin/bin/../../lib/gcc/pic32mx/4.5.2/../../../../pic32mx/lib/./proc/32MZ1024ECG064/vector_offset_init.o

.__vector_offset_BF8106D8_data
                0xbf8106d8       0x14
 .__vector_offset_BF8106D8_data
                0xbf8106d8       0x14 /opt/microchip/xc32/v1.34/bin/bin/../../lib/gcc/pic32mx/4.5.2/../../../../pic32mx/lib/./proc/32MZ1024ECG064/vector_offset_init.o

.__vector_offset_BF810830_data
                0xbf810830        0xc
 .__vector_offset_BF810830_data
                0xbf810830        0xc /opt/microchip/xc32/v1.34/bin/bin/../../lib/gcc/pic32mx/4.5.2/../../../../pic32mx/lib/./proc/32MZ1024ECG064/vector_offset_init.o

.bss            0x800068e4    0x30ea8
 .bss           0x800068e4    0x1b580 build/pic32mz1024ecg064/production/_ext/115108523/grid.o
 .bss           0x80021e64     0xcc88 build/pic32mz1024ecg064/production/_ext/115108523/gridprobability.o
 .bss           0x8002eaec     0x8ca0 build/pic32mz1024ecg064/production/_ext/115108523/imgproc.o

.data           0x8003778c      0x5ec
 .data          0x8003778c      0x414 build/pic32mz1024ecg064/production/_ext/115108523/decoder.o
 .data          0x80037ba0      0x100 /opt/microchip/xc32/v1.34/bin/bin/../../lib/gcc/pic32mx/4.5.2/../../../../pic32mx/lib/libm.a(fpexatan.o)
 .data          0x80037ca0       0xd8 build/pic32mz1024ecg064/production/_ext/1360937237/bluetooth.o
                0x80037ca0                btCmdStrings
                0x80037d2c                btEventStrings

.bss            0x80037d78       0x38
 .bss           0x80037d78       0x38 build/pic32mz1024ecg064/production/_ext/115108523/dots_localization.o

.data           0x80037db0       0x60
 .data          0x80037db0       0x24 build/pic32mz1024ecg064/production/_ext/1360937237/motion.o
                0x80037db0                k_inv
 .data          0x80037dd4       0x24 /opt/microchip/xc32/v1.34/bin/bin/../../lib/gcc/pic32mx/4.5.2/../../../../pic32mx/lib/libm.a(sincof32.o)
                0x80037dd4                _sincof
                0x80037de4                _coscof
 .data          0x80037df8       0x18 build/pic32mz1024ecg064/production/_ext/1360937237/touch.o
                0x80037df8                keyTouchStartTime

.data.math_errhandling_flag
                0x80037e10        0x4
 .data.math_errhandling_flag
                0x80037e10        0x4 /opt/microchip/xc32/v1.34/bin/bin/../../lib/gcc/pic32mx/4.5.2/../../../../pic32mx/lib/libm.a(s_lib_ver.o)
                0x80037e10                math_errhandling

._debug_exception
                0xbfc00480       0x2c
 ._debug_exception
                0xbfc00480       0x2c /opt/microchip/xc32/v1.34/bin/bin/../../lib/gcc/pic32mx/4.5.2/../../../../pic32mx/lib/debug-exception-return.o
                0xbfc00480                __DbgExecReturn

.text.setVisualEffect
                0x9d0002a0     0x19e8
 .text.setVisualEffect
                0x9d0002a0     0x19e8 build/pic32mz1024ecg064/production/_ext/1360937237/led.o
                0x9d0002a0                setVisualEffect

.text.APP_LED_Tasks
                0x9d001c88     0x14bc
 .text.APP_LED_Tasks
                0x9d001c88     0x14bc build/pic32mz1024ecg064/production/_ext/1360937237/led.o
                0x9d001c88                APP_LED_Tasks

.dinit          0x9d003144      0xb80
 .dinit         0x9d003144      0xb80 data_init

.text.processCommand
                0x9d003cc4      0xa30
 .text.processCommand
                0x9d003cc4      0xa30 build/pic32mz1024ecg064/production/_ext/1360937237/bluetooth.o
                0x9d003cc4                processCommand

.text.setMotorOutputsFromGlobalVelGoals
                0x9d0046f4      0x710
 .text.setMotorOutputsFromGlobalVelGoals
                0x9d0046f4      0x710 build/pic32mz1024ecg064/production/_ext/1360937237/motion.o
                0x9d0046f4                setMotorOutputsFromGlobalVelGoals

.text.correctGridEstimate
                0x9d004e04      0x654
 .text.correctGridEstimate
                0x9d004e04      0x654 build/pic32mz1024ecg064/production/_ext/115108523/grid.o
                0x9d004e04                correctGridEstimate

.text.trackPosition
                0x9d005458      0x650
 .text.trackPosition
                0x9d005458      0x650 build/pic32mz1024ecg064/production/_ext/1360937237/motion.o
                0x9d005458                trackPosition

.text.estimateVelocities
                0x9d005aa8      0x634
 .text.estimateVelocities
                0x9d005aa8      0x634 build/pic32mz1024ecg064/production/_ext/1360937237/motion.o
                0x9d005aa8                estimateVelocities

.text.I2CReadBytes
                0x9d0060dc      0x604
 .text.I2CReadBytes
                0x9d0060dc      0x604 build/pic32mz1024ecg064/production/_ext/1360937237/i2c.o
                0x9d0060dc                I2CReadBytes

.text.calculateCasualBackdriveAssist
                0x9d0066e0      0x5e0
 .text.calculateCasualBackdriveAssist
                0x9d0066e0      0x5e0 build/pic32mz1024ecg064/production/_ext/1360937237/haptics.o
                0x9d0066e0                calculateCasualBackdriveAssist

.text.SYS_PORTS_Initialize
                0x9d006cc0      0x4ec
 .text.SYS_PORTS_Initialize
                0x9d006cc0      0x4ec build/pic32mz1024ecg064/production/_ext/672157374/sys_ports_static.o
                0x9d006cc0                SYS_PORTS_Initialize

.text           0x9d0071ac      0x98c
 .text          0x9d0071ac      0x4e0 /opt/microchip/xc32/v1.34/bin/bin/../../lib/gcc/pic32mx/4.5.2/libgcc.a(_moddi3.o)
                0x9d0071ac                __moddi3
 .text          0x9d00768c      0x4ac /opt/microchip/xc32/v1.34/bin/bin/../../lib/gcc/pic32mx/4.5.2/libgcc.a(_divdi3.o)
                0x9d00768c                __divdi3

.text.calculateGridOffsets
                0x9d007b38      0x4a4
 .text.calculateGridOffsets
                0x9d007b38      0x4a4 build/pic32mz1024ecg064/production/_ext/115108523/gridprobability.o
                0x9d007b38                calculateGridOffsets

.text.detectPoints
                0x9d007fdc      0x494
 .text.detectPoints
                0x9d007fdc      0x494 build/pic32mz1024ecg064/production/_ext/115108523/imgproc.o
                0x9d007fdc                detectPoints

.text.probGridsDecode
                0x9d008470      0x468
 .text.probGridsDecode
                0x9d008470      0x468 build/pic32mz1024ecg064/production/_ext/115108523/decoder.o
                0x9d008470                probGridsDecode

.text.calculateHapticBackdriveAssist
                0x9d0088d8      0x40c
 .text.calculateHapticBackdriveAssist
                0x9d0088d8      0x40c build/pic32mz1024ecg064/production/_ext/1360937237/haptics.o
                0x9d0088d8                calculateHapticBackdriveAssist

.text.calculateVibrationOnMotion
                0x9d008ce4      0x408
 .text.calculateVibrationOnMotion
                0x9d008ce4      0x408 build/pic32mz1024ecg064/production/_ext/1360937237/haptics.o
                0x9d008ce4                calculateVibrationOnMotion

.text.getPolyBezierNextVelocities
                0x9d0090ec      0x3f4
 .text.getPolyBezierNextVelocities
                0x9d0090ec      0x3f4 build/pic32mz1024ecg064/production/_ext/1360937237/bezier.o
                0x9d0090ec                getPolyBezierNextVelocities

.text.findInitialGridEstimate
                0x9d0094e0      0x3f0
 .text.findInitialGridEstimate
                0x9d0094e0      0x3f0 build/pic32mz1024ecg064/production/_ext/115108523/grid.o
                0x9d0094e0                findInitialGridEstimate

.rodata         0x9d0098d0      0x3c4
 .rodata        0x9d0098d0      0x3c4 build/pic32mz1024ecg064/production/_ext/115108523/decoder.o

.text.I2CWriteBytes
                0x9d009c94      0x39c
 .text.I2CWriteBytes
                0x9d009c94      0x39c build/pic32mz1024ecg064/production/_ext/1360937237/i2c.o
                0x9d009c94                I2CWriteBytes

.text.PLIB_OSC_PBClockDivisorSet
                0x9d00a030      0x370
 .text.PLIB_OSC_PBClockDivisorSet
                0x9d00a030      0x370 /opt/microchip/harmony/v1_03/bin/framework/peripheral/PIC32MZ1024ECG064_peripherals.a(peripheral.o)
                0x9d00a030                PLIB_OSC_PBClockDivisorSet

.text.trackOrientation
                0x9d00a3a0      0x368
 .text.trackOrientation
                0x9d00a3a0      0x368 build/pic32mz1024ecg064/production/_ext/1360937237/motion.o
                0x9d00a3a0                trackOrientation

.text.transitionLED
                0x9d00a708      0x364
 .text.transitionLED
                0x9d00a708      0x364 build/pic32mz1024ecg064/production/_ext/1360937237/led.o
                0x9d00a708                transitionLED

.text.APP_Motion_Tasks
                0x9d00aa6c      0x358
 .text.APP_Motion_Tasks
                0x9d00aa6c      0x358 build/pic32mz1024ecg064/production/_ext/1360937237/motion.o
                0x9d00aa6c                APP_Motion_Tasks

.text.libm      0x9d00adc4      0x350
 .text.libm     0x9d00adc4      0x350 /opt/microchip/xc32/v1.34/bin/bin/../../lib/gcc/pic32mx/4.5.2/../../../../pic32mx/lib/libm.a(fpexatan.o)
                0x9d00adc4                fpexatan

.text.dotsLocalize
                0x9d00b114      0x308
 .text.dotsLocalize
                0x9d00b114      0x308 build/pic32mz1024ecg064/production/_ext/115108523/dots_localization.o
                0x9d00b114                dotsLocalize

.text.atan2f    0x9d00b41c      0x300
 .text.atan2f   0x9d00b41c      0x300 /opt/microchip/xc32/v1.34/bin/bin/../../lib/gcc/pic32mx/4.5.2/../../../../pic32mx/lib/libm.a(w_atan2f.o)
                0x9d00b41c                atan2f

.text.USART_LineControlModeSelect_RXandTXCombined
                0x9d00b71c      0x2dc
 .text.USART_LineControlModeSelect_RXandTXCombined
                0x9d00b71c      0x2dc /opt/microchip/harmony/v1_03/bin/framework/peripheral/PIC32MZ1024ECG064_peripherals.a(peripheral.o)

.text.SYS_Initialize
                0x9d00b9f8      0x2c0
 .text.SYS_Initialize
                0x9d00b9f8      0x2c0 build/pic32mz1024ecg064/production/_ext/1055008133/system_init.o
                0x9d00b9f8                SYS_Initialize

.text.APP_LED_Initialize
                0x9d00bcb8      0x2b8
 .text.APP_LED_Initialize
                0x9d00bcb8      0x2b8 build/pic32mz1024ecg064/production/_ext/1360937237/led.o
                0x9d00bcb8                APP_LED_Initialize

.text.updatePose
                0x9d00bf70      0x2b8
 .text.updatePose
                0x9d00bf70      0x2b8 build/pic32mz1024ecg064/production/_ext/1360937237/localization.o
                0x9d00bf70                updatePose

.text.probabilityGridsTurn
                0x9d00c228      0x2b0
 .text.probabilityGridsTurn
                0x9d00c228      0x2b0 build/pic32mz1024ecg064/production/_ext/115108523/decoder.o
                0x9d00c228                probabilityGridsTurn

.text.intGridTurn
                0x9d00c4d8      0x290
 .text.intGridTurn
                0x9d00c4d8      0x290 build/pic32mz1024ecg064/production/_ext/115108523/intgrid.o
                0x9d00c4d8                intGridTurn

.text.touchQueryKeys
                0x9d00c768      0x28c
 .text.touchQueryKeys
                0x9d00c768      0x28c build/pic32mz1024ecg064/production/_ext/1360937237/touch.o
                0x9d00c768                touchQueryKeys

.text.trackXCoordinate
                0x9d00c9f4      0x28c
 .text.trackXCoordinate
                0x9d00c9f4      0x28c build/pic32mz1024ecg064/production/_ext/1360937237/motion.o
                0x9d00c9f4                trackXCoordinate

.text.trackYCoordinate
                0x9d00cc80      0x28c
 .text.trackYCoordinate
                0x9d00cc80      0x28c build/pic32mz1024ecg064/production/_ext/1360937237/motion.o
                0x9d00cc80                trackYCoordinate

.text.findInitialAxisLength
                0x9d00cf0c      0x288
 .text.findInitialAxisLength
                0x9d00cf0c      0x288 build/pic32mz1024ecg064/production/_ext/115108523/grid.o
                0x9d00cf0c                findInitialAxisLength

.text.simpleVibrate
                0x9d00d194      0x288
 .text.simpleVibrate
                0x9d00d194      0x288 build/pic32mz1024ecg064/production/_ext/1360937237/haptics.o
                0x9d00d194                simpleVibrate

.text.SPI_CommunicationWidthSelect_PIC32
                0x9d00d41c      0x27c
 .text.SPI_CommunicationWidthSelect_PIC32
                0x9d00d41c      0x27c /opt/microchip/harmony/v1_03/bin/framework/peripheral/PIC32MZ1024ECG064_peripherals.a(peripheral.o)

.text.fpsubadd  0x9d00d698      0x278
 .text.fpsubadd
                0x9d00d698      0x278 /opt/microchip/xc32/v1.34/bin/bin/../../lib/gcc/pic32mx/4.5.2/../../../../pic32mx/lib/libm.a(fp32subadd.o)
                0x9d00d698                fpsub
                0x9d00d698                __subsf3
                0x9d00d6a0                fpadd
                0x9d00d6a0                __addsf3

.text.setMotorOutput
                0x9d00d910      0x264
 .text.setMotorOutput
                0x9d00d910      0x264 build/pic32mz1024ecg064/production/_ext/1360937237/motor.o
                0x9d00d910                setMotorOutput

.text._LineFinishedHandler
                0x9d00db74      0x260
 .text._LineFinishedHandler
                0x9d00db74      0x260 build/pic32mz1024ecg064/production/_ext/1360937237/cam.o
                0x9d00db74                _LineFinishedHandler

.text.libm      0x9d00ddd4      0x248
 .text.libm     0x9d00ddd4      0x248 /opt/microchip/xc32/v1.34/bin/bin/../../lib/gcc/pic32mx/4.5.2/../../../../pic32mx/lib/libm.a(fpatan2.o)
                0x9d00ddd4                fpatan2
                0x9d00ddd4                __mchp_atan2f

.text.APP_Localization_Tasks
                0x9d00e01c      0x23c
 .text.APP_Localization_Tasks
                0x9d00e01c      0x23c build/pic32mz1024ecg064/production/_ext/1360937237/localization.o
                0x9d00e01c                APP_Localization_Tasks

.text.PLIB_OSC_ReferenceOscBaseClockSelect
                0x9d00e258      0x230
 .text.PLIB_OSC_ReferenceOscBaseClockSelect
                0x9d00e258      0x230 /opt/microchip/harmony/v1_03/bin/framework/peripheral/PIC32MZ1024ECG064_peripherals.a(peripheral.o)
                0x9d00e258                PLIB_OSC_ReferenceOscBaseClockSelect

.text.fp32div   0x9d00e488      0x230
 .text.fp32div  0x9d00e488      0x230 /opt/microchip/xc32/v1.34/bin/bin/../../lib/gcc/pic32mx/4.5.2/../../../../pic32mx/lib/libm.a(fp32div.o)
                0x9d00e488                __divsf3
                0x9d00e488                fpdiv

.text.makeProbabilityGrids
                0x9d00e6b8      0x220
 .text.makeProbabilityGrids
                0x9d00e6b8      0x220 build/pic32mz1024ecg064/production/_ext/115108523/gridprobability.o
                0x9d00e6b8                makeProbabilityGrids

.text.SYS_CLK_Initialize
                0x9d00e8d8      0x218
 .text.SYS_CLK_Initialize
                0x9d00e8d8      0x218 build/pic32mz1024ecg064/production/_ext/563981586/sys_clk_static.o
                0x9d00e8d8                SYS_CLK_Initialize

.text._Timer3Handler
                0x9d00eaf0      0x218
 .text._Timer3Handler
                0x9d00eaf0      0x218 build/pic32mz1024ecg064/production/_ext/1360937237/led.o
                0x9d00eaf0                _Timer3Handler

.text._IntHandlerSPITxInstance0
                0x9d00ed08      0x218
 .text._IntHandlerSPITxInstance0
                0x9d00ed08      0x218 build/pic32mz1024ecg064/production/_ext/1360937237/led.o
                0x9d00ed08                _IntHandlerSPITxInstance0

.text._BT_RX_Handler
                0x9d00ef20      0x218
 .text._BT_RX_Handler
                0x9d00ef20      0x218 build/pic32mz1024ecg064/production/_ext/1360937237/bluetooth.o
                0x9d00ef20                _BT_RX_Handler

.text.PLIB_I2C_BaudRateSet
                0x9d00f138      0x218
 .text.PLIB_I2C_BaudRateSet
                0x9d00f138      0x218 /opt/microchip/harmony/v1_03/bin/framework/peripheral/PIC32MZ1024ECG064_peripherals.a(peripheral.o)
                0x9d00f138                PLIB_I2C_BaudRateSet

.text.APP_Power_Initialize
                0x9d00f350      0x210
 .text.APP_Power_Initialize
                0x9d00f350      0x210 build/pic32mz1024ecg064/production/_ext/1360937237/power.o
                0x9d00f350                APP_Power_Initialize

.text.findNeighbours
                0x9d00f560      0x20c
 .text.findNeighbours
                0x9d00f560      0x20c build/pic32mz1024ecg064/production/_ext/115108523/grid.o
                0x9d00f560                findNeighbours

.text.APP_BT_Tasks
                0x9d00f76c      0x204
 .text.APP_BT_Tasks
                0x9d00f76c      0x204 build/pic32mz1024ecg064/production/_ext/1360937237/bluetooth.o
                0x9d00f76c                APP_BT_Tasks

.text.trackPolyBezier
                0x9d00f970      0x200
 .text.trackPolyBezier
                0x9d00f970      0x200 build/pic32mz1024ecg064/production/_ext/1360937237/motion.o
                0x9d00f970                trackPolyBezier

.text._BT_FAULT_Handler
                0x9d00fb70      0x1ec
 .text._BT_FAULT_Handler
                0x9d00fb70      0x1ec build/pic32mz1024ecg064/production/_ext/1360937237/bluetooth.o
                0x9d00fb70                _BT_FAULT_Handler

.text.APP_Power_Tasks
                0x9d00fd5c      0x1e8
 .text.APP_Power_Tasks
                0x9d00fd5c      0x1e8 build/pic32mz1024ecg064/production/_ext/1360937237/power.o
                0x9d00fd5c                APP_Power_Tasks

.text.rotationDecoderUpdateAxes
                0x9d00ff44      0x1e4
 .text.rotationDecoderUpdateAxes
                0x9d00ff44      0x1e4 build/pic32mz1024ecg064/production/_ext/115108523/decoder.o
                0x9d00ff44                rotationDecoderUpdateAxes

.text.intGridLocalSum
                0x9d010128      0x1e4
 .text.intGridLocalSum
                0x9d010128      0x1e4 build/pic32mz1024ecg064/production/_ext/115108523/intgrid.o
                0x9d010128                intGridLocalSum

.text._Timer4Handler
                0x9d01030c      0x1d0
 .text._Timer4Handler
                0x9d01030c      0x1d0 build/pic32mz1024ecg064/production/_ext/1360937237/led.o
                0x9d01030c                _Timer4Handler

.text.lowBatteryAnimation
                0x9d0104dc      0x1cc
 .text.lowBatteryAnimation
                0x9d0104dc      0x1cc build/pic32mz1024ecg064/production/_ext/1360937237/led.o
                0x9d0104dc                lowBatteryAnimation

.text.PLIB_OSC_ReferenceOscDivisorValueSet
                0x9d0106a8      0x1cc
 .text.PLIB_OSC_ReferenceOscDivisorValueSet
                0x9d0106a8      0x1cc /opt/microchip/harmony/v1_03/bin/framework/peripheral/PIC32MZ1024ECG064_peripherals.a(peripheral.o)
                0x9d0106a8                PLIB_OSC_ReferenceOscDivisorValueSet

.text._Timer8Handler
                0x9d010874      0x1c4
 .text._Timer8Handler
                0x9d010874      0x1c4 build/pic32mz1024ecg064/production/_ext/1360937237/timer.o
                0x9d010874                _Timer8Handler

.text._SleepIdleTouchExitHandler
                0x9d010a38      0x1c0
 .text._SleepIdleTouchExitHandler
                0x9d010a38      0x1c0 build/pic32mz1024ecg064/production/_ext/1360937237/power.o
                0x9d010a38                _SleepIdleTouchExitHandler

.text._IdleTimerExitHandler
                0x9d010bf8      0x1bc
 .text._IdleTimerExitHandler
                0x9d010bf8      0x1bc build/pic32mz1024ecg064/production/_ext/1360937237/power.o
                0x9d010bf8                _IdleTimerExitHandler

.text.fp32mul   0x9d010db4      0x1bc
 .text.fp32mul  0x9d010db4      0x1bc /opt/microchip/xc32/v1.34/bin/bin/../../lib/gcc/pic32mx/4.5.2/../../../../pic32mx/lib/libm.a(fp32mul.o)
                0x9d010db4                fpmul
                0x9d010db4                __mulsf3

.text._IntHandlerDrvI2CMasterInstance0
                0x9d010f70      0x1b8
 .text._IntHandlerDrvI2CMasterInstance0
                0x9d010f70      0x1b8 build/pic32mz1024ecg064/production/_ext/1360937237/i2c.o
                0x9d010f70                _IntHandlerDrvI2CMasterInstance0

.text._IntHandlerDrvI2CErrorInstance0
                0x9d011128      0x1b8
 .text._IntHandlerDrvI2CErrorInstance0
                0x9d011128      0x1b8 build/pic32mz1024ecg064/production/_ext/1360937237/i2c.o
                0x9d011128                _IntHandlerDrvI2CErrorInstance0

.text.MT9V034SetBlackLevelCalibration
                0x9d0112e0      0x1b8
 .text.MT9V034SetBlackLevelCalibration
                0x9d0112e0      0x1b8 build/pic32mz1024ecg064/production/_ext/1360937237/mt9v034.o
                0x9d0112e0                MT9V034SetBlackLevelCalibration

.text.setLEDTemporary
                0x9d011498      0x1b0
 .text.setLEDTemporary
                0x9d011498      0x1b0 build/pic32mz1024ecg064/production/_ext/1360937237/led.o
                0x9d011498                setLEDTemporary

.text.MT9V034SetBinning
                0x9d011648      0x1b0
 .text.MT9V034SetBinning
                0x9d011648      0x1b0 build/pic32mz1024ecg064/production/_ext/1360937237/mt9v034.o
                0x9d011648                MT9V034SetBinning

.text.libm      0x9d0117f8      0x1ac
 .text.libm     0x9d0117f8      0x1ac /opt/microchip/xc32/v1.34/bin/bin/../../lib/gcc/pic32mx/4.5.2/../../../../pic32mx/lib/libm.a(fpsqrt32.o)
                0x9d0117f8                fpsqrt
                0x9d0117f8                __mchp_sqrtf

.text.SYS_DEVCON_PerformanceConfig
                0x9d0119a4      0x1a8
 .text.SYS_DEVCON_PerformanceConfig
                0x9d0119a4      0x1a8 build/pic32mz1024ecg064/production/_ext/431183094/sys_devcon_pic32mz.o
                0x9d0119a4                SYS_DEVCON_PerformanceConfig

.text.PLIB_OSC_ReferenceOscTrimSet
                0x9d011b4c      0x1a4
 .text.PLIB_OSC_ReferenceOscTrimSet
                0x9d011b4c      0x1a4 /opt/microchip/harmony/v1_03/bin/framework/peripheral/PIC32MZ1024ECG064_peripherals.a(peripheral.o)
                0x9d011b4c                PLIB_OSC_ReferenceOscTrimSet

.text.sampleKeySignals
                0x9d011cf0      0x1a0
 .text.sampleKeySignals
                0x9d011cf0      0x1a0 build/pic32mz1024ecg064/production/_ext/1360937237/gesture.o
                0x9d011cf0                sampleKeySignals

.text.decodePrimaryNumber
                0x9d011e90      0x194
 .text.decodePrimaryNumber
                0x9d011e90      0x194 build/pic32mz1024ecg064/production/_ext/115108523/decoder.o
                0x9d011e90                decodePrimaryNumber

.text.APP_Battery_Tasks
                0x9d012024      0x188
 .text.APP_Battery_Tasks
                0x9d012024      0x188 build/pic32mz1024ecg064/production/_ext/1360937237/battery.o
                0x9d012024                APP_Battery_Tasks

.text.USART_HandshakeModeSelect_Default
                0x9d0121ac      0x184
 .text.USART_HandshakeModeSelect_Default
                0x9d0121ac      0x184 /opt/microchip/harmony/v1_03/bin/framework/peripheral/PIC32MZ1024ECG064_peripherals.a(peripheral.o)

.text.undistortPoints
                0x9d012330      0x17c
 .text.undistortPoints
                0x9d012330      0x17c build/pic32mz1024ecg064/production/_ext/115108523/imgproc.o
                0x9d012330                undistortPoints

.text.USART_OperationModeSelect_Default
                0x9d0124ac      0x17c
 .text.USART_OperationModeSelect_Default
                0x9d0124ac      0x17c /opt/microchip/harmony/v1_03/bin/framework/peripheral/PIC32MZ1024ECG064_peripherals.a(peripheral.o)

.text.USART_TransmitterInterruptModeSelect_Default
                0x9d012628      0x17c
 .text.USART_TransmitterInterruptModeSelect_Default
                0x9d012628      0x17c /opt/microchip/harmony/v1_03/bin/framework/peripheral/PIC32MZ1024ECG064_peripherals.a(peripheral.o)

.text.USART_ReceiverInterruptModeSelect_Default
                0x9d0127a4      0x17c
 .text.USART_ReceiverInterruptModeSelect_Default
                0x9d0127a4      0x17c /opt/microchip/harmony/v1_03/bin/framework/peripheral/PIC32MZ1024ECG064_peripherals.a(peripheral.o)

.text.calcBezier
                0x9d012920      0x178
 .text.calcBezier
                0x9d012920      0x178 build/pic32mz1024ecg064/production/_ext/1360937237/bezier.o
                0x9d012920                calcBezier

.text.I2C_ReceivedByteAcknowledge_Default
                0x9d012a98      0x178
 .text.I2C_ReceivedByteAcknowledge_Default
                0x9d012a98      0x178 /opt/microchip/harmony/v1_03/bin/framework/peripheral/PIC32MZ1024ECG064_peripherals.a(peripheral.o)

.text.findEdges
                0x9d012c10      0x170
 .text.findEdges
                0x9d012c10      0x170 build/pic32mz1024ecg064/production/_ext/115108523/grid.o
                0x9d012c10                findEdges

.text.USART_BaudRateSet_In16BitRegister
                0x9d012d80      0x168
 .text.USART_BaudRateSet_In16BitRegister
                0x9d012d80      0x168 /opt/microchip/harmony/v1_03/bin/framework/peripheral/PIC32MZ1024ECG064_peripherals.a(peripheral.o)

.text.PLIB_OSC_PBOutputClockEnable
                0x9d012ee8      0x168
 .text.PLIB_OSC_PBOutputClockEnable
                0x9d012ee8      0x168 /opt/microchip/harmony/v1_03/bin/framework/peripheral/PIC32MZ1024ECG064_peripherals.a(peripheral.o)
                0x9d012ee8                PLIB_OSC_PBOutputClockEnable

.text           0x9d013050      0x168
 .text          0x9d013050      0x168 /opt/microchip/xc32/v1.34/bin/bin/../../lib/gcc/pic32mx/4.5.2/../../../../pic32mx/lib/libpic32.a(memcpy.o)
                0x9d013050                memcpy

.text.resumeLEDsSleep
                0x9d0131b8      0x160
 .text.resumeLEDsSleep
                0x9d0131b8      0x160 build/pic32mz1024ecg064/production/_ext/1360937237/led.o
                0x9d0131b8                resumeLEDsSleep

.text.APP_Cam_Initialize
                0x9d013318      0x160
 .text.APP_Cam_Initialize
                0x9d013318      0x160 build/pic32mz1024ecg064/production/_ext/1360937237/cam.o
                0x9d013318                APP_Cam_Initialize

.text.decodePos
                0x9d013478      0x15c
 .text.decodePos
                0x9d013478      0x15c build/pic32mz1024ecg064/production/_ext/115108523/decoder.o
                0x9d013478                decodePos

.text.MT9V034Reset
                0x9d0135d4      0x150
 .text.MT9V034Reset
                0x9d0135d4      0x150 build/pic32mz1024ecg064/production/_ext/1360937237/mt9v034.o
                0x9d0135d4                MT9V034Reset

.text.main      0x9d013724      0x148
 .text.main     0x9d013724      0x148 build/pic32mz1024ecg064/production/_ext/1360937237/main.o
                0x9d013724                main

.text.suspendLEDsIdle
                0x9d01386c      0x148
 .text.suspendLEDsIdle
                0x9d01386c      0x148 build/pic32mz1024ecg064/production/_ext/1360937237/led.o
                0x9d01386c                suspendLEDsIdle

.text.initOC    0x9d0139b4      0x140
 .text.initOC   0x9d0139b4      0x140 build/pic32mz1024ecg064/production/_ext/1360937237/motor.o
                0x9d0139b4                initOC

.text.MT9V034SetManualShutterWidth
                0x9d013af4      0x138
 .text.MT9V034SetManualShutterWidth
                0x9d013af4      0x138 build/pic32mz1024ecg064/production/_ext/1360937237/mt9v034.o
                0x9d013af4                MT9V034SetManualShutterWidth

.text.DRV_USART1_Initialize
                0x9d013c2c      0x134
 .text.DRV_USART1_Initialize
                0x9d013c2c      0x134 build/pic32mz1024ecg064/production/_ext/1040884377/drv_usart_static.o
                0x9d013c2c                DRV_USART1_Initialize

.text.AT42QT1070GetKeyStates
                0x9d013d60      0x12c
 .text.AT42QT1070GetKeyStates
                0x9d013d60      0x12c build/pic32mz1024ecg064/production/_ext/1360937237/at42qt1070.o
                0x9d013d60                AT42QT1070GetKeyStates

.text.calculateHaptics
                0x9d013e8c      0x12c
 .text.calculateHaptics
                0x9d013e8c      0x12c build/pic32mz1024ecg064/production/_ext/1360937237/haptics.o
                0x9d013e8c                calculateHaptics

.text.dpcmp     0x9d013fb8      0x12c
 .text.dpcmp    0x9d013fb8      0x12c /opt/microchip/xc32/v1.34/bin/bin/../../lib/gcc/pic32mx/4.5.2/../../../../pic32mx/lib/libm.a(dpcmp.o)
                0x9d013fb8                __gtdf2
                0x9d013fb8                __ltdf2
                0x9d013fb8                __gedf2
                0x9d013fb8                dpcmp
                0x9d013fb8                __ledf2
                0x9d013fb8                __nedf2
                0x9d013fb8                __eqdf2

.text.DRV_SPI0_Initialize
                0x9d0140e4      0x124
 .text.DRV_SPI0_Initialize
                0x9d0140e4      0x124 build/pic32mz1024ecg064/production/_ext/2001973653/drv_spi_static.o
                0x9d0140e4                DRV_SPI0_Initialize

.rodata         0x9d014208      0x124
 .rodata        0x9d014208      0x124 build/pic32mz1024ecg064/production/_ext/1360937237/bluetooth.o
                0x9d014208                btCmdLen

.text.AT42QT1070GetKeySignals
                0x9d01432c      0x124
 .text.AT42QT1070GetKeySignals
                0x9d01432c      0x124 build/pic32mz1024ecg064/production/_ext/1360937237/at42qt1070.o
                0x9d01432c                AT42QT1070GetKeySignals

.text.AT42QT1070GetKeyReferences
                0x9d014450      0x124
 .text.AT42QT1070GetKeyReferences
                0x9d014450      0x124 build/pic32mz1024ecg064/production/_ext/1360937237/at42qt1070.o
                0x9d014450                AT42QT1070GetKeyReferences

.text.getBatteryState
                0x9d014574      0x124
 .text.getBatteryState
                0x9d014574      0x124 build/pic32mz1024ecg064/production/_ext/1360937237/battery.o
                0x9d014574                getBatteryState

.text.resumeLEDsIdle
                0x9d014698      0x11c
 .text.resumeLEDsIdle
                0x9d014698      0x11c build/pic32mz1024ecg064/production/_ext/1360937237/led.o
                0x9d014698                resumeLEDsIdle

.text.libm      0x9d0147b4      0x11c
 .text.libm     0x9d0147b4      0x11c /opt/microchip/xc32/v1.34/bin/bin/../../lib/gcc/pic32mx/4.5.2/../../../../pic32mx/lib/libm.a(fpsin32.o)
                0x9d0147b4                fpsin
                0x9d0147b4                sinf

.text.forwardProbability
                0x9d0148d0      0x118
 .text.forwardProbability
                0x9d0148d0      0x118 build/pic32mz1024ecg064/production/_ext/115108523/decoder.o
                0x9d0148d0                forwardProbability

.text.downwardProbability
                0x9d0149e8      0x118
 .text.downwardProbability
                0x9d0149e8      0x118 build/pic32mz1024ecg064/production/_ext/115108523/decoder.o
                0x9d0149e8                downwardProbability

.text.stayAsleepTouch
                0x9d014b00      0x118
 .text.stayAsleepTouch
                0x9d014b00      0x118 build/pic32mz1024ecg064/production/_ext/1360937237/touch.o
                0x9d014b00                stayAsleepTouch

.text.libm      0x9d014c18      0x118
 .text.libm     0x9d014c18      0x118 /opt/microchip/xc32/v1.34/bin/bin/../../lib/gcc/pic32mx/4.5.2/../../../../pic32mx/lib/libm.a(fpcos32.o)
                0x9d014c18                cosf
                0x9d014c18                fpcos

.text.SPI_InputSamplePhaseSelect_Default
                0x9d014d30      0x110
 .text.SPI_InputSamplePhaseSelect_Default
                0x9d014d30      0x110 /opt/microchip/harmony/v1_03/bin/framework/peripheral/PIC32MZ1024ECG064_peripherals.a(peripheral.o)

.text.SPI_OutputDataPhaseSelect_Default
                0x9d014e40      0x110
 .text.SPI_OutputDataPhaseSelect_Default
                0x9d014e40      0x110 /opt/microchip/harmony/v1_03/bin/framework/peripheral/PIC32MZ1024ECG064_peripherals.a(peripheral.o)

.text.SPI_ClockPolaritySelect_Default
                0x9d014f50      0x110
 .text.SPI_ClockPolaritySelect_Default
                0x9d014f50      0x110 /opt/microchip/harmony/v1_03/bin/framework/peripheral/PIC32MZ1024ECG064_peripherals.a(peripheral.o)

.text.updateShutterWidth
                0x9d015060      0x10c
 .text.updateShutterWidth
                0x9d015060      0x10c build/pic32mz1024ecg064/production/_ext/1360937237/cam.o
                0x9d015060                updateShutterWidth

.text.libm      0x9d01516c      0x10c
 .text.libm     0x9d01516c      0x10c /opt/microchip/xc32/v1.34/bin/bin/../../lib/gcc/pic32mx/4.5.2/../../../../pic32mx/lib/libm.a(fpreduct32.o)
                0x9d01516c                fpreduct

.text.intGridCreate
                0x9d015278      0x108
 .text.intGridCreate
                0x9d015278      0x108 build/pic32mz1024ecg064/production/_ext/115108523/intgrid.o
                0x9d015278                intGridCreate

.text.sortPoints
                0x9d015380      0x104
 .text.sortPoints
                0x9d015380      0x104 build/pic32mz1024ecg064/production/_ext/115108523/imgproc.o
                0x9d015380                sortPoints

.text.DRV_I2C0_Initialize
                0x9d015484      0x100
 .text.DRV_I2C0_Initialize
                0x9d015484      0x100 build/pic32mz1024ecg064/production/_ext/63677053/drv_i2c_static.o
                0x9d015484                DRV_I2C0_Initialize

.text.SYS_CLK_PeripheralFrequencyGet
                0x9d015584      0x100
 .text.SYS_CLK_PeripheralFrequencyGet
                0x9d015584      0x100 build/pic32mz1024ecg064/production/_ext/563981586/sys_clk_static.o
                0x9d015584                SYS_CLK_PeripheralFrequencyGet

.text.dptofp    0x9d015684      0x100
 .text.dptofp   0x9d015684      0x100 /opt/microchip/xc32/v1.34/bin/bin/../../lib/gcc/pic32mx/4.5.2/../../../../pic32mx/lib/libm.a(dptofp.o)
                0x9d015684                dptofp
                0x9d015684                __truncdfsf2

.text.getPolyBezierEnd
                0x9d015784       0xfc
 .text.getPolyBezierEnd
                0x9d015784       0xfc build/pic32mz1024ecg064/production/_ext/1360937237/bezier.o
                0x9d015784                getPolyBezierEnd

.text.libm      0x9d015880       0xfc
 .text.libm     0x9d015880       0xfc /opt/microchip/xc32/v1.34/bin/bin/../../lib/gcc/pic32mx/4.5.2/../../../../pic32mx/lib/libm.a(fpexsqrt32.o)
                0x9d015880                fpexsqrt

.text.camFixSkewedRows
                0x9d01597c       0xf8
 .text.camFixSkewedRows
                0x9d01597c       0xf8 build/pic32mz1024ecg064/production/_ext/1360937237/cam.o
                0x9d01597c                camFixSkewedRows

.text.grabOneFrame
                0x9d015a74       0xf8
 .text.grabOneFrame
                0x9d015a74       0xf8 build/pic32mz1024ecg064/production/_ext/1360937237/cam.o
                0x9d015a74                grabOneFrame

.text.SPI_BaudRateSet_Default
                0x9d015b6c       0xf4
 .text.SPI_BaudRateSet_Default
                0x9d015b6c       0xf4 /opt/microchip/harmony/v1_03/bin/framework/peripheral/PIC32MZ1024ECG064_peripherals.a(peripheral.o)

.text.APP_Gesture_Tasks
                0x9d000010       0xf0
 .text.APP_Gesture_Tasks
                0x9d000010       0xf0 build/pic32mz1024ecg064/production/_ext/1360937237/gesture.o
                0x9d000010                APP_Gesture_Tasks

.text.MT9V034Standby
                0x9d015c60       0xe8
 .text.MT9V034Standby
                0x9d015c60       0xe8 build/pic32mz1024ecg064/production/_ext/1360937237/mt9v034.o
                0x9d015c60                MT9V034Standby

.text.USART_TransmitterByteSend_Default
                0x9d015d48       0xe8
 .text.USART_TransmitterByteSend_Default
                0x9d015d48       0xe8 /opt/microchip/harmony/v1_03/bin/framework/peripheral/PIC32MZ1024ECG064_peripherals.a(peripheral.o)

.text.PLIB_I2C_BusIsIdle
                0x9d015e30       0xe8
 .text.PLIB_I2C_BusIsIdle
                0x9d015e30       0xe8 /opt/microchip/harmony/v1_03/bin/framework/peripheral/PIC32MZ1024ECG064_peripherals.a(peripheral.o)
                0x9d015e30                PLIB_I2C_BusIsIdle

.text.calculateSimpleVibration
                0x9d015f18       0xe4
 .text.calculateSimpleVibration
                0x9d015f18       0xe4 build/pic32mz1024ecg064/production/_ext/1360937237/haptics.o
                0x9d015f18                calculateSimpleVibration

.text.PLIB_OSC_ReferenceOutputEnable
                0x9d015ffc       0xe0
 .text.PLIB_OSC_ReferenceOutputEnable
                0x9d015ffc       0xe0 /opt/microchip/harmony/v1_03/bin/framework/peripheral/PIC32MZ1024ECG064_peripherals.a(peripheral.o)
                0x9d015ffc                PLIB_OSC_ReferenceOutputEnable

.text.PLIB_OSC_ReferenceOutputDisable
                0x9d0160dc       0xe0
 .text.PLIB_OSC_ReferenceOutputDisable
                0x9d0160dc       0xe0 /opt/microchip/harmony/v1_03/bin/framework/peripheral/PIC32MZ1024ECG064_peripherals.a(peripheral.o)
                0x9d0160dc                PLIB_OSC_ReferenceOutputDisable

.text.PLIB_OSC_ReferenceOscEnable
                0x9d0161bc       0xe0
 .text.PLIB_OSC_ReferenceOscEnable
                0x9d0161bc       0xe0 /opt/microchip/harmony/v1_03/bin/framework/peripheral/PIC32MZ1024ECG064_peripherals.a(peripheral.o)
                0x9d0161bc                PLIB_OSC_ReferenceOscEnable

.text.PLIB_OSC_ReferenceOscDisable
                0x9d01629c       0xe0
 .text.PLIB_OSC_ReferenceOscDisable
                0x9d01629c       0xe0 /opt/microchip/harmony/v1_03/bin/framework/peripheral/PIC32MZ1024ECG064_peripherals.a(peripheral.o)
                0x9d01629c                PLIB_OSC_ReferenceOscDisable

.text.intGridFindClosestTo
                0x9d01637c       0xdc
 .text.intGridFindClosestTo
                0x9d01637c       0xdc build/pic32mz1024ecg064/production/_ext/115108523/intgrid.o
                0x9d01637c                intGridFindClosestTo

.text.getFourOrMoreFingerHold
                0x9d016458       0xdc
 .text.getFourOrMoreFingerHold
                0x9d016458       0xdc build/pic32mz1024ecg064/production/_ext/1360937237/touch.o
                0x9d016458                getFourOrMoreFingerHold

.text.general_exception
                0x9d016534       0xdc
 .text.general_exception
                0x9d016534       0xdc /opt/microchip/xc32/v1.34/bin/bin/../../lib/gcc/pic32mx/4.5.2/../../../../pic32mx/lib/libpic32.a(general-exception.o)
                0x9d016534                _general_exception_context

.text._FrameStartHandler
                0x9d016610       0xd8
 .text._FrameStartHandler
                0x9d016610       0xd8 build/pic32mz1024ecg064/production/_ext/1360937237/cam.o
                0x9d016610                _FrameStartHandler

.text._cache_err_exception_context
                0x9d0166e8       0xd8
 .text._cache_err_exception_context
                0x9d0166e8       0xd8 /opt/microchip/xc32/v1.34/bin/bin/../../lib/gcc/pic32mx/4.5.2/../../../../pic32mx/lib/libpic32.a(cache-err-exception.o)
                0x9d0166e8                _cache_err_exception_context

.text.simple_tlb_refill_context
                0x9d0167c0       0xd8
 .text.simple_tlb_refill_context
                0x9d0167c0       0xd8 /opt/microchip/xc32/v1.34/bin/bin/../../lib/gcc/pic32mx/4.5.2/../../../../pic32mx/lib/libpic32.a(simple-tlb-refill-exception.o)
                0x9d0167c0                _simple_tlb_refill_exception_context

.text.DRV_I2C0_WaitForByteWriteToComplete
                0x9d016898       0xd4
 .text.DRV_I2C0_WaitForByteWriteToComplete
                0x9d016898       0xd4 build/pic32mz1024ecg064/production/_ext/63677053/drv_i2c_static.o
                0x9d016898                DRV_I2C0_WaitForByteWriteToComplete

.text.DRV_I2C0_MasterStop
                0x9d01696c       0xd4
 .text.DRV_I2C0_MasterStop
                0x9d01696c       0xd4 build/pic32mz1024ecg064/production/_ext/63677053/drv_i2c_static.o
                0x9d01696c                DRV_I2C0_MasterStop

.text.libm      0x9d016a40       0xd4
 .text.libm     0x9d016a40       0xd4 /opt/microchip/xc32/v1.34/bin/bin/../../lib/gcc/pic32mx/4.5.2/../../../../pic32mx/lib/libm.a(fpmodf.o)
                0x9d016a40                fpmodf
                0x9d016a40                modff

.text.intPointNormalize
                0x9d016b14       0xd0
 .text.intPointNormalize
                0x9d016b14       0xd0 build/pic32mz1024ecg064/production/_ext/115108523/grid.o

.text.setLED    0x9d016be4       0xd0
 .text.setLED   0x9d016be4       0xd0 build/pic32mz1024ecg064/production/_ext/1360937237/led.o
                0x9d016be4                setLED

.text.numShifts
                0x9d016cb4       0xcc
 .text.numShifts
                0x9d016cb4       0xcc build/pic32mz1024ecg064/production/_ext/115108523/decoder.o
                0x9d016cb4                numShifts

.text.getPolyBezierInit
                0x9d016d80       0xcc
 .text.getPolyBezierInit
                0x9d016d80       0xcc build/pic32mz1024ecg064/production/_ext/1360937237/bezier.o
                0x9d016d80                getPolyBezierInit

.text.MT9V034SetAnalogGain
                0x9d016e4c       0xc8
 .text.MT9V034SetAnalogGain
                0x9d016e4c       0xc8 build/pic32mz1024ecg064/production/_ext/1360937237/mt9v034.o
                0x9d016e4c                MT9V034SetAnalogGain

.text.setLED1   0x9d016f14       0xc0
 .text.setLED1  0x9d016f14       0xc0 build/pic32mz1024ecg064/production/_ext/1360937237/led.o
                0x9d016f14                setLED1

.text.setLED4   0x9d016fd4       0xc0
 .text.setLED4  0x9d016fd4       0xc0 build/pic32mz1024ecg064/production/_ext/1360937237/led.o
                0x9d016fd4                setLED4

.text.initTimer8
                0x9d017094       0xc0
 .text.initTimer8
                0x9d017094       0xc0 build/pic32mz1024ecg064/production/_ext/1360937237/timer.o
                0x9d017094                initTimer8

.text.bluetoothEventCameraImageLine
                0x9d017154       0xbc
 .text.bluetoothEventCameraImageLine
                0x9d017154       0xbc build/pic32mz1024ecg064/production/_ext/1360937237/bluetooth.o
                0x9d017154                bluetoothEventCameraImageLine

.tlb.__pic32_tlb_init_ebi_sqi
                0x9d017210       0xbc
 .tlb.__pic32_tlb_init_ebi_sqi
                0x9d017210       0xbc /opt/microchip/xc32/v1.34/bin/bin/../../lib/gcc/pic32mx/4.5.2/../../../../pic32mx/lib/libpic32.a(pic32_init_tlb_ebi_sqi.o)
                0x9d017210                __pic32_tlb_init_ebi_sqi

.text.findSection
                0x9d0172cc       0xb8
 .text.findSection
                0x9d0172cc       0xb8 build/pic32mz1024ecg064/production/_ext/115108523/decoder.o
                0x9d0172cc                findSection

.text.getPrimaryNumberRow
                0x9d017384       0xb4
 .text.getPrimaryNumberRow
                0x9d017384       0xb4 build/pic32mz1024ecg064/production/_ext/115108523/decoder.o
                0x9d017384                getPrimaryNumberRow

.text.getPosition
                0x9d017438       0xb4
 .text.getPosition
                0x9d017438       0xb4 build/pic32mz1024ecg064/production/_ext/115108523/decoder.o
                0x9d017438                getPosition

.text.setLED0   0x9d0174ec       0xb4
 .text.setLED0  0x9d0174ec       0xb4 build/pic32mz1024ecg064/production/_ext/1360937237/led.o
                0x9d0174ec                setLED0

.text.setLED3   0x9d0175a0       0xb4
 .text.setLED3  0x9d0175a0       0xb4 build/pic32mz1024ecg064/production/_ext/1360937237/led.o
                0x9d0175a0                setLED3

.text.getPrimaryNumberCol
                0x9d017654       0xb0
 .text.getPrimaryNumberCol
                0x9d017654       0xb0 build/pic32mz1024ecg064/production/_ext/115108523/decoder.o
                0x9d017654                getPrimaryNumberCol

.text.DRV_I2C0_MasterStart
                0x9d017704       0xb0
 .text.DRV_I2C0_MasterStart
                0x9d017704       0xb0 build/pic32mz1024ecg064/production/_ext/63677053/drv_i2c_static.o
                0x9d017704                DRV_I2C0_MasterStart

.text.MT9V034EnableAGC_AEC
                0x9d0177b4       0xb0
 .text.MT9V034EnableAGC_AEC
                0x9d0177b4       0xb0 build/pic32mz1024ecg064/production/_ext/1360937237/mt9v034.o
                0x9d0177b4                MT9V034EnableAGC_AEC

.text.sampleKeyStates
                0x9d017864       0xb0
 .text.sampleKeyStates
                0x9d017864       0xb0 build/pic32mz1024ecg064/production/_ext/1360937237/touch.o
                0x9d017864                sampleKeyStates

.text.PLIB_USART_Enable
                0x9d017914       0xb0
 .text.PLIB_USART_Enable
                0x9d017914       0xb0 /opt/microchip/harmony/v1_03/bin/framework/peripheral/PIC32MZ1024ECG064_peripherals.a(peripheral.o)
                0x9d017914                PLIB_USART_Enable

.text.PLIB_USART_ReceiverEnable
                0x9d0179c4       0xb0
 .text.PLIB_USART_ReceiverEnable
                0x9d0179c4       0xb0 /opt/microchip/harmony/v1_03/bin/framework/peripheral/PIC32MZ1024ECG064_peripherals.a(peripheral.o)
                0x9d0179c4                PLIB_USART_ReceiverEnable

.text.PLIB_USART_TransmitterEnable
                0x9d017a74       0xb0
 .text.PLIB_USART_TransmitterEnable
                0x9d017a74       0xb0 /opt/microchip/harmony/v1_03/bin/framework/peripheral/PIC32MZ1024ECG064_peripherals.a(peripheral.o)
                0x9d017a74                PLIB_USART_TransmitterEnable

.text.quickSelect
                0x9d017b24       0xac
 .text.quickSelect
                0x9d017b24       0xac build/pic32mz1024ecg064/production/_ext/115108523/intlist.o
                0x9d017b24                quickSelect

.text.DRV_I2C0_ByteWrite
                0x9d017bd0       0xac
 .text.DRV_I2C0_ByteWrite
                0x9d017bd0       0xac build/pic32mz1024ecg064/production/_ext/63677053/drv_i2c_static.o
                0x9d017bd0                DRV_I2C0_ByteWrite

.text.hapticBackdriveAssist
                0x9d017c7c       0xac
 .text.hapticBackdriveAssist
                0x9d017c7c       0xac build/pic32mz1024ecg064/production/_ext/1360937237/haptics.o
                0x9d017c7c                hapticBackdriveAssist

.text.PLIB_DMA_ChannelXSourceStartAddressSet
                0x9d017d28       0xac
 .text.PLIB_DMA_ChannelXSourceStartAddressSet
                0x9d017d28       0xac /opt/microchip/harmony/v1_03/bin/framework/peripheral/PIC32MZ1024ECG064_peripherals.a(peripheral.o)
                0x9d017d28                PLIB_DMA_ChannelXSourceStartAddressSet

.text.fptodp    0x9d017dd4       0xac
 .text.fptodp   0x9d017dd4       0xac /opt/microchip/xc32/v1.34/bin/bin/../../lib/gcc/pic32mx/4.5.2/../../../../pic32mx/lib/libm.a(fptodp.o)
                0x9d017dd4                __extendsfdf2
                0x9d017dd4                fptodp

.text.correlationPeak
                0x9d017e80       0xa8
 .text.correlationPeak
                0x9d017e80       0xa8 build/pic32mz1024ecg064/production/_ext/115108523/decoder.o
                0x9d017e80                correlationPeak

.text._I2CWriteByte
                0x9d017f28       0xa8
 .text._I2CWriteByte
                0x9d017f28       0xa8 build/pic32mz1024ecg064/production/_ext/1360937237/i2c.o
                0x9d017f28                _I2CWriteByte

.text.unloadUInt32
                0x9d017fd0       0xa8
 .text.unloadUInt32
                0x9d017fd0       0xa8 build/pic32mz1024ecg064/production/_ext/1360937237/bluetooth.o
                0x9d017fd0                unloadUInt32

.text.unloadFloat
                0x9d018078       0xa8
 .text.unloadFloat
                0x9d018078       0xa8 build/pic32mz1024ecg064/production/_ext/1360937237/bluetooth.o
                0x9d018078                unloadFloat

.text.PLIB_USART_TransmitterByteSend
                0x9d018120       0xa8
 .text.PLIB_USART_TransmitterByteSend
                0x9d018120       0xa8 /opt/microchip/harmony/v1_03/bin/framework/peripheral/PIC32MZ1024ECG064_peripherals.a(peripheral.o)
                0x9d018120                PLIB_USART_TransmitterByteSend

.text.DRV_USART0_Initialize
                0x9d0181c8       0xa4
 .text.DRV_USART0_Initialize
                0x9d0181c8       0xa4 build/pic32mz1024ecg064/production/_ext/1040884377/drv_usart_static.o
                0x9d0181c8                DRV_USART0_Initialize

.text.PLIB_USART_HandshakeModeSelect
                0x9d01826c       0xa4
 .text.PLIB_USART_HandshakeModeSelect
                0x9d01826c       0xa4 /opt/microchip/harmony/v1_03/bin/framework/peripheral/PIC32MZ1024ECG064_peripherals.a(peripheral.o)
                0x9d01826c                PLIB_USART_HandshakeModeSelect

.text.PLIB_USART_LineControlModeSelect
                0x9d018310       0xa4
 .text.PLIB_USART_LineControlModeSelect
                0x9d018310       0xa4 /opt/microchip/harmony/v1_03/bin/framework/peripheral/PIC32MZ1024ECG064_peripherals.a(peripheral.o)
                0x9d018310                PLIB_USART_LineControlModeSelect

.text.PLIB_USART_OperationModeSelect
                0x9d0183b4       0xa4
 .text.PLIB_USART_OperationModeSelect
                0x9d0183b4       0xa4 /opt/microchip/harmony/v1_03/bin/framework/peripheral/PIC32MZ1024ECG064_peripherals.a(peripheral.o)
                0x9d0183b4                PLIB_USART_OperationModeSelect

.text.PLIB_USART_BaudRateSet
                0x9d018458       0xa4
 .text.PLIB_USART_BaudRateSet
                0x9d018458       0xa4 /opt/microchip/harmony/v1_03/bin/framework/peripheral/PIC32MZ1024ECG064_peripherals.a(peripheral.o)
                0x9d018458                PLIB_USART_BaudRateSet

.text.PLIB_USART_ReceiverInterruptModeSelect
                0x9d0184fc       0xa4
 .text.PLIB_USART_ReceiverInterruptModeSelect
                0x9d0184fc       0xa4 /opt/microchip/harmony/v1_03/bin/framework/peripheral/PIC32MZ1024ECG064_peripherals.a(peripheral.o)
                0x9d0184fc                PLIB_USART_ReceiverInterruptModeSelect

.text.PLIB_USART_TransmitterBufferIsFull
                0x9d0185a0       0xa4
 .text.PLIB_USART_TransmitterBufferIsFull
                0x9d0185a0       0xa4 /opt/microchip/harmony/v1_03/bin/framework/peripheral/PIC32MZ1024ECG064_peripherals.a(peripheral.o)
                0x9d0185a0                PLIB_USART_TransmitterBufferIsFull

.text.PLIB_USART_TransmitterInterruptModeSelect
                0x9d018644       0xa4
 .text.PLIB_USART_TransmitterInterruptModeSelect
                0x9d018644       0xa4 /opt/microchip/harmony/v1_03/bin/framework/peripheral/PIC32MZ1024ECG064_peripherals.a(peripheral.o)
                0x9d018644                PLIB_USART_TransmitterInterruptModeSelect

.text.gridOffsetsMedian
                0x9d0186e8       0xa0
 .text.gridOffsetsMedian
                0x9d0186e8       0xa0 build/pic32mz1024ecg064/production/_ext/115108523/gridprobability.o
                0x9d0186e8                gridOffsetsMedian

.text._LineStartHandler
                0x9d018788       0xa0
 .text._LineStartHandler
                0x9d018788       0xa0 build/pic32mz1024ecg064/production/_ext/1360937237/cam.o
                0x9d018788                _LineStartHandler

.text.sendPose  0x9d018828       0xa0
 .text.sendPose
                0x9d018828       0xa0 build/pic32mz1024ecg064/production/_ext/1360937237/localization.o
                0x9d018828                sendPose

.text.PLIB_DMA_ChannelXTriggerEnable
                0x9d0188c8       0xa0
 .text.PLIB_DMA_ChannelXTriggerEnable
                0x9d0188c8       0xa0 /opt/microchip/harmony/v1_03/bin/framework/peripheral/PIC32MZ1024ECG064_peripherals.a(peripheral.o)
                0x9d0188c8                PLIB_DMA_ChannelXTriggerEnable

.text.fpcmp     0x9d018968       0x9c
 .text.fpcmp    0x9d018968       0x9c /opt/microchip/xc32/v1.34/bin/bin/../../lib/gcc/pic32mx/4.5.2/../../../../pic32mx/lib/libm.a(fpcmp.o)
                0x9d018968                __ltsf2
                0x9d018968                __eqsf2
                0x9d018968                __lesf2
                0x9d018968                __gtsf2
                0x9d018968                __nesf2
                0x9d018968                fpcmp
                0x9d018968                __gesf2

.text.enableIdleExitTimer
                0x9d018a04       0x98
 .text.enableIdleExitTimer
                0x9d018a04       0x98 build/pic32mz1024ecg064/production/_ext/1360937237/power.o
                0x9d018a04                enableIdleExitTimer

.text.setLED2   0x9d018a9c       0x94
 .text.setLED2  0x9d018a9c       0x94 build/pic32mz1024ecg064/production/_ext/1360937237/led.o
                0x9d018a9c                setLED2

.text.getCommand
                0x9d018b30       0x94
 .text.getCommand
                0x9d018b30       0x94 build/pic32mz1024ecg064/production/_ext/1360937237/bluetooth.o
                0x9d018b30                getCommand

.text.getVectorOrientation
                0x9d018bc4       0x94
 .text.getVectorOrientation
                0x9d018bc4       0x94 build/pic32mz1024ecg064/production/_ext/1360937237/motion.o
                0x9d018bc4                getVectorOrientation

.text.findSequenceOffset
                0x9d018c58       0x90
 .text.findSequenceOffset
                0x9d018c58       0x90 build/pic32mz1024ecg064/production/_ext/115108523/decoder.o
                0x9d018c58                findSequenceOffset

.text.probabilities
                0x9d018ce8       0x90
 .text.probabilities
                0x9d018ce8       0x90 build/pic32mz1024ecg064/production/_ext/115108523/gridprobability.o
                0x9d018ce8                probabilities

.text.quickPartition
                0x9d018d78       0x90
 .text.quickPartition
                0x9d018d78       0x90 build/pic32mz1024ecg064/production/_ext/115108523/intlist.o
                0x9d018d78                quickPartition

.text.DRV_I2C0_MasterRestart
                0x9d018e08       0x90
 .text.DRV_I2C0_MasterRestart
                0x9d018e08       0x90 build/pic32mz1024ecg064/production/_ext/63677053/drv_i2c_static.o
                0x9d018e08                DRV_I2C0_MasterRestart

.text.sendUInt32
                0x9d018e98       0x90
 .text.sendUInt32
                0x9d018e98       0x90 build/pic32mz1024ecg064/production/_ext/1360937237/bluetooth.o
                0x9d018e98                sendUInt32

.text.setLED5   0x9d018f28       0x8c
 .text.setLED5  0x9d018f28       0x8c build/pic32mz1024ecg064/production/_ext/1360937237/led.o
                0x9d018f28                setLED5

.text.APP_Cam_Tasks
                0x9d018fb4       0x8c
 .text.APP_Cam_Tasks
                0x9d018fb4       0x8c build/pic32mz1024ecg064/production/_ext/1360937237/cam.o
                0x9d018fb4                APP_Cam_Tasks

.text.dotsPosInfoInit
                0x9d019040       0x88
 .text.dotsPosInfoInit
                0x9d019040       0x88 build/pic32mz1024ecg064/production/_ext/115108523/dots_localization.o
                0x9d019040                dotsPosInfoInit

.text.polyBezierAppend
                0x9d0190c8       0x88
 .text.polyBezierAppend
                0x9d0190c8       0x88 build/pic32mz1024ecg064/production/_ext/1360937237/bezier.o
                0x9d0190c8                polyBezierAppend

.text.intGridCopy
                0x9d019150       0x84
 .text.intGridCopy
                0x9d019150       0x84 build/pic32mz1024ecg064/production/_ext/115108523/intgrid.o
                0x9d019150                intGridCopy

.text.DRV_I2C0_WaitForStartComplete
                0x9d0191d4       0x84
 .text.DRV_I2C0_WaitForStartComplete
                0x9d0191d4       0x84 build/pic32mz1024ecg064/production/_ext/63677053/drv_i2c_static.o
                0x9d0191d4                DRV_I2C0_WaitForStartComplete

.text.bluetoothReset
                0x9d019258       0x84
 .text.bluetoothReset
                0x9d019258       0x84 build/pic32mz1024ecg064/production/_ext/1360937237/bluetooth.o
                0x9d019258                bluetoothReset

.text.bluetoothEventPoseChangedTimestamped
                0x9d0192dc       0x84
 .text.bluetoothEventPoseChangedTimestamped
                0x9d0192dc       0x84 build/pic32mz1024ecg064/production/_ext/1360937237/bluetooth.o
                0x9d0192dc                bluetoothEventPoseChangedTimestamped

.text.getCoeffs
                0x9d019360       0x80
 .text.getCoeffs
                0x9d019360       0x80 build/pic32mz1024ecg064/production/_ext/115108523/decoder.o
                0x9d019360                getCoeffs

.text.imageMean
                0x9d0193e0       0x80
 .text.imageMean
                0x9d0193e0       0x80 build/pic32mz1024ecg064/production/_ext/115108523/imgproc.o
                0x9d0193e0                imageMean

.text.unloadInt16
                0x9d019460       0x80
 .text.unloadInt16
                0x9d019460       0x80 build/pic32mz1024ecg064/production/_ext/1360937237/bluetooth.o
                0x9d019460                unloadInt16

.text.fptoli    0x9d0194e0       0x80
 .text.fptoli   0x9d0194e0       0x80 /opt/microchip/xc32/v1.34/bin/bin/../../lib/gcc/pic32mx/4.5.2/../../../../pic32mx/lib/libm.a(fptoli.o)
                0x9d0194e0                __fixsfsi
                0x9d0194e0                fptoli
                0x9d0194e0                fptosi

.text.enableSleepExitTouch
                0x9d019560       0x7c
 .text.enableSleepExitTouch
                0x9d019560       0x7c build/pic32mz1024ecg064/production/_ext/1360937237/power.o
                0x9d019560                enableSleepExitTouch

.text.getKeyValueSum
                0x9d0195dc       0x7c
 .text.getKeyValueSum
                0x9d0195dc       0x7c build/pic32mz1024ecg064/production/_ext/1360937237/gesture.o
                0x9d0195dc                getKeyValueSum

.text.PLIB_I2C_TransmitterByteHasCompleted
                0x9d019658       0x7c
 .text.PLIB_I2C_TransmitterByteHasCompleted
                0x9d019658       0x7c /opt/microchip/harmony/v1_03/bin/framework/peripheral/PIC32MZ1024ECG064_peripherals.a(peripheral.o)
                0x9d019658                PLIB_I2C_TransmitterByteHasCompleted

.text.PLIB_I2C_TransmitterByteWasAcknowledged
                0x9d0196d4       0x7c
 .text.PLIB_I2C_TransmitterByteWasAcknowledged
                0x9d0196d4       0x7c /opt/microchip/harmony/v1_03/bin/framework/peripheral/PIC32MZ1024ECG064_peripherals.a(peripheral.o)
                0x9d0196d4                PLIB_I2C_TransmitterByteWasAcknowledged

.text.PLIB_I2C_MasterReceiverReadyToAcknowledge
                0x9d019750       0x7c
 .text.PLIB_I2C_MasterReceiverReadyToAcknowledge
                0x9d019750       0x7c /opt/microchip/harmony/v1_03/bin/framework/peripheral/PIC32MZ1024ECG064_peripherals.a(peripheral.o)
                0x9d019750                PLIB_I2C_MasterReceiverReadyToAcknowledge

.text.fptoul    0x9d0197cc       0x7c
 .text.fptoul   0x9d0197cc       0x7c /opt/microchip/xc32/v1.34/bin/bin/../../lib/gcc/pic32mx/4.5.2/../../../../pic32mx/lib/libm.a(fptoul.o)
                0x9d0197cc                __fixunssfsi
                0x9d0197cc                fptoul
                0x9d0197cc                fptoui

.text.unloadUInt16
                0x9d019848       0x78
 .text.unloadUInt16
                0x9d019848       0x78 build/pic32mz1024ecg064/production/_ext/1360937237/bluetooth.o
                0x9d019848                unloadUInt16

.text.distSquared
                0x9d0198c0       0x78
 .text.distSquared
                0x9d0198c0       0x78 build/pic32mz1024ecg064/production/_ext/1360937237/bezier.o
                0x9d0198c0                distSquared

.text.SYS_DEVCON_SystemUnlock
                0x9d019938       0x78
 .text.SYS_DEVCON_SystemUnlock
                0x9d019938       0x78 build/pic32mz1024ecg064/production/_ext/431183094/sys_devcon.o
                0x9d019938                SYS_DEVCON_SystemUnlock

.text.SYS_DEVCON_SystemLock
                0x9d0199b0       0x78
 .text.SYS_DEVCON_SystemLock
                0x9d0199b0       0x78 build/pic32mz1024ecg064/production/_ext/431183094/sys_devcon.o
                0x9d0199b0                SYS_DEVCON_SystemLock

.text.PLIB_I2C_ReceivedByteAcknowledge
                0x9d019a28       0x78
 .text.PLIB_I2C_ReceivedByteAcknowledge
                0x9d019a28       0x78 /opt/microchip/harmony/v1_03/bin/framework/peripheral/PIC32MZ1024ECG064_peripherals.a(peripheral.o)
                0x9d019a28                PLIB_I2C_ReceivedByteAcknowledge

.text.bluetoothEventPoseChanged
                0x9d019aa0       0x74
 .text.bluetoothEventPoseChanged
                0x9d019aa0       0x74 build/pic32mz1024ecg064/production/_ext/1360937237/bluetooth.o
                0x9d019aa0                bluetoothEventPoseChanged

.text.PLIB_SPI_CommunicationWidthSelect
                0x9d019b14       0x74
 .text.PLIB_SPI_CommunicationWidthSelect
                0x9d019b14       0x74 /opt/microchip/harmony/v1_03/bin/framework/peripheral/PIC32MZ1024ECG064_peripherals.a(peripheral.o)
                0x9d019b14                PLIB_SPI_CommunicationWidthSelect

.text.PLIB_SPI_InputSamplePhaseSelect
                0x9d019b88       0x74
 .text.PLIB_SPI_InputSamplePhaseSelect
                0x9d019b88       0x74 /opt/microchip/harmony/v1_03/bin/framework/peripheral/PIC32MZ1024ECG064_peripherals.a(peripheral.o)
                0x9d019b88                PLIB_SPI_InputSamplePhaseSelect

.text.PLIB_SPI_OutputDataPhaseSelect
                0x9d019bfc       0x74
 .text.PLIB_SPI_OutputDataPhaseSelect
                0x9d019bfc       0x74 /opt/microchip/harmony/v1_03/bin/framework/peripheral/PIC32MZ1024ECG064_peripherals.a(peripheral.o)
                0x9d019bfc                PLIB_SPI_OutputDataPhaseSelect

.text.PLIB_SPI_ClockPolaritySelect
                0x9d019c70       0x74
 .text.PLIB_SPI_ClockPolaritySelect
                0x9d019c70       0x74 /opt/microchip/harmony/v1_03/bin/framework/peripheral/PIC32MZ1024ECG064_peripherals.a(peripheral.o)
                0x9d019c70                PLIB_SPI_ClockPolaritySelect

.text.PLIB_SPI_BaudRateSet
                0x9d019ce4       0x74
 .text.PLIB_SPI_BaudRateSet
                0x9d019ce4       0x74 /opt/microchip/harmony/v1_03/bin/framework/peripheral/PIC32MZ1024ECG064_peripherals.a(peripheral.o)
                0x9d019ce4                PLIB_SPI_BaudRateSet

.text.rotationDecoderUpdate
                0x9d000110       0x70
 .text.rotationDecoderUpdate
                0x9d000110       0x70 build/pic32mz1024ecg064/production/_ext/115108523/decoder.o
                0x9d000110                rotationDecoderUpdate

.text.disableAllMotors
                0x9d000190       0x70
 .text.disableAllMotors
                0x9d000190       0x70 build/pic32mz1024ecg064/production/_ext/1360937237/motor.o
                0x9d000190                disableAllMotors

.text.PLIB_I2C_HighFrequencyDisable
                0x9d019d58       0x70
 .text.PLIB_I2C_HighFrequencyDisable
                0x9d019d58       0x70 /opt/microchip/harmony/v1_03/bin/framework/peripheral/PIC32MZ1024ECG064_peripherals.a(peripheral.o)
                0x9d019d58                PLIB_I2C_HighFrequencyDisable

.text.PLIB_I2C_StopInIdleDisable
                0x9d019dc8       0x70
 .text.PLIB_I2C_StopInIdleDisable
                0x9d019dc8       0x70 /opt/microchip/harmony/v1_03/bin/framework/peripheral/PIC32MZ1024ECG064_peripherals.a(peripheral.o)
                0x9d019dc8                PLIB_I2C_StopInIdleDisable

.text.PLIB_I2C_Enable
                0x9d019e38       0x70
 .text.PLIB_I2C_Enable
                0x9d019e38       0x70 /opt/microchip/harmony/v1_03/bin/framework/peripheral/PIC32MZ1024ECG064_peripherals.a(peripheral.o)
                0x9d019e38                PLIB_I2C_Enable

.text.PLIB_I2C_Disable
                0x9d019ea8       0x70
 .text.PLIB_I2C_Disable
                0x9d019ea8       0x70 /opt/microchip/harmony/v1_03/bin/framework/peripheral/PIC32MZ1024ECG064_peripherals.a(peripheral.o)
                0x9d019ea8                PLIB_I2C_Disable

.text.PLIB_I2C_MasterStart
                0x9d019f18       0x70
 .text.PLIB_I2C_MasterStart
                0x9d019f18       0x70 /opt/microchip/harmony/v1_03/bin/framework/peripheral/PIC32MZ1024ECG064_peripherals.a(peripheral.o)
                0x9d019f18                PLIB_I2C_MasterStart

.text.PLIB_I2C_MasterStartRepeat
                0x9d019f88       0x70
 .text.PLIB_I2C_MasterStartRepeat
                0x9d019f88       0x70 /opt/microchip/harmony/v1_03/bin/framework/peripheral/PIC32MZ1024ECG064_peripherals.a(peripheral.o)
                0x9d019f88                PLIB_I2C_MasterStartRepeat

.text.PLIB_I2C_MasterReceiverClock1Byte
                0x9d019ff8       0x70
 .text.PLIB_I2C_MasterReceiverClock1Byte
                0x9d019ff8       0x70 /opt/microchip/harmony/v1_03/bin/framework/peripheral/PIC32MZ1024ECG064_peripherals.a(peripheral.o)
                0x9d019ff8                PLIB_I2C_MasterReceiverClock1Byte

.text.PLIB_I2C_MasterStop
                0x9d01a068       0x70
 .text.PLIB_I2C_MasterStop
                0x9d01a068       0x70 /opt/microchip/harmony/v1_03/bin/framework/peripheral/PIC32MZ1024ECG064_peripherals.a(peripheral.o)
                0x9d01a068                PLIB_I2C_MasterStop

.text.PLIB_I2C_TransmitterOverflowClear
                0x9d01a0d8       0x70
 .text.PLIB_I2C_TransmitterOverflowClear
                0x9d01a0d8       0x70 /opt/microchip/harmony/v1_03/bin/framework/peripheral/PIC32MZ1024ECG064_peripherals.a(peripheral.o)
                0x9d01a0d8                PLIB_I2C_TransmitterOverflowClear

.text.PLIB_I2C_ReceiverOverflowClear
                0x9d01a148       0x70
 .text.PLIB_I2C_ReceiverOverflowClear
                0x9d01a148       0x70 /opt/microchip/harmony/v1_03/bin/framework/peripheral/PIC32MZ1024ECG064_peripherals.a(peripheral.o)
                0x9d01a148                PLIB_I2C_ReceiverOverflowClear

.text.PLIB_SPI_Enable
                0x9d01a1b8       0x70
 .text.PLIB_SPI_Enable
                0x9d01a1b8       0x70 /opt/microchip/harmony/v1_03/bin/framework/peripheral/PIC32MZ1024ECG064_peripherals.a(peripheral.o)
                0x9d01a1b8                PLIB_SPI_Enable

.text.PLIB_SPI_Disable
                0x9d01a228       0x70
 .text.PLIB_SPI_Disable
                0x9d01a228       0x70 /opt/microchip/harmony/v1_03/bin/framework/peripheral/PIC32MZ1024ECG064_peripherals.a(peripheral.o)
                0x9d01a228                PLIB_SPI_Disable

.text.PLIB_SPI_StopInIdleDisable
                0x9d01a298       0x70
 .text.PLIB_SPI_StopInIdleDisable
                0x9d01a298       0x70 /opt/microchip/harmony/v1_03/bin/framework/peripheral/PIC32MZ1024ECG064_peripherals.a(peripheral.o)
                0x9d01a298                PLIB_SPI_StopInIdleDisable

.text.PLIB_SPI_MasterEnable
                0x9d01a308       0x70
 .text.PLIB_SPI_MasterEnable
                0x9d01a308       0x70 /opt/microchip/harmony/v1_03/bin/framework/peripheral/PIC32MZ1024ECG064_peripherals.a(peripheral.o)
                0x9d01a308                PLIB_SPI_MasterEnable

.text.PLIB_SPI_SlaveSelectDisable
                0x9d01a378       0x70
 .text.PLIB_SPI_SlaveSelectDisable
                0x9d01a378       0x70 /opt/microchip/harmony/v1_03/bin/framework/peripheral/PIC32MZ1024ECG064_peripherals.a(peripheral.o)
                0x9d01a378                PLIB_SPI_SlaveSelectDisable

.text.PLIB_SPI_FIFOEnable
                0x9d01a3e8       0x70
 .text.PLIB_SPI_FIFOEnable
                0x9d01a3e8       0x70 /opt/microchip/harmony/v1_03/bin/framework/peripheral/PIC32MZ1024ECG064_peripherals.a(peripheral.o)
                0x9d01a3e8                PLIB_SPI_FIFOEnable

.text.PLIB_SPI_FramedCommunicationDisable
                0x9d01a458       0x70
 .text.PLIB_SPI_FramedCommunicationDisable
                0x9d01a458       0x70 /opt/microchip/harmony/v1_03/bin/framework/peripheral/PIC32MZ1024ECG064_peripherals.a(peripheral.o)
                0x9d01a458                PLIB_SPI_FramedCommunicationDisable

.text.PLIB_SPI_AudioProtocolDisable
                0x9d01a4c8       0x70
 .text.PLIB_SPI_AudioProtocolDisable
                0x9d01a4c8       0x70 /opt/microchip/harmony/v1_03/bin/framework/peripheral/PIC32MZ1024ECG064_peripherals.a(peripheral.o)
                0x9d01a4c8                PLIB_SPI_AudioProtocolDisable

.text.batteryCharge
                0x9d01a538       0x6c
 .text.batteryCharge
                0x9d01a538       0x6c build/pic32mz1024ecg064/production/_ext/1360937237/battery.o
                0x9d01a538                batteryCharge

.text.resumeTimers
                0x9d01a5a4       0x6c
 .text.resumeTimers
                0x9d01a5a4       0x6c build/pic32mz1024ecg064/production/_ext/1360937237/timer.o
                0x9d01a5a4                resumeTimers

.text.setGoalPolyBezierAligned
                0x9d01a610       0x6c
 .text.setGoalPolyBezierAligned
                0x9d01a610       0x6c build/pic32mz1024ecg064/production/_ext/1360937237/motion.o
                0x9d01a610                setGoalPolyBezierAligned

.text.PLIB_I2C_StartWasDetected
                0x9d01a67c       0x6c
 .text.PLIB_I2C_StartWasDetected
                0x9d01a67c       0x6c /opt/microchip/harmony/v1_03/bin/framework/peripheral/PIC32MZ1024ECG064_peripherals.a(peripheral.o)
                0x9d01a67c                PLIB_I2C_StartWasDetected

.text.PLIB_I2C_StopWasDetected
                0x9d01a6e8       0x6c
 .text.PLIB_I2C_StopWasDetected
                0x9d01a6e8       0x6c /opt/microchip/harmony/v1_03/bin/framework/peripheral/PIC32MZ1024ECG064_peripherals.a(peripheral.o)
                0x9d01a6e8                PLIB_I2C_StopWasDetected

.text.PLIB_I2C_ArbitrationLossHasOccurred
                0x9d01a754       0x6c
 .text.PLIB_I2C_ArbitrationLossHasOccurred
                0x9d01a754       0x6c /opt/microchip/harmony/v1_03/bin/framework/peripheral/PIC32MZ1024ECG064_peripherals.a(peripheral.o)
                0x9d01a754                PLIB_I2C_ArbitrationLossHasOccurred

.text.PLIB_I2C_TransmitterIsBusy
                0x9d01a7c0       0x6c
 .text.PLIB_I2C_TransmitterIsBusy
                0x9d01a7c0       0x6c /opt/microchip/harmony/v1_03/bin/framework/peripheral/PIC32MZ1024ECG064_peripherals.a(peripheral.o)
                0x9d01a7c0                PLIB_I2C_TransmitterIsBusy

.text.PLIB_I2C_TransmitterOverflowHasOccurred
                0x9d01a82c       0x6c
 .text.PLIB_I2C_TransmitterOverflowHasOccurred
                0x9d01a82c       0x6c /opt/microchip/harmony/v1_03/bin/framework/peripheral/PIC32MZ1024ECG064_peripherals.a(peripheral.o)
                0x9d01a82c                PLIB_I2C_TransmitterOverflowHasOccurred

.text.PLIB_I2C_ReceivedByteGet
                0x9d01a898       0x6c
 .text.PLIB_I2C_ReceivedByteGet
                0x9d01a898       0x6c /opt/microchip/harmony/v1_03/bin/framework/peripheral/PIC32MZ1024ECG064_peripherals.a(peripheral.o)
                0x9d01a898                PLIB_I2C_ReceivedByteGet

.text.PLIB_I2C_ReceiverOverflowHasOccurred
                0x9d01a904       0x6c
 .text.PLIB_I2C_ReceiverOverflowHasOccurred
                0x9d01a904       0x6c /opt/microchip/harmony/v1_03/bin/framework/peripheral/PIC32MZ1024ECG064_peripherals.a(peripheral.o)
                0x9d01a904                PLIB_I2C_ReceiverOverflowHasOccurred

.text.intListCopy
                0x9d01a970       0x68
 .text.intListCopy
                0x9d01a970       0x68 build/pic32mz1024ecg064/production/_ext/115108523/gridprobability.o

.text.MT9V034OutputEnable
                0x9d01a9d8       0x68
 .text.MT9V034OutputEnable
                0x9d01a9d8       0x68 build/pic32mz1024ecg064/production/_ext/1360937237/mt9v034.o
                0x9d01a9d8                MT9V034OutputEnable

.text.resumeCam
                0x9d01aa40       0x68
 .text.resumeCam
                0x9d01aa40       0x68 build/pic32mz1024ecg064/production/_ext/1360937237/cam.o
                0x9d01aa40                resumeCam

.text.APP_BT_Initialize
                0x9d01aaa8       0x68
 .text.APP_BT_Initialize
                0x9d01aaa8       0x68 build/pic32mz1024ecg064/production/_ext/1360937237/bluetooth.o
                0x9d01aaa8                APP_BT_Initialize

.text.suspendTouchForSleep
                0x9d01ab10       0x68
 .text.suspendTouchForSleep
                0x9d01ab10       0x68 build/pic32mz1024ecg064/production/_ext/1360937237/touch.o
                0x9d01ab10                suspendTouchForSleep

.text.initTimer2
                0x9d01ab78       0x68
 .text.initTimer2
                0x9d01ab78       0x68 build/pic32mz1024ecg064/production/_ext/1360937237/motor.o
                0x9d01ab78                initTimer2

.text.zeroMeasuredVelocities
                0x9d01abe0       0x68
 .text.zeroMeasuredVelocities
                0x9d01abe0       0x68 build/pic32mz1024ecg064/production/_ext/1360937237/motion.o
                0x9d01abe0                zeroMeasuredVelocities

.text.SYS_INT_ExternalInterruptTriggerSet
                0x9d01ac48       0x68
 .text.SYS_INT_ExternalInterruptTriggerSet
                0x9d01ac48       0x68 build/pic32mz1024ecg064/production/_ext/754521456/sys_int_pic32.o
                0x9d01ac48                SYS_INT_ExternalInterruptTriggerSet

.text.PLIB_I2C_TransmitterByteSend
                0x9d01acb0       0x68
 .text.PLIB_I2C_TransmitterByteSend
                0x9d01acb0       0x68 /opt/microchip/harmony/v1_03/bin/framework/peripheral/PIC32MZ1024ECG064_peripherals.a(peripheral.o)
                0x9d01acb0                PLIB_I2C_TransmitterByteSend

.text.DRV_I2C0_SetUpByteRead
                0x9d01ad18       0x64
 .text.DRV_I2C0_SetUpByteRead
                0x9d01ad18       0x64 build/pic32mz1024ecg064/production/_ext/63677053/drv_i2c_static.o
                0x9d01ad18                DRV_I2C0_SetUpByteRead

.text.latchLEDData
                0x9d01ad7c       0x64
 .text.latchLEDData
                0x9d01ad7c       0x64 build/pic32mz1024ecg064/production/_ext/1360937237/led.o
                0x9d01ad7c                latchLEDData

.text.sendUInt16
                0x9d01ade0       0x64
 .text.sendUInt16
                0x9d01ade0       0x64 build/pic32mz1024ecg064/production/_ext/1360937237/bluetooth.o
                0x9d01ade0                sendUInt16

.text.sleep     0x9d01ae44       0x64
 .text.sleep    0x9d01ae44       0x64 build/pic32mz1024ecg064/production/_ext/1360937237/power.o
                0x9d01ae44                sleep

.text.enableIdleExitTouch
                0x9d01aea8       0x64
 .text.enableIdleExitTouch
                0x9d01aea8       0x64 build/pic32mz1024ecg064/production/_ext/1360937237/power.o
                0x9d01aea8                enableIdleExitTouch

.text.setGoalPose
                0x9d01af0c       0x64
 .text.setGoalPose
                0x9d01af0c       0x64 build/pic32mz1024ecg064/production/_ext/1360937237/motion.o
                0x9d01af0c                setGoalPose

.text.sendPacketStart
                0x9d01af70       0x60
 .text.sendPacketStart
                0x9d01af70       0x60 build/pic32mz1024ecg064/production/_ext/1360937237/bluetooth.o
                0x9d01af70                sendPacketStart

.text.idle      0x9d01afd0       0x60
 .text.idle     0x9d01afd0       0x60 build/pic32mz1024ecg064/production/_ext/1360937237/power.o
                0x9d01afd0                idle

.text.setGoalPolyBezier
                0x9d01b030       0x60
 .text.setGoalPolyBezier
                0x9d01b030       0x60 build/pic32mz1024ecg064/production/_ext/1360937237/motion.o
                0x9d01b030                setGoalPolyBezier

.text.PLIB_PORTS_ChannelModeSelect
                0x9d01b090       0x60
 .text.PLIB_PORTS_ChannelModeSelect
                0x9d01b090       0x60 /opt/microchip/harmony/v1_03/bin/framework/peripheral/PIC32MZ1024ECG064_peripherals.a(peripheral.o)
                0x9d01b090                PLIB_PORTS_ChannelModeSelect

.text.sitofp    0x9d01b0f0       0x60
 .text.sitofp   0x9d01b0f0       0x60 /opt/microchip/xc32/v1.34/bin/bin/../../lib/gcc/pic32mx/4.5.2/../../../../pic32mx/lib/libm.a(sitofp.o)
                0x9d01b0f0                __floatsisf
                0x9d01b0f0                sitofp
                0x9d01b0f0                litofp

.text.intGridFindBest8x8
                0x9d01b150       0x5c
 .text.intGridFindBest8x8
                0x9d01b150       0x5c build/pic32mz1024ecg064/production/_ext/115108523/intgrid.o
                0x9d01b150                intGridFindBest8x8

.text.setExposureTime
                0x9d01b1ac       0x5c
 .text.setExposureTime
                0x9d01b1ac       0x5c build/pic32mz1024ecg064/production/_ext/1360937237/cam.o
                0x9d01b1ac                setExposureTime

.text.stayAsleepBattery
                0x9d01b208       0x5c
 .text.stayAsleepBattery
                0x9d01b208       0x5c build/pic32mz1024ecg064/production/_ext/1360937237/battery.o
                0x9d01b208                stayAsleepBattery

.text.setGoalXThetaCoordinate
                0x9d01b264       0x5c
 .text.setGoalXThetaCoordinate
                0x9d01b264       0x5c build/pic32mz1024ecg064/production/_ext/1360937237/motion.o
                0x9d01b264                setGoalXThetaCoordinate

.text.setGoalYThetaCoordinate
                0x9d01b2c0       0x5c
 .text.setGoalYThetaCoordinate
                0x9d01b2c0       0x5c build/pic32mz1024ecg064/production/_ext/1360937237/motion.o
                0x9d01b2c0                setGoalYThetaCoordinate

.text.dotsGetAngle
                0x9d01b31c       0x58
 .text.dotsGetAngle
                0x9d01b31c       0x58 build/pic32mz1024ecg064/production/_ext/115108523/dots_localization.o
                0x9d01b31c                dotsGetAngle

.rodata         0x9d01b374       0x58
 .rodata        0x9d01b374       0x58 build/pic32mz1024ecg064/production/_ext/1360937237/motion.o
                0x9d01b374                pPoseXY
                0x9d01b378                pPoseTheta
                0x9d01b37c                pPoseThetaGoalless
                0x9d01b380                marginXY
                0x9d01b384                marginTheta
                0x9d01b388                motorOutputMax
                0x9d01b38a                motorOutputMin

.text.setGoalPosition
                0x9d01b3cc       0x58
 .text.setGoalPosition
                0x9d01b3cc       0x58 build/pic32mz1024ecg064/production/_ext/1360937237/motion.o
                0x9d01b3cc                setGoalPosition

.text.zeroMotorOutputs
                0x9d01b424       0x58
 .text.zeroMotorOutputs
                0x9d01b424       0x58 build/pic32mz1024ecg064/production/_ext/1360937237/motion.o
                0x9d01b424                zeroMotorOutputs

.text.intGridMaximum
                0x9d01b47c       0x54
 .text.intGridMaximum
                0x9d01b47c       0x54 build/pic32mz1024ecg064/production/_ext/115108523/intgrid.o
                0x9d01b47c                intGridMaximum

.text.APP_Battery_Initialize
                0x9d01b4d0       0x54
 .text.APP_Battery_Initialize
                0x9d01b4d0       0x54 build/pic32mz1024ecg064/production/_ext/1360937237/battery.o
                0x9d01b4d0                APP_Battery_Initialize

.text.softwareReset
                0x9d01b524       0x54
 .text.softwareReset
                0x9d01b524       0x54 build/pic32mz1024ecg064/production/_ext/1360937237/power.o
                0x9d01b524                softwareReset

.text.disableIdleExitInterrupts
                0x9d01b578       0x54
 .text.disableIdleExitInterrupts
                0x9d01b578       0x54 build/pic32mz1024ecg064/production/_ext/1360937237/power.o
                0x9d01b578                disableIdleExitInterrupts

.text.SYS_INT_SourceDisable
                0x9d01b5cc       0x54
 .text.SYS_INT_SourceDisable
                0x9d01b5cc       0x54 build/pic32mz1024ecg064/production/_ext/754521456/sys_int_pic32.o
                0x9d01b5cc                SYS_INT_SourceDisable

.text.unloadUInt8
                0x9d01b620       0x50
 .text.unloadUInt8
                0x9d01b620       0x50 build/pic32mz1024ecg064/production/_ext/1360937237/bluetooth.o
                0x9d01b620                unloadUInt8

.text.PLIB_INT_VectorPrioritySet
                0x9d01b670       0x50
 .text.PLIB_INT_VectorPrioritySet
                0x9d01b670       0x50 /opt/microchip/harmony/v1_03/bin/framework/peripheral/PIC32MZ1024ECG064_peripherals.a(peripheral.o)
                0x9d01b670                PLIB_INT_VectorPrioritySet

.text.sqrtf     0x9d01b6c0       0x50
 .text.sqrtf    0x9d01b6c0       0x50 /opt/microchip/xc32/v1.34/bin/bin/../../lib/gcc/pic32mx/4.5.2/../../../../pic32mx/lib/libm.a(w_sqrtf.o)
                0x9d01b6c0                sqrtf

.text.main_entry
                0x9d01b710       0x4c
 .text.main_entry
                0x9d01b710       0x4c /opt/microchip/xc32/v1.34/bin/bin/../../lib/gcc/pic32mx/4.5.2/../../../../pic32mx/lib/./proc/32MZ1024ECG064/crt0_mips32r2.o
                0x9d01b73c                __crt0_exit

.text.intListMedian
                0x9d01b75c       0x4c
 .text.intListMedian
                0x9d01b75c       0x4c build/pic32mz1024ecg064/production/_ext/115108523/intlist.o
                0x9d01b75c                intListMedian

.text.DRV_I2C0_WriteByteAcknowledged
                0x9d01b7a8       0x4c
 .text.DRV_I2C0_WriteByteAcknowledged
                0x9d01b7a8       0x4c build/pic32mz1024ecg064/production/_ext/63677053/drv_i2c_static.o
                0x9d01b7a8                DRV_I2C0_WriteByteAcknowledged

.text.DRV_I2C0_MasterBusIdle
                0x9d01b7f4       0x4c
 .text.DRV_I2C0_MasterBusIdle
                0x9d01b7f4       0x4c build/pic32mz1024ecg064/production/_ext/63677053/drv_i2c_static.o
                0x9d01b7f4                DRV_I2C0_MasterBusIdle

.text.DRV_I2C0_MasterACKSend
                0x9d01b840       0x4c
 .text.DRV_I2C0_MasterACKSend
                0x9d01b840       0x4c build/pic32mz1024ecg064/production/_ext/63677053/drv_i2c_static.o
                0x9d01b840                DRV_I2C0_MasterACKSend

.text.DRV_I2C0_MasterNACKSend
                0x9d01b88c       0x4c
 .text.DRV_I2C0_MasterNACKSend
                0x9d01b88c       0x4c build/pic32mz1024ecg064/production/_ext/63677053/drv_i2c_static.o
                0x9d01b88c                DRV_I2C0_MasterNACKSend

.text.resumeBluetooth
                0x9d01b8d8       0x4c
 .text.resumeBluetooth
                0x9d01b8d8       0x4c build/pic32mz1024ecg064/production/_ext/1360937237/bluetooth.o
                0x9d01b8d8                resumeBluetooth

.text.bluetoothSendCharWaitForever
                0x9d01b924       0x4c
 .text.bluetoothSendCharWaitForever
                0x9d01b924       0x4c build/pic32mz1024ecg064/production/_ext/1360937237/bluetooth.o
                0x9d01b924                bluetoothSendCharWaitForever

.text.sendUInt8
                0x9d01b970       0x4c
 .text.sendUInt8
                0x9d01b970       0x4c build/pic32mz1024ecg064/production/_ext/1360937237/bluetooth.o
                0x9d01b970                sendUInt8

.text.bluetoothEventBatteryStateChanged
                0x9d01b9bc       0x4c
 .text.bluetoothEventBatteryStateChanged
                0x9d01b9bc       0x4c build/pic32mz1024ecg064/production/_ext/1360937237/bluetooth.o
                0x9d01b9bc                bluetoothEventBatteryStateChanged

.text.bluetoothEventGestureChanged
                0x9d01ba08       0x4c
 .text.bluetoothEventGestureChanged
                0x9d01ba08       0x4c build/pic32mz1024ecg064/production/_ext/1360937237/bluetooth.o
                0x9d01ba08                bluetoothEventGestureChanged

.text.bluetoothEventKidnapChanged
                0x9d01ba54       0x4c
 .text.bluetoothEventKidnapChanged
                0x9d01ba54       0x4c build/pic32mz1024ecg064/production/_ext/1360937237/bluetooth.o
                0x9d01ba54                bluetoothEventKidnapChanged

.text.setGoalXCoordinate
                0x9d01baa0       0x4c
 .text.setGoalXCoordinate
                0x9d01baa0       0x4c build/pic32mz1024ecg064/production/_ext/1360937237/motion.o
                0x9d01baa0                setGoalXCoordinate

.text.setGoalYCoordinate
                0x9d01baec       0x4c
 .text.setGoalYCoordinate
                0x9d01baec       0x4c build/pic32mz1024ecg064/production/_ext/1360937237/motion.o
                0x9d01baec                setGoalYCoordinate

.text.setGoalOrientation
                0x9d01bb38       0x4c
 .text.setGoalOrientation
                0x9d01bb38       0x4c build/pic32mz1024ecg064/production/_ext/1360937237/motion.o
                0x9d01bb38                setGoalOrientation

.text.setGoalVelocity
                0x9d01bb84       0x4c
 .text.setGoalVelocity
                0x9d01bb84       0x4c build/pic32mz1024ecg064/production/_ext/1360937237/motion.o
                0x9d01bb84                setGoalVelocity

.text.vibrateOnMotion
                0x9d01bbd0       0x4c
 .text.vibrateOnMotion
                0x9d01bbd0       0x4c build/pic32mz1024ecg064/production/_ext/1360937237/haptics.o
                0x9d01bbd0                vibrateOnMotion

.rodata         0x9d01bc1c       0x4c
 .rodata        0x9d01bc1c       0x4c build/pic32mz1024ecg064/production/_ext/1360937237/haptics.o

.text.PLIB_INT_VectorSubPrioritySet
                0x9d01bc68       0x4c
 .text.PLIB_INT_VectorSubPrioritySet
                0x9d01bc68       0x4c /opt/microchip/harmony/v1_03/bin/framework/peripheral/PIC32MZ1024ECG064_peripherals.a(peripheral.o)
                0x9d01bc68                PLIB_INT_VectorSubPrioritySet

.text           0x9d01bcb4       0x4c
 .text          0x9d01bcb4       0x4c /opt/microchip/xc32/v1.34/bin/bin/../../lib/gcc/pic32mx/4.5.2/libgcc.a(floatunsisf.o)
                0x9d01bcb4                __floatunsisf

.text.suspendBluetooth
                0x9d01bd00       0x48
 .text.suspendBluetooth
                0x9d01bd00       0x48 build/pic32mz1024ecg064/production/_ext/1360937237/bluetooth.o
                0x9d01bd00                suspendBluetooth

.text._bootstrap_exception_handler
                0x9d01bd48       0x48
 .text._bootstrap_exception_handler
                0x9d01bd48       0x48 /opt/microchip/xc32/v1.34/bin/bin/../../lib/gcc/pic32mx/4.5.2/../../../../pic32mx/lib/libpic32.a(default-bootstrap-exception-handler.o)
                0x9d01bd48                _bootstrap_exception_handler

.text.offsetProbability
                0x9d01bd90       0x44
 .text.offsetProbability
                0x9d01bd90       0x44 build/pic32mz1024ecg064/production/_ext/115108523/gridprobability.o
                0x9d01bd90                offsetProbability

.text.stayIdleBattery
                0x9d01bdd4       0x44
 .text.stayIdleBattery
                0x9d01bdd4       0x44 build/pic32mz1024ecg064/production/_ext/1360937237/battery.o
                0x9d01bdd4                stayIdleBattery

.text.watchdogEnable
                0x9d01be18       0x44
 .text.watchdogEnable
                0x9d01be18       0x44 build/pic32mz1024ecg064/production/_ext/1360937237/watchdog.o
                0x9d01be18                watchdogEnable

.text.PLIB_DMA_ChannelXStartIRQSet
                0x9d01be5c       0x44
 .text.PLIB_DMA_ChannelXStartIRQSet
                0x9d01be5c       0x44 /opt/microchip/harmony/v1_03/bin/framework/peripheral/PIC32MZ1024ECG064_peripherals.a(peripheral.o)
                0x9d01be5c                PLIB_DMA_ChannelXStartIRQSet

.text           0x9d01bea0       0x44
 .text          0x9d01bea0       0x44 /opt/microchip/xc32/v1.34/bin/bin/../../lib/gcc/pic32mx/4.5.2/../../../../pic32mx/lib/pic32_software_reset.o
                0x9d01bea0                __pic32_software_reset

.text.gridOffsetsInfoInitialize
                0x9d01bee4       0x40
 .text.gridOffsetsInfoInitialize
                0x9d01bee4       0x40 build/pic32mz1024ecg064/production/_ext/115108523/gridprobability.o
                0x9d01bee4                gridOffsetsInfoInitialize

.text.loadLatchTimer
                0x9d01bf24       0x40
 .text.loadLatchTimer
                0x9d01bf24       0x40 build/pic32mz1024ecg064/production/_ext/1360937237/led.o
                0x9d01bf24                loadLatchTimer

.text.waitForeverForTransmitterAvailable
                0x9d01bf64       0x40
 .text.waitForeverForTransmitterAvailable
                0x9d01bf64       0x40 build/pic32mz1024ecg064/production/_ext/1360937237/bluetooth.o
                0x9d01bf64                waitForeverForTransmitterAvailable

.text.clearTracking
                0x9d01bfa4       0x40
 .text.clearTracking
                0x9d01bfa4       0x40 build/pic32mz1024ecg064/production/_ext/1360937237/motion.o
                0x9d01bfa4                clearTracking

.text.casualBackdriveAssistEnable
                0x9d01bfe4       0x40
 .text.casualBackdriveAssistEnable
                0x9d01bfe4       0x40 build/pic32mz1024ecg064/production/_ext/1360937237/haptics.o
                0x9d01bfe4                casualBackdriveAssistEnable

.text.PLIB_PORTS_PinGet
                0x9d01c024       0x40
 .text.PLIB_PORTS_PinGet
                0x9d01c024       0x40 /opt/microchip/harmony/v1_03/bin/framework/peripheral/PIC32MZ1024ECG064_peripherals.a(peripheral.o)
                0x9d01c024                PLIB_PORTS_PinGet

.text.intGridFill
                0x9d01c064       0x3c
 .text.intGridFill
                0x9d01c064       0x3c build/pic32mz1024ecg064/production/_ext/115108523/intgrid.o
                0x9d01c064                intGridFill

.text.clearReceive
                0x9d01c0a0       0x3c
 .text.clearReceive
                0x9d01c0a0       0x3c build/pic32mz1024ecg064/production/_ext/1360937237/bluetooth.o
                0x9d01c0a0                clearReceive

.text.SYS_DEVCON_Initialize
                0x9d01c0dc       0x3c
 .text.SYS_DEVCON_Initialize
                0x9d01c0dc       0x3c build/pic32mz1024ecg064/production/_ext/431183094/sys_devcon.o
                0x9d01c0dc                SYS_DEVCON_Initialize

.text.PLIB_DMA_ChannelXPrioritySelect
                0x9d01c118       0x3c
 .text.PLIB_DMA_ChannelXPrioritySelect
                0x9d01c118       0x3c /opt/microchip/harmony/v1_03/bin/framework/peripheral/PIC32MZ1024ECG064_peripherals.a(peripheral.o)
                0x9d01c118                PLIB_DMA_ChannelXPrioritySelect

.text.intGridIndToSub
                0x9d01c154       0x38
 .text.intGridIndToSub
                0x9d01c154       0x38 build/pic32mz1024ecg064/production/_ext/115108523/intgrid.o
                0x9d01c154                intGridIndToSub

.text.SYS_Tasks
                0x9d01c18c       0x38
 .text.SYS_Tasks
                0x9d01c18c       0x38 build/pic32mz1024ecg064/production/_ext/1055008133/system_tasks.o
                0x9d01c18c                SYS_Tasks

.text.APP_Motor_Initialize
                0x9d01c1c4       0x38
 .text.APP_Motor_Initialize
                0x9d01c1c4       0x38 build/pic32mz1024ecg064/production/_ext/1360937237/motor.o
                0x9d01c1c4                APP_Motor_Initialize

.text.PLIB_INT_SourceIsEnabled
                0x9d01c1fc       0x38
 .text.PLIB_INT_SourceIsEnabled
                0x9d01c1fc       0x38 /opt/microchip/harmony/v1_03/bin/framework/peripheral/PIC32MZ1024ECG064_peripherals.a(peripheral.o)
                0x9d01c1fc                PLIB_INT_SourceIsEnabled

.text.PLIB_PORTS_RemapOutput
                0x9d01c234       0x38
 .text.PLIB_PORTS_RemapOutput
                0x9d01c234       0x38 /opt/microchip/harmony/v1_03/bin/framework/peripheral/PIC32MZ1024ECG064_peripherals.a(peripheral.o)
                0x9d01c234                PLIB_PORTS_RemapOutput

.text.PLIB_PORTS_PinSet
                0x9d01c26c       0x38
 .text.PLIB_PORTS_PinSet
                0x9d01c26c       0x38 /opt/microchip/harmony/v1_03/bin/framework/peripheral/PIC32MZ1024ECG064_peripherals.a(peripheral.o)
                0x9d01c26c                PLIB_PORTS_PinSet

.text.PLIB_PORTS_PinClear
                0x9d01c2a4       0x38
 .text.PLIB_PORTS_PinClear
                0x9d01c2a4       0x38 /opt/microchip/harmony/v1_03/bin/framework/peripheral/PIC32MZ1024ECG064_peripherals.a(peripheral.o)
                0x9d01c2a4                PLIB_PORTS_PinClear

.text.rotationDecoderDiminish
                0x9d01c2dc       0x34
 .text.rotationDecoderDiminish
                0x9d01c2dc       0x34 build/pic32mz1024ecg064/production/_ext/115108523/decoder.o
                0x9d01c2dc                rotationDecoderDiminish

.text.imgSegmentAdd
                0x9d01c310       0x34
 .text.imgSegmentAdd
                0x9d01c310       0x34 build/pic32mz1024ecg064/production/_ext/115108523/imgsegment.o
                0x9d01c310                imgSegmentAdd

.text.DRV_I2C0_DeInitialize
                0x9d01c344       0x34
 .text.DRV_I2C0_DeInitialize
                0x9d01c344       0x34 build/pic32mz1024ecg064/production/_ext/63677053/drv_i2c_static.o
                0x9d01c344                DRV_I2C0_DeInitialize

.text.DRV_I2C0_ByteRead
                0x9d01c378       0x34
 .text.DRV_I2C0_ByteRead
                0x9d01c378       0x34 build/pic32mz1024ecg064/production/_ext/63677053/drv_i2c_static.o
                0x9d01c378                DRV_I2C0_ByteRead

.text.suspendCam
                0x9d01c3ac       0x34
 .text.suspendCam
                0x9d01c3ac       0x34 build/pic32mz1024ecg064/production/_ext/1360937237/cam.o
                0x9d01c3ac                suspendCam

.text.bluetoothEventBootComplete
                0x9d01c3e0       0x34
 .text.bluetoothEventBootComplete
                0x9d01c3e0       0x34 build/pic32mz1024ecg064/production/_ext/1360937237/bluetooth.o
                0x9d01c3e0                bluetoothEventBootComplete

.text.bluetoothEventLowBattery
                0x9d01c414       0x34
 .text.bluetoothEventLowBattery
                0x9d01c414       0x34 build/pic32mz1024ecg064/production/_ext/1360937237/bluetooth.o
                0x9d01c414                bluetoothEventLowBattery

.text.bluetoothEventTrackingGoalReached
                0x9d01c448       0x34
 .text.bluetoothEventTrackingGoalReached
                0x9d01c448       0x34 build/pic32mz1024ecg064/production/_ext/1360937237/bluetooth.o
                0x9d01c448                bluetoothEventTrackingGoalReached

.text.bluetoothEventAcknowledged
                0x9d01c47c       0x34
 .text.bluetoothEventAcknowledged
                0x9d01c47c       0x34 build/pic32mz1024ecg064/production/_ext/1360937237/bluetooth.o
                0x9d01c47c                bluetoothEventAcknowledged

.text.SYS_INT_Initialize
                0x9d01c4b0       0x34
 .text.SYS_INT_Initialize
                0x9d01c4b0       0x34 build/pic32mz1024ecg064/production/_ext/754521456/sys_int_pic32.o
                0x9d01c4b0                SYS_INT_Initialize

.text.PLIB_OSC_FRCDivisorSelect
                0x9d01c4e4       0x34
 .text.PLIB_OSC_FRCDivisorSelect
                0x9d01c4e4       0x34 /opt/microchip/harmony/v1_03/bin/framework/peripheral/PIC32MZ1024ECG064_peripherals.a(peripheral.o)
                0x9d01c4e4                PLIB_OSC_FRCDivisorSelect

.text.PLIB_PORTS_RemapInput
                0x9d01c518       0x34
 .text.PLIB_PORTS_RemapInput
                0x9d01c518       0x34 /opt/microchip/harmony/v1_03/bin/framework/peripheral/PIC32MZ1024ECG064_peripherals.a(peripheral.o)
                0x9d01c518                PLIB_PORTS_RemapInput

.text.PLIB_PORTS_Toggle
                0x9d01c54c       0x34
 .text.PLIB_PORTS_Toggle
                0x9d01c54c       0x34 /opt/microchip/harmony/v1_03/bin/framework/peripheral/PIC32MZ1024ECG064_peripherals.a(peripheral.o)
                0x9d01c54c                PLIB_PORTS_Toggle

.text.PLIB_PORTS_DirectionOutputSet
                0x9d01c580       0x34
 .text.PLIB_PORTS_DirectionOutputSet
                0x9d01c580       0x34 /opt/microchip/harmony/v1_03/bin/framework/peripheral/PIC32MZ1024ECG064_peripherals.a(peripheral.o)
                0x9d01c580                PLIB_PORTS_DirectionOutputSet

.text.PLIB_PORTS_OpenDrainEnable
                0x9d01c5b4       0x34
 .text.PLIB_PORTS_OpenDrainEnable
                0x9d01c5b4       0x34 /opt/microchip/harmony/v1_03/bin/framework/peripheral/PIC32MZ1024ECG064_peripherals.a(peripheral.o)
                0x9d01c5b4                PLIB_PORTS_OpenDrainEnable

.text.PLIB_PORTS_ChannelChangeNoticePullDownEnable
                0x9d01c5e8       0x34
 .text.PLIB_PORTS_ChannelChangeNoticePullDownEnable
                0x9d01c5e8       0x34 /opt/microchip/harmony/v1_03/bin/framework/peripheral/PIC32MZ1024ECG064_peripherals.a(peripheral.o)
                0x9d01c5e8                PLIB_PORTS_ChannelChangeNoticePullDownEnable

.text.PLIB_PORTS_ChannelChangeNoticePullUpEnable
                0x9d01c61c       0x34
 .text.PLIB_PORTS_ChannelChangeNoticePullUpEnable
                0x9d01c61c       0x34 /opt/microchip/harmony/v1_03/bin/framework/peripheral/PIC32MZ1024ECG064_peripherals.a(peripheral.o)
                0x9d01c61c                PLIB_PORTS_ChannelChangeNoticePullUpEnable

.text.PLIB_PORTS_ChannelChangeNoticeEnable
                0x9d01c650       0x34
 .text.PLIB_PORTS_ChannelChangeNoticeEnable
                0x9d01c650       0x34 /opt/microchip/harmony/v1_03/bin/framework/peripheral/PIC32MZ1024ECG064_peripherals.a(peripheral.o)
                0x9d01c650                PLIB_PORTS_ChannelChangeNoticeEnable

.text.PLIB_PORTS_ChangeNoticePerPortTurnOn
                0x9d01c684       0x34
 .text.PLIB_PORTS_ChangeNoticePerPortTurnOn
                0x9d01c684       0x34 /opt/microchip/harmony/v1_03/bin/framework/peripheral/PIC32MZ1024ECG064_peripherals.a(peripheral.o)
                0x9d01c684                PLIB_PORTS_ChangeNoticePerPortTurnOn

.text.suspendLEDsSleep
                0x9d01c6b8       0x30
 .text.suspendLEDsSleep
                0x9d01c6b8       0x30 build/pic32mz1024ecg064/production/_ext/1360937237/led.o
                0x9d01c6b8                suspendLEDsSleep

.text.APP_Timer_Initialize
                0x9d01c6e8       0x30
 .text.APP_Timer_Initialize
                0x9d01c6e8       0x30 build/pic32mz1024ecg064/production/_ext/1360937237/timer.o
                0x9d01c6e8                APP_Timer_Initialize

.text.suspendTimers
                0x9d01c718       0x30
 .text.suspendTimers
                0x9d01c718       0x30 build/pic32mz1024ecg064/production/_ext/1360937237/timer.o
                0x9d01c718                suspendTimers

.text.watchdogDisable
                0x9d01c748       0x30
 .text.watchdogDisable
                0x9d01c748       0x30 build/pic32mz1024ecg064/production/_ext/1360937237/watchdog.o
                0x9d01c748                watchdogDisable

.text.APP_Watchdog_Initialize
                0x9d01c778       0x30
 .text.APP_Watchdog_Initialize
                0x9d01c778       0x30 build/pic32mz1024ecg064/production/_ext/1360937237/watchdog.o
                0x9d01c778                APP_Watchdog_Initialize

.text.APP_Watchdog_Tasks
                0x9d01c7a8       0x30
 .text.APP_Watchdog_Tasks
                0x9d01c7a8       0x30 build/pic32mz1024ecg064/production/_ext/1360937237/watchdog.o
                0x9d01c7a8                APP_Watchdog_Tasks

.text.stayIdleCV
                0x9d01c7d8       0x30
 .text.stayIdleCV
                0x9d01c7d8       0x30 build/pic32mz1024ecg064/production/_ext/1360937237/localization.o
                0x9d01c7d8                stayIdleCV

.text.PLIB_DMA_ChannelXSourceSizeSet
                0x9d01c808       0x30
 .text.PLIB_DMA_ChannelXSourceSizeSet
                0x9d01c808       0x30 /opt/microchip/harmony/v1_03/bin/framework/peripheral/PIC32MZ1024ECG064_peripherals.a(peripheral.o)
                0x9d01c808                PLIB_DMA_ChannelXSourceSizeSet

.text.PLIB_DMA_ChannelXDestinationSizeSet
                0x9d01c838       0x30
 .text.PLIB_DMA_ChannelXDestinationSizeSet
                0x9d01c838       0x30 /opt/microchip/harmony/v1_03/bin/framework/peripheral/PIC32MZ1024ECG064_peripherals.a(peripheral.o)
                0x9d01c838                PLIB_DMA_ChannelXDestinationSizeSet

.text.PLIB_DMA_ChannelXCellSizeSet
                0x9d01c868       0x30
 .text.PLIB_DMA_ChannelXCellSizeSet
                0x9d01c868       0x30 /opt/microchip/harmony/v1_03/bin/framework/peripheral/PIC32MZ1024ECG064_peripherals.a(peripheral.o)
                0x9d01c868                PLIB_DMA_ChannelXCellSizeSet

.text.PLIB_INT_SourceFlagClear
                0x9d01c898       0x30
 .text.PLIB_INT_SourceFlagClear
                0x9d01c898       0x30 /opt/microchip/harmony/v1_03/bin/framework/peripheral/PIC32MZ1024ECG064_peripherals.a(peripheral.o)
                0x9d01c898                PLIB_INT_SourceFlagClear

.text.PLIB_INT_SourceEnable
                0x9d01c8c8       0x30
 .text.PLIB_INT_SourceEnable
                0x9d01c8c8       0x30 /opt/microchip/harmony/v1_03/bin/framework/peripheral/PIC32MZ1024ECG064_peripherals.a(peripheral.o)
                0x9d01c8c8                PLIB_INT_SourceEnable

.text.PLIB_INT_SourceDisable
                0x9d01c8f8       0x30
 .text.PLIB_INT_SourceDisable
                0x9d01c8f8       0x30 /opt/microchip/harmony/v1_03/bin/framework/peripheral/PIC32MZ1024ECG064_peripherals.a(peripheral.o)
                0x9d01c8f8                PLIB_INT_SourceDisable

.text.dotsIsAboveGround
                0x9d01c928       0x2c
 .text.dotsIsAboveGround
                0x9d01c928       0x2c build/pic32mz1024ecg064/production/_ext/115108523/dots_localization.o
                0x9d01c928                dotsIsAboveGround

.text._general_exception_handler
                0x9d01c954       0x2c
 .text._general_exception_handler
                0x9d01c954       0x2c build/pic32mz1024ecg064/production/_ext/1360937237/main.o
                0x9d01c954                _general_exception_handler

.text.setLEDResponseMode
                0x9d01c980       0x2c
 .text.setLEDResponseMode
                0x9d01c980       0x2c build/pic32mz1024ecg064/production/_ext/1360937237/led.o
                0x9d01c980                setLEDResponseMode

.text.requestLEDUpdate
                0x9d01c9ac       0x2c
 .text.requestLEDUpdate
                0x9d01c9ac       0x2c build/pic32mz1024ecg064/production/_ext/1360937237/led.o
                0x9d01c9ac                requestLEDUpdate

.text.watchdogKick
                0x9d01c9d8       0x2c
 .text.watchdogKick
                0x9d01c9d8       0x2c build/pic32mz1024ecg064/production/_ext/1360937237/watchdog.o
                0x9d01c9d8                watchdogKick

.text.setLocomotionInteractivityMode
                0x9d01ca04       0x2c
 .text.setLocomotionInteractivityMode
                0x9d01ca04       0x2c build/pic32mz1024ecg064/production/_ext/1360937237/motion.o
                0x9d01ca04                setLocomotionInteractivityMode

.text.PLIB_DEVCON_SystemUnlock
                0x9d01ca30       0x2c
 .text.PLIB_DEVCON_SystemUnlock
                0x9d01ca30       0x2c /opt/microchip/harmony/v1_03/bin/framework/peripheral/PIC32MZ1024ECG064_peripherals.a(peripheral.o)
                0x9d01ca30                PLIB_DEVCON_SystemUnlock

.text.PLIB_PCACHE_PrefetchEnableSet
                0x9d01ca5c       0x2c
 .text.PLIB_PCACHE_PrefetchEnableSet
                0x9d01ca5c       0x2c /opt/microchip/harmony/v1_03/bin/framework/peripheral/PIC32MZ1024ECG064_peripherals.a(peripheral.o)
                0x9d01ca5c                PLIB_PCACHE_PrefetchEnableSet

.text.intPointDiff
                0x9d01ca88       0x28
 .text.intPointDiff
                0x9d01ca88       0x28 build/pic32mz1024ecg064/production/_ext/115108523/imgproc.o

.text.imgSegmentAddPixel
                0x9d01cab0       0x28
 .text.imgSegmentAddPixel
                0x9d01cab0       0x28 build/pic32mz1024ecg064/production/_ext/115108523/imgsegment.o
                0x9d01cab0                imgSegmentAddPixel

.text.SYS_CLK_SystemFrequencyGet
                0x9d01cad8       0x28
 .text.SYS_CLK_SystemFrequencyGet
                0x9d01cad8       0x28 build/pic32mz1024ecg064/production/_ext/563981586/sys_clk_static.o
                0x9d01cad8                SYS_CLK_SystemFrequencyGet

.text.reportActivity
                0x9d01cb00       0x28
 .text.reportActivity
                0x9d01cb00       0x28 build/pic32mz1024ecg064/production/_ext/1360937237/timer.o
                0x9d01cb00                reportActivity

.text.requestSleep
                0x9d01cb28       0x28
 .text.requestSleep
                0x9d01cb28       0x28 build/pic32mz1024ecg064/production/_ext/1360937237/power.o
                0x9d01cb28                requestSleep

.text.clearHapticFeedback
                0x9d01cb50       0x28
 .text.clearHapticFeedback
                0x9d01cb50       0x28 build/pic32mz1024ecg064/production/_ext/1360937237/haptics.o
                0x9d01cb50                clearHapticFeedback

.text.PLIB_PCACHE_WaitStateSet
                0x9d01cb78       0x28
 .text.PLIB_PCACHE_WaitStateSet
                0x9d01cb78       0x28 /opt/microchip/harmony/v1_03/bin/framework/peripheral/PIC32MZ1024ECG064_peripherals.a(peripheral.o)
                0x9d01cb78                PLIB_PCACHE_WaitStateSet

.rodata         0x9d01cba0       0x28
 .rodata        0x9d01cba0       0x28 /opt/microchip/xc32/v1.34/bin/bin/../../lib/gcc/pic32mx/4.5.2/../../../../pic32mx/lib/libm.a(w_atan2f.o)

.text.APP_Localization_Initialize
                0x9d01cbc8       0x24
 .text.APP_Localization_Initialize
                0x9d01cbc8       0x24 build/pic32mz1024ecg064/production/_ext/1360937237/localization.o
                0x9d01cbc8                APP_Localization_Initialize

.text.SYS_DEVCON_Tasks
                0x9d01cbec       0x24
 .text.SYS_DEVCON_Tasks
                0x9d01cbec       0x24 build/pic32mz1024ecg064/production/_ext/431183094/sys_devcon.o
                0x9d01cbec                SYS_DEVCON_Tasks

.text.intListPush
                0x9d01cc10       0x20
 .text.intListPush
                0x9d01cc10       0x20 build/pic32mz1024ecg064/production/_ext/115108523/grid.o

.text._simple_tlb_refill_exception_handler
                0x9d01cc30       0x20
 .text._simple_tlb_refill_exception_handler
                0x9d01cc30       0x20 build/pic32mz1024ecg064/production/_ext/1360937237/main.o
                0x9d01cc30                _simple_tlb_refill_exception_handler

.text._cache_err_exception_handler
                0x9d01cc50       0x20
 .text._cache_err_exception_handler
                0x9d01cc50       0x20 build/pic32mz1024ecg064/production/_ext/1360937237/main.o
                0x9d01cc50                _cache_err_exception_handler

.text.APP_Timer_Tasks
                0x9d01cc70       0x20
 .text.APP_Timer_Tasks
                0x9d01cc70       0x20 build/pic32mz1024ecg064/production/_ext/1360937237/timer.o
                0x9d01cc70                APP_Timer_Tasks

.text.APP_Motor_Tasks
                0x9d01cc90       0x20
 .text.APP_Motor_Tasks
                0x9d01cc90       0x20 build/pic32mz1024ecg064/production/_ext/1360937237/motor.o
                0x9d01cc90                APP_Motor_Tasks

.text.APP_Motion_Initialize
                0x9d01ccb0       0x20
 .text.APP_Motion_Initialize
                0x9d01ccb0       0x20 build/pic32mz1024ecg064/production/_ext/1360937237/motion.o
                0x9d01ccb0                APP_Motion_Initialize

.text.APP_Gesture_Initialize
                0x9d01ccd0       0x20
 .text.APP_Gesture_Initialize
                0x9d01ccd0       0x20 build/pic32mz1024ecg064/production/_ext/1360937237/gesture.o
                0x9d01ccd0                APP_Gesture_Initialize

.rodata         0x9d01ccf0       0x20
 .rodata        0x9d01ccf0       0x20 build/pic32mz1024ecg064/production/_ext/1360937237/bezier.o

.text.PLIB_INT_Enable
                0x9d01cd10       0x20
 .text.PLIB_INT_Enable
                0x9d01cd10       0x20 /opt/microchip/harmony/v1_03/bin/framework/peripheral/PIC32MZ1024ECG064_peripherals.a(peripheral.o)
                0x9d01cd10                PLIB_INT_Enable

.text.intPointMul
                0x9d01cd30       0x38
 .text.intPointMul
                0x9d01cd30       0x1c build/pic32mz1024ecg064/production/_ext/115108523/decoder.o
 .text.intPointMul
                0x9d01cd4c       0x1c build/pic32mz1024ecg064/production/_ext/115108523/grid.o

.text.intPointAdd
                0x9d01cd68       0x1c
 .text.intPointAdd
                0x9d01cd68       0x1c build/pic32mz1024ecg064/production/_ext/115108523/gridprobability.o

.text.square    0x9d01cd84       0x1c
 .text.square   0x9d01cd84       0x1c build/pic32mz1024ecg064/production/_ext/1360937237/bezier.o
                0x9d01cd84                square

.text.PLIB_DEVCON_SystemLock
                0x9d01cda0       0x1c
 .text.PLIB_DEVCON_SystemLock
                0x9d01cda0       0x1c /opt/microchip/harmony/v1_03/bin/framework/peripheral/PIC32MZ1024ECG064_peripherals.a(peripheral.o)
                0x9d01cda0                PLIB_DEVCON_SystemLock

.text.PLIB_INT_IsEnabled
                0x9d01cdbc       0x1c
 .text.PLIB_INT_IsEnabled
                0x9d01cdbc       0x1c /opt/microchip/harmony/v1_03/bin/framework/peripheral/PIC32MZ1024ECG064_peripherals.a(peripheral.o)
                0x9d01cdbc                PLIB_INT_IsEnabled

.text.finitel   0x9d01cdd8       0x1c
 .text.finitel  0x9d01cdd8       0x1c /opt/microchip/xc32/v1.34/bin/bin/../../lib/gcc/pic32mx/4.5.2/../../../../pic32mx/lib/libm.a(support.o)
                0x9d01cdd8                finitel

.text.dotsGetIntX
                0x9d01cdf4       0x18
 .text.dotsGetIntX
                0x9d01cdf4       0x18 build/pic32mz1024ecg064/production/_ext/115108523/dots_localization.o
                0x9d01cdf4                dotsGetIntX

.text.dotsGetIntY
                0x9d01ce0c       0x18
 .text.dotsGetIntY
                0x9d01ce0c       0x18 build/pic32mz1024ecg064/production/_ext/115108523/dots_localization.o
                0x9d01ce0c                dotsGetIntY

.text.dotsGetError
                0x9d01ce24       0x18
 .text.dotsGetError
                0x9d01ce24       0x18 build/pic32mz1024ecg064/production/_ext/115108523/dots_localization.o
                0x9d01ce24                dotsGetError

.text.initAxes  0x9d01ce3c       0x18
 .text.initAxes
                0x9d01ce3c       0x18 build/pic32mz1024ecg064/production/_ext/115108523/grid.o
                0x9d01ce3c                initAxes

.text.intGridCreateEmpty
                0x9d01ce54       0x18
 .text.intGridCreateEmpty
                0x9d01ce54       0x18 build/pic32mz1024ecg064/production/_ext/115108523/intgrid.o
                0x9d01ce54                intGridCreateEmpty

.text.polyBezierInit
                0x9d01ce6c       0x18
 .text.polyBezierInit
                0x9d01ce6c       0x18 build/pic32mz1024ecg064/production/_ext/1360937237/bezier.o
                0x9d01ce6c                polyBezierInit

.text.PLIB_DMA_Enable
                0x9d01ce84       0x18
 .text.PLIB_DMA_Enable
                0x9d01ce84       0x18 /opt/microchip/harmony/v1_03/bin/framework/peripheral/PIC32MZ1024ECG064_peripherals.a(peripheral.o)
                0x9d01ce84                PLIB_DMA_Enable

.text.PLIB_DMA_Disable
                0x9d01ce9c       0x18
 .text.PLIB_DMA_Disable
                0x9d01ce9c       0x18 /opt/microchip/harmony/v1_03/bin/framework/peripheral/PIC32MZ1024ECG064_peripherals.a(peripheral.o)
                0x9d01ce9c                PLIB_DMA_Disable

.text.PLIB_INT_MultiVectorSelect
                0x9d01ceb4       0x18
 .text.PLIB_INT_MultiVectorSelect
                0x9d01ceb4       0x18 /opt/microchip/harmony/v1_03/bin/framework/peripheral/PIC32MZ1024ECG064_peripherals.a(peripheral.o)
                0x9d01ceb4                PLIB_INT_MultiVectorSelect

.text.PLIB_INT_ExternalRisingEdgeSelect
                0x9d01cecc       0x18
 .text.PLIB_INT_ExternalRisingEdgeSelect
                0x9d01cecc       0x18 /opt/microchip/harmony/v1_03/bin/framework/peripheral/PIC32MZ1024ECG064_peripherals.a(peripheral.o)
                0x9d01cecc                PLIB_INT_ExternalRisingEdgeSelect

.text.PLIB_INT_ExternalFallingEdgeSelect
                0x9d01cee4       0x18
 .text.PLIB_INT_ExternalFallingEdgeSelect
                0x9d01cee4       0x18 /opt/microchip/harmony/v1_03/bin/framework/peripheral/PIC32MZ1024ECG064_peripherals.a(peripheral.o)
                0x9d01cee4                PLIB_INT_ExternalFallingEdgeSelect

.text.PLIB_INT_Disable
                0x9d01cefc       0x18
 .text.PLIB_INT_Disable
                0x9d01cefc       0x18 /opt/microchip/harmony/v1_03/bin/framework/peripheral/PIC32MZ1024ECG064_peripherals.a(peripheral.o)
                0x9d01cefc                PLIB_INT_Disable

.text           0x9d01cf14       0x18
 .text          0x9d01cf14       0x18 /opt/microchip/xc32/v1.34/bin/bin/../../lib/gcc/pic32mx/4.5.2/../../../../pic32mx/lib/libpic32.a(default-nmi-handler.o)
                0x9d01cf14                _nmi_handler

.text.imgSegmentCreate
                0x9d01cf2c       0x14
 .text.imgSegmentCreate
                0x9d01cf2c       0x14 build/pic32mz1024ecg064/production/_ext/115108523/imgsegment.o
                0x9d01cf2c                imgSegmentCreate

.text.intListCreate
                0x9d01cf40       0x20
 .text.intListCreate
                0x9d01cf40       0x10 build/pic32mz1024ecg064/production/_ext/115108523/grid.o
 .text.intListCreate
                0x9d01cf50       0x10 build/pic32mz1024ecg064/production/_ext/115108523/gridprobability.o

.text.rotationDecoderReset
                0x9d01cf60        0xc
 .text.rotationDecoderReset
                0x9d01cf60        0xc build/pic32mz1024ecg064/production/_ext/115108523/decoder.o
                0x9d01cf60                rotationDecoderReset

.rodata         0x9d01cf6c        0xc
 .rodata        0x9d01cf6c        0xc build/pic32mz1024ecg064/production/_ext/1360937237/localization.o

.text.polyBezierTrackingReset
                0x9d01cf78        0xc
 .text.polyBezierTrackingReset
                0x9d01cf78        0xc build/pic32mz1024ecg064/production/_ext/1360937237/bezier.o
                0x9d01cf78                polyBezierTrackingReset

.rodata         0x9d01cf84       0x1c
 .rodata        0x9d01cf84        0xc /opt/microchip/harmony/v1_03/bin/framework/peripheral/PIC32MZ1024ECG064_peripherals.a(peripheral.o)
 .rodata        0x9d01cf90        0x8 build/pic32mz1024ecg064/production/_ext/115108523/dots_localization.o
 .rodata        0x9d01cf98        0x8 build/pic32mz1024ecg064/production/_ext/115108523/grid.o

.text.PLIB_PCACHE_ExistsWaitState
                0x9d01cfa0        0x8
 .text.PLIB_PCACHE_ExistsWaitState
                0x9d01cfa0        0x8 /opt/microchip/harmony/v1_03/bin/framework/peripheral/PIC32MZ1024ECG064_peripherals.a(peripheral.o)
                0x9d01cfa0                PLIB_PCACHE_ExistsWaitState

.text.PLIB_PCACHE_ExistsPrefetchEnable
                0x9d01cfa8        0x8
 .text.PLIB_PCACHE_ExistsPrefetchEnable
                0x9d01cfa8        0x8 /opt/microchip/harmony/v1_03/bin/framework/peripheral/PIC32MZ1024ECG064_peripherals.a(peripheral.o)
                0x9d01cfa8                PLIB_PCACHE_ExistsPrefetchEnable

.text._on_reset
                0x9d01cfb0        0x8
 .text._on_reset
                0x9d01cfb0        0x8 /opt/microchip/xc32/v1.34/bin/bin/../../lib/gcc/pic32mx/4.5.2/../../../../pic32mx/lib/libpic32.a(default-on-reset.o)
                0x9d01cfb0                _on_reset

.text._on_bootstrap
                0x9d01cfb8        0x8
 .text._on_bootstrap
                0x9d01cfb8        0x8 /opt/microchip/xc32/v1.34/bin/bin/../../lib/gcc/pic32mx/4.5.2/../../../../pic32mx/lib/libpic32.a(default-on-bootstrap.o)
                0x9d01cfb8                _on_bootstrap

.rodata         0x9d01cfc0        0x8
 .rodata        0x9d01cfc0        0x4 build/pic32mz1024ecg064/production/_ext/1055008133/system_init.o
                0x9d01cfc0                sysDevconInit
 .rodata        0x9d01cfc4        0x4 build/pic32mz1024ecg064/production/_ext/1360937237/motor.o
